Sjasm Z80 Assembler v0.42c - www.xl2s.tk             [2015.03.06 - 08:54:45]

main.asm
Errors: 0

       1   00:0000                      ;----------------------------------------------------------------------------
       2   00:0000                      ;----------------------------------------------------------------------------
       3   00:0000                      
       4   00:0000                              output "maneldem.rom"
       5   00:0000                      
       6   00:0000                      		defpage	0,0x4000, 0x4000		; page 0 main code + far call routines
       7   00:0000                      		defpage	1,0x8000, 0x4000		; swapped data 
       8   00:0000                      		defpage	2..15
       9   00:0000                      	
      10   00:0000  (00:6000)           _bank1	equ	0x6000
      11   00:0000  (00:7000)           _bank2	equ	0x7000
      12   00:0000                      		
      13   00:0000  (00)                		page 0
      14   00:4000                      		
      15   00:4000                              org 4000h
      16   00:4000                              dw  4241h,START,0,0,0,0,0,0
      16   00:4000  41 42 23 42 00 00 00 00 00 00 00 00 00 00 00 00 
      17   00:4010                      
      18   00:4010                      
      19   00:4010                      		include "header.asm"
       1.  00:4010  (00:07A8)           n_tiles: equ 1960
       2.  00:4010  (00:0100)           mapWidth:	equ	256
       3.  00:4010  (00:0020)           mapHeight:	equ	 32
       4.  00:4010  (00:001C)           WinWidth:	equ	 28
       5.  00:4010  (00:0010)           WinHeight:	equ	 16
       6.  00:4010  (00:04FF)           Transp:	equ	1279
       7.  00:4010  (00:0000)           SolidTile0	equ	  0
       8.  00:4010  (00:001A)           SolidTile1	equ	 26
       9.  00:4010  (00:0527)           SolidTile2	equ	1319
      10.  00:4010  (00:0634)           SolidTile3	equ	1588
      11.  00:4010  (00:0716)           SolidTile4	equ	1814
      12.  00:4010  (00:0000)           SolidColor0	equ	  0
      13.  00:4010  (00:0001)           SolidColor1	equ	  1
      14.  00:4010  (00:0004)           SolidColor2	equ	  4
      15.  00:4010  (00:0007)           SolidColor3	equ	  7
      16.  00:4010  (00:0008)           SolidColor4	equ	  8
      17.  00:4010  (00:0005)           NSolidColors	equ	  5
      20   00:4010                      	
      21   00:4010                      		include "rominit64.asm"
       1.  00:4010                      
       2.  00:4010                      ;;;;;;;;;;;;;;;;;;;;;;;;;;;;;;;;;;;;;;;;;;;;;;;;;;;;;;;;;;;;;;;;;;;;;;
       3.  00:4010                      ; set pages and subslot
       4.  00:4010                      ;
       5.  00:4010                      
       6.  00:4010                      
       7.  00:4010  (00:0024)           ENASLT:			equ		024h
       8.  00:4010  (00:0138)           RSLREG:			equ		0138h
       9.  00:4010  (00:FCC1)           EXPTBL:			equ		0FCC1h	; Bios Slot / Expansion Slot
      10.  00:4010                      
      11.  00:4010                      
      12.  00:4010                      ; ----------------------------
      13.  00:4010                      ; pre-set main slot for page 3
      14.  00:4010                      ; and set sub-slot for page 3
      15.  00:4010                      ; ----------------------------
      16.  00:4010                      	macro	mainslot_setup n
      17.  00:4010                    < 	and		3
      18.  00:4010                    < [2]	rrca
      19.  00:4010                    < 	and		0xC0
      20.  00:4010                    < 	ld		c,a
      21.  00:4010                    < 	ld		a,d
      22.  00:4010                    < 	and		0x3F
      23.  00:4010                    < 	or		c
      24.  00:4010                    < 	ld		c,a					; Primary slot value with main slot in page 3
      25.  00:4010                    < 
      26.  00:4010                    < 	ld		a,b
      27.  00:4010                    < 	and		0x0C
      28.  00:4010                    < [2]	rrca
      29.  00:4010                    < 	and		3
      30.  00:4010                    < 	ld		b,a					; B = Expanded slot in page 3
      31.  00:4010                    < 	ld		a,c
      32.  00:4010                    < 	out		(0A8h),a			; Slot : Main Slot, xx, xx, Main slot
      33.  00:4010                    < 	ld		a,(0FFFFh)
      34.  00:4010                    < 	cpl
      35.  00:4010                    < 	if (n<=4)
      36.  00:4010                    < [n]	RLCA
      37.  00:4010                    < 	else
      38.  00:4010                    < [8-n] RRCA	
      39.  00:4010                    < 	endif
      40.  00:4010                    < 	and		0xFC
      41.  00:4010                    < 	or		b
      42.  00:4010                    < 	if (n<=4)
      43.  00:4010                    < [n]	RRCA
      44.  00:4010                    < 	else
      45.  00:4010                    < [8-n] RLCA
      46.  00:4010                    < 	endif
      47.  00:4010                    < 	ld		(0FFFFh),a		; Expanded slot selected
      48.  00:4010                    < 	ld		b,a				; save for later	
      49.  00:4010                    < 	endmacro
      50.  00:4010                      		
      51.  00:4010                      
      52.  00:4010                      ; ------------------------------
      53.  00:4010                      ; SEARCH_SLOT
      54.  00:4010                      ; look for the slot of our rom
      55.  00:4010                      ; active in page 1
      56.  00:4010                      ; ------------------------------
      57.  00:4010                      
      58.  00:4010                      search_slot:
      59.  00:4010  CD 38 01            	call	RSLREG
      60.  00:4013  0F 0F               [2]	rrca
      61.  00:4015  E6 03               	and		3
      62.  00:4017  4F                  	ld		c,a
      63.  00:4018  06 00               	ld		b,0
      64.  00:401A  21 C1 FC            	ld		hl,EXPTBL
      65.  00:401D  09                  	add		hl,bc
      66.  00:401E  7E                  	ld		a,(hl)
      67.  00:401F  E6 80               	and		080h
      68.  00:4021  B1                  	or		c
      69.  00:4022  4F                  	ld		c,a
      70.  00:4023  23 23 23 23         [4]	inc		hl
      71.  00:4027  7E                  	ld		a,(hl)
      72.  00:4028  E6 0C               	and		0Ch
      73.  00:402A  B1                  	or		c
      74.  00:402B  32 00 C0            	ld		(slotvar),a
      75.  00:402E  C9                  	ret
      76.  00:402F                      	
      77.  00:402F                      ; ------------------------------
      78.  00:402F                      ; look for the slot of ram
      79.  00:402F                      ; active in page 3
      80.  00:402F                      ; ------------------------------
      81.  00:402F                      
      82.  00:402F                      search_slotram:
      83.  00:402F  F3                  	di
      84.  00:4030  CD 38 01            	call	RSLREG
      85.  00:4033  07 07               [2]	rlca
      86.  00:4035  E6 03               	and		3
      87.  00:4037  4F                  	ld		c,a
      88.  00:4038  06 00               	ld		b,0
      89.  00:403A  21 C1 FC            	ld		hl,EXPTBL
      90.  00:403D  09                  	add		hl,bc
      91.  00:403E  7E                  	ld		a,(hl)
      92.  00:403F  E6 80               	and		080h
      93.  00:4041  28 0D               	jr		z,search_slotram0
      94.  00:4043  B1                  	or		c
      95.  00:4044  4F                  	ld		c,a
      96.  00:4045  23 23 23 23         [4]	inc		hl
      97.  00:4049  7E                  	ld		a,(hl)
      98.  00:404A  07 07 07 07         [4]	rlca
      99.  00:404E  E6 0C               	and		0Ch
     100.  00:4050                      search_slotram0:
     101.  00:4050  B1                  	or		c
     102.  00:4051  32 01 C0            	ld		(slotram),a
     103.  00:4054  C9                  	ret
     104.  00:4055                      	
     105.  00:4055                      ; ------------------------------
     106.  00:4055                      ; SETROMPAGE0
     107.  00:4055                      ; Set the chart in
     108.  00:4055                      ; Page 0
     109.  00:4055                      ; -----------------------------
     110.  00:4055                      
     111.  00:4055                      setrompage0:
     112.  00:4055  3A 00 C0            	ld		a,(slotvar)
     113.  00:4058  C3 76 40            	jp		setslotpage0
     114.  00:405B                      
     115.  00:405B                      setrompage2:
     116.  00:405B  3A 00 C0            	ld		a,(slotvar)
     117.  00:405E  C3 EC 40            	jp		setslotpage2
     118.  00:4061                      
     119.  00:4061                      setrampage2:
     120.  00:4061  3A 01 C0            	ld		a,(slotram)
     121.  00:4064  C3 EC 40            	jp		setslotpage2
     122.  00:4067                      	
     123.  00:4067                      setrompage3:
     124.  00:4067  3A 00 C0            	ld		a,(slotvar)
     125.  00:406A  C3 33 41            	jp		setslotpage3
     126.  00:406D                      
     127.  00:406D                      setrampage3:
     128.  00:406D  3A 01 C0            	ld		a,(slotram)
     129.  00:4070  C3 33 41            	jp		setslotpage3
     130.  00:4073                      	
     131.  00:4073                      ; ------------------------------
     132.  00:4073                      ; RECBIOS
     133.  00:4073                      ; set the bios ROM
     134.  00:4073                      ; -------------------------------
     135.  00:4073                      recbios:
     136.  00:4073  3A C1 FC            	ld		a,(EXPTBL)
     137.  00:4076                      
     138.  00:4076                      ; ---------------------------
     139.  00:4076                      ; SETSLOTPAGE0
     140.  00:4076                      ; Set the slot passed in A
     141.  00:4076                      ; at page 0 in the Z80 address space
     142.  00:4076                      ; A: Format FxxxSSPP
     143.  00:4076                      ; ----------------------------
     144.  00:4076                      
     145.  00:4076                      setslotpage0:
     146.  00:4076  F3                  	di
     147.  00:4077  47                  	ld		b,a					; B = Slot param in FxxxSSPP format
     148.  00:4078  DB A8               	in		a,(0A8h)
     149.  00:407A  E6 FC               	and		0xFC
     150.  00:407C  57                  	ld		d,a					; D = Primary slot value
     151.  00:407D  78                  	ld		a,b
     152.  00:407E  E6 03               	and		3
     153.  00:4080  B2                  	or		d
     154.  00:4081  57                  	ld		d,a		; D = Final Value for primary slot
     155.  00:4082  78                  	ld		a,b		; Check if expanded
     156.  00:4083  CB 7F               	bit		7,a
     157.  00:4085  28 22               	jr		z,1f	; Not Expanded
     158.  00:4087                      	mainslot_setup	0
     158.  00:4087  E6 03             >  and  3
     158.  00:4089  0F 0F             > [2] rrca
     158.  00:408B  E6 C0             >  and  0xC0
     158.  00:408D  4F                >  ld  c,a
     158.  00:408E  7A                >  ld  a,d
     158.  00:408F  E6 3F             >  and  0x3F
     158.  00:4091  B1                >  or  c
     158.  00:4092  4F                >  ld  c,a
     158.  00:4093                    > 
     158.  00:4093  78                >  ld  a,b
     158.  00:4094  E6 0C             >  and  0x0C
     158.  00:4096  0F 0F             > [2] rrca
     158.  00:4098  E6 03             >  and  3
     158.  00:409A  47                >  ld  b,a
     158.  00:409B  79                >  ld  a,c
     158.  00:409C  D3 A8             >  out  (0A8h),a
     158.  00:409E  3A FF FF          >  ld  a,(0FFFFh)
     158.  00:40A1  2F                >  cpl
     158.  00:40A2                    >  if (n<=4)
     158.  00:40A2                    > [n] RLCA
     158.  00:40A2                    >  else
     158.  00:40A2                    ~ [8-n] RRCA
     158.  00:40A2                    ~  endif
     158.  00:40A2  E6 FC             >  and  0xFC
     158.  00:40A4  B0                >  or  b
     158.  00:40A5                    >  if (n<=4)
     158.  00:40A5                    > [n] RRCA
     158.  00:40A5                    >  else
     158.  00:40A5                    ~ [8-n] RLCA
     158.  00:40A5                    ~  endif
     158.  00:40A5  32 FF FF          >  ld  (0FFFFh),a
     158.  00:40A8  47                >  ld  b,a
     159.  00:40A9  7A                  1:	ld		a,d				; A = Final value
     160.  00:40AA  D3 A8               	out		(0A8h),a		; Slot Final. Ram, rom c, rom c, Main
     161.  00:40AC  C9                  	ret
     162.  00:40AD                      
     163.  00:40AD                      ; ---------------------------
     164.  00:40AD                      ; SETSLOTPAGE1
     165.  00:40AD                      ; Set the slot passed in A
     166.  00:40AD                      ; at page 1 in the Z80 address space
     167.  00:40AD                      ; A: Format FxxxSSPP
     168.  00:40AD                      ; ----------------------------
     169.  00:40AD                      
     170.  00:40AD                      setslotpage1:
     171.  00:40AD  F3                  	di
     172.  00:40AE  47                  	ld		b,a					; B = Slot param in FxxxSSPP format
     173.  00:40AF  DB A8               	in		a,(0A8h)
     174.  00:40B1  0F 0F               [2]	RRCA
     175.  00:40B3  E6 FC               	and		0xFC
     176.  00:40B5  57                  	ld		d,a					; D = Primary slot value
     177.  00:40B6  78                  	ld		a,b
     178.  00:40B7  E6 03               	and		3
     179.  00:40B9  B2                  	or		d
     180.  00:40BA  07 07               [2]	RLCA
     181.  00:40BC  57                  	ld		d,a		; D = Final Value for primary slot
     182.  00:40BD  78                  	ld		a,b		; Check if expanded
     183.  00:40BE  CB 7F               	bit		7,a
     184.  00:40C0  28 26               	jr		z,1f	; Not Expanded
     185.  00:40C2                      	mainslot_setup	6
     185.  00:40C2  E6 03             >  and  3
     185.  00:40C4  0F 0F             > [2] rrca
     185.  00:40C6  E6 C0             >  and  0xC0
     185.  00:40C8  4F                >  ld  c,a
     185.  00:40C9  7A                >  ld  a,d
     185.  00:40CA  E6 3F             >  and  0x3F
     185.  00:40CC  B1                >  or  c
     185.  00:40CD  4F                >  ld  c,a
     185.  00:40CE                    > 
     185.  00:40CE  78                >  ld  a,b
     185.  00:40CF  E6 0C             >  and  0x0C
     185.  00:40D1  0F 0F             > [2] rrca
     185.  00:40D3  E6 03             >  and  3
     185.  00:40D5  47                >  ld  b,a
     185.  00:40D6  79                >  ld  a,c
     185.  00:40D7  D3 A8             >  out  (0A8h),a
     185.  00:40D9  3A FF FF          >  ld  a,(0FFFFh)
     185.  00:40DC  2F                >  cpl
     185.  00:40DD                    >  if (n<=4)
     185.  00:40DD                    ~ [n] RLCA
     185.  00:40DD                    ~  else
     185.  00:40DD  0F 0F             > [8-n] RRCA
     185.  00:40DF                    >  endif
     185.  00:40DF  E6 FC             >  and  0xFC
     185.  00:40E1  B0                >  or  b
     185.  00:40E2                    >  if (n<=4)
     185.  00:40E2                    ~ [n] RRCA
     185.  00:40E2                    ~  else
     185.  00:40E2  07 07             > [8-n] RLCA
     185.  00:40E4                    >  endif
     185.  00:40E4  32 FF FF          >  ld  (0FFFFh),a
     185.  00:40E7  47                >  ld  b,a
     186.  00:40E8  7A                  1:	ld		a,d				; A = Final value
     187.  00:40E9  D3 A8               	out		(0A8h),a		; Slot Final. Ram, rom c, rom c, Main
     188.  00:40EB  C9                  	ret
     189.  00:40EC                      	
     190.  00:40EC                      
     191.  00:40EC                      ; ---------------------------
     192.  00:40EC                      ; SETSLOTPAGE2
     193.  00:40EC                      ; Set the slot passed in A
     194.  00:40EC                      ; at page 2 in the Z80 address space
     195.  00:40EC                      ; A: Format FxxxSSPP
     196.  00:40EC                      ; ----------------------------
     197.  00:40EC                      
     198.  00:40EC                      setslotpage2:
     199.  00:40EC  F3                  	di
     200.  00:40ED  47                  	ld		b,a					; B = Slot param in FxxxSSPP format
     201.  00:40EE  DB A8               	in		a,(0A8h)
     202.  00:40F0  07 07 07 07         [4]	RLCA
     203.  00:40F4  E6 FC               	and		0xFC
     204.  00:40F6  57                  	ld		d,a					; D = Primary slot value
     205.  00:40F7  78                  	ld		a,b
     206.  00:40F8  E6 03               	and		3
     207.  00:40FA  B2                  	or		d
     208.  00:40FB  0F 0F 0F 0F         [4]	RRCA
     209.  00:40FF  57                  	ld		d,a		; D = Final Value for primary slot
     210.  00:4100  78                  	ld		a,b		; Check if expanded
     211.  00:4101  CB 7F               	bit		7,a
     212.  00:4103  28 2A               	jr		z,1f	; Not Expanded
     213.  00:4105                      	mainslot_setup	4
     213.  00:4105  E6 03             >  and  3
     213.  00:4107  0F 0F             > [2] rrca
     213.  00:4109  E6 C0             >  and  0xC0
     213.  00:410B  4F                >  ld  c,a
     213.  00:410C  7A                >  ld  a,d
     213.  00:410D  E6 3F             >  and  0x3F
     213.  00:410F  B1                >  or  c
     213.  00:4110  4F                >  ld  c,a
     213.  00:4111                    > 
     213.  00:4111  78                >  ld  a,b
     213.  00:4112  E6 0C             >  and  0x0C
     213.  00:4114  0F 0F             > [2] rrca
     213.  00:4116  E6 03             >  and  3
     213.  00:4118  47                >  ld  b,a
     213.  00:4119  79                >  ld  a,c
     213.  00:411A  D3 A8             >  out  (0A8h),a
     213.  00:411C  3A FF FF          >  ld  a,(0FFFFh)
     213.  00:411F  2F                >  cpl
     213.  00:4120                    >  if (n<=4)
     213.  00:4120  07 07 07 07       > [n] RLCA
     213.  00:4124                    >  else
     213.  00:4124                    ~ [8-n] RRCA
     213.  00:4124                    ~  endif
     213.  00:4124  E6 FC             >  and  0xFC
     213.  00:4126  B0                >  or  b
     213.  00:4127                    >  if (n<=4)
     213.  00:4127  0F 0F 0F 0F       > [n] RRCA
     213.  00:412B                    >  else
     213.  00:412B                    ~ [8-n] RLCA
     213.  00:412B                    ~  endif
     213.  00:412B  32 FF FF          >  ld  (0FFFFh),a
     213.  00:412E  47                >  ld  b,a
     214.  00:412F  7A                  1:	ld		a,d				; A = Final value
     215.  00:4130  D3 A8               	out		(0A8h),a		; Slot Final. Ram, rom c, rom c, Main
     216.  00:4132  C9                  	ret
     217.  00:4133                      	
     218.  00:4133                      ; ---------------------------
     219.  00:4133                      ; SETSLOTPAGE3
     220.  00:4133                      ; Set the slot passed in A
     221.  00:4133                      ; at page 3 in the Z80 address space
     222.  00:4133                      ; A: Format FxxxSSPP
     223.  00:4133                      ; ----------------------------
     224.  00:4133                      	
     225.  00:4133                      setslotpage3:
     226.  00:4133  F3                  	di
     227.  00:4134  47                  	ld		b,a					; B = Slot param in FxxxSSPP format
     228.  00:4135  DB A8               	in		a,(0A8h)
     229.  00:4137  07 07               [2]	RLCA
     230.  00:4139  E6 FC               	and		0xFC
     231.  00:413B  57                  	ld		d,a					; D = Primary slot value
     232.  00:413C  78                  	ld		a,b
     233.  00:413D  E6 03               	and		3
     234.  00:413F  B2                  	or		d
     235.  00:4140  0F 0F               [2]	RRCA	
     236.  00:4142  57                  	ld		d,a		; D = Final Value for primary slot
     237.  00:4143  78                  	ld		a,b		; Check if expanded
     238.  00:4144  CB 7F               	bit		7,a
     239.  00:4146  28 26               	jr		z,1f	; Not Expanded
     240.  00:4148                      	mainslot_setup	2
     240.  00:4148  E6 03             >  and  3
     240.  00:414A  0F 0F             > [2] rrca
     240.  00:414C  E6 C0             >  and  0xC0
     240.  00:414E  4F                >  ld  c,a
     240.  00:414F  7A                >  ld  a,d
     240.  00:4150  E6 3F             >  and  0x3F
     240.  00:4152  B1                >  or  c
     240.  00:4153  4F                >  ld  c,a
     240.  00:4154                    > 
     240.  00:4154  78                >  ld  a,b
     240.  00:4155  E6 0C             >  and  0x0C
     240.  00:4157  0F 0F             > [2] rrca
     240.  00:4159  E6 03             >  and  3
     240.  00:415B  47                >  ld  b,a
     240.  00:415C  79                >  ld  a,c
     240.  00:415D  D3 A8             >  out  (0A8h),a
     240.  00:415F  3A FF FF          >  ld  a,(0FFFFh)
     240.  00:4162  2F                >  cpl
     240.  00:4163                    >  if (n<=4)
     240.  00:4163  07 07             > [n] RLCA
     240.  00:4165                    >  else
     240.  00:4165                    ~ [8-n] RRCA
     240.  00:4165                    ~  endif
     240.  00:4165  E6 FC             >  and  0xFC
     240.  00:4167  B0                >  or  b
     240.  00:4168                    >  if (n<=4)
     240.  00:4168  0F 0F             > [n] RRCA
     240.  00:416A                    >  else
     240.  00:416A                    ~ [8-n] RLCA
     240.  00:416A                    ~  endif
     240.  00:416A  32 FF FF          >  ld  (0FFFFh),a
     240.  00:416D  47                >  ld  b,a
     241.  00:416E  7A                  1:	ld		a,d				; A = Final value
     242.  00:416F  D3 A8               	out		(0A8h),a		; Slot Final. Ram, rom c, rom c, Main
     243.  00:4171  C9                  	ret
     244.  00:4172                      
     245.  00:4172                      	
      22   00:4172                      
      23   00:4172  (00:000C)           rdslt	equ	0x000c
      24   00:4172  (00:001C)           CALSLT	equ	0x001c
      25   00:4172  (00:0180)           chgcpu	equ	0x0180	; change cpu mode
      26   00:4172  (00:FCC1)           exttbl	equ	0xfcc1	; main rom slot
      27   00:4172                      
      28   00:4172                      ; _levelmap:			#mapWidth*mapHeight*2	
      29   00:4172                      
      30   00:4172  (00:8000)           _levelmap equ	0x8000	; ram in page 1
      31   00:4172                      
      32   00:4172                      ; Switch to r800 rom mode
      33   00:4172                      	
      34   00:4172                      _set_r800:
      35   00:4172  DB AA               		in	a,(0aah)
      36   00:4174  E6 F0               		and 011110000B			; upper 4 bits contain info to preserve
      37   00:4176  F6 06               		or	6
      38   00:4178  D3 AA               		out (0aah),a
      39   00:417A  DB A9               		in	a,(0a9h)
      40   00:417C  6F                  		ld	l,a
      41   00:417D                      
      42   00:417D  3A 2D 00            		ld	a,(0x002d)
      43   00:4180  FE 03               		cp	3					; this is a TR
      44   00:4182  7D                  		ld	a,l
      45   00:4183  28 0E               		jr	z,set_turbo_tr
      46   00:4185                      								; this is anything else
      47   00:4185  E6 02               		and	0x02				; CTR
      48   00:4187  C0                  		ret	nz					; if NZ, CTR is not pressed set the turbo
      49   00:4188                      
      50   00:4188  3A 80 01            		ld	A,(chgcpu)
      51   00:418B  FE C3               		cp	0C3h
      52   00:418D  3E 81               		ld	a,81h              ; R800 ROM mode or any other turbo
      53   00:418F  CC 80 01            		call	z,chgcpu
      54   00:4192  C9                  		ret
      55   00:4193                      
      56   00:4193                      set_turbo_tr
      57   00:4193  E6 02               		and	0x02				; CTR
      58   00:4195  C8                  		ret	z					; if Z, CTR is pressed -> do not set the turbo
      59   00:4196  3E 81               		ld	a,81h              	; R800 ROM mode
      60   00:4198  C3 80 01            		jp chgcpu
      61   00:419B                      		
      62   00:419B                      	
      63   00:419B                      checkkbd:
      64   00:419B  DB AA               		in	a,(0aah)
      65   00:419D  E6 F0               		and 011110000B			; upper 4 bits contain info to preserve
      66   00:419F  B3                  		or	e
      67   00:41A0  D3 AA               		out (0aah),a
      68   00:41A2  DB A9               		in	a,(0a9h)
      69   00:41A4  6F                  		ld	l,a
      70   00:41A5  C9                  		ret
      71   00:41A6                      		
      72   00:41A6                      ;-------------------------------------		
      73   00:41A6                      		
      74   00:41A6                      		include plot_frame.asm
       1.  00:41A6                      
       2.  00:41A6                      plot_frame:
       3.  00:41A6  0E 10               		ld		c,WinHeight
       4.  00:41A8                      		
       5.  00:41A8  2E 00               		ld	l,0
       6.  00:41AA  3A 25 C0            		ld	a,(_ymappos)
       7.  00:41AD                      
       8.  00:41AD  1F 1F               [2]		rra
       9.  00:41AF  E6 3E               		and	00111110B				; ONLY IF mapWidth=256
      10.  00:41B1  67                  		ld	h,a
      11.  00:41B2                      
      12.  00:41B2  ED 5B 26 C0         		ld	de,(_xmappos)
      13.  00:41B6                      		repeat 2		; X /8 * 2
      14.  00:41B6                    < 		srl		d
      15.  00:41B6                    < 		rr		e
      16.  00:41B6                    < 		endrepeat
      16.  00:41B6  CB 3A CB 1B CB 3A CB 1B 
      17.  00:41BE  CB 83               		res		0,e
      18.  00:41C0  19                  		add		hl,de
      19.  00:41C1                      		
      20.  00:41C1  11 00 80            		ld		de,_levelmap		; byte scale
      21.  00:41C4  19                  		add		hl,de
      22.  00:41C5  EB                  		ex		de,hl				; de -> levelmap
      23.  00:41C6  21 84 00            		ld		hl,2*(2*32+2)		; hl -> screen 
      24.  00:41C9                      		
      25.  00:41C9  3A 26 C0            		ld		a,(_xmappos)
      26.  00:41CC  E6 04               		and		00000100B
      27.  00:41CE  47                  		ld		b,a
      28.  00:41CF  3A 25 C0            		ld		a,(_ymappos)
      29.  00:41D2  E6 04               		and		00000100B
      30.  00:41D4  1F                  		rra
      31.  00:41D5  80                  		add		a,b
      32.  00:41D6  DD 6F               		ld		ixl,a			; ixl -> scroll offset
      33.  00:41D8                      		
      34.  00:41D8                      		
      35.  00:41D8  06 1C               2:		ld		b,WinWidth
      36.  00:41DA  D5                  		push	de
      37.  00:41DB                      
      38.  00:41DB  D5                  3:		push	de
      39.  00:41DC  E5                  		push	hl
      40.  00:41DD                      		
      41.  00:41DD  EB                  		ex		de,hl
      42.  00:41DE  5E                  		ld		e,(hl)
      43.  00:41DF  23                  		inc		hl
      44.  00:41E0  56                  		ld		d,(hl)		; DE = meta tile
      45.  00:41E1                      		
      46.  00:41E1  EB                  		ex		de,hl
      47.  00:41E2  29 29 29            [3]		add		hl,hl
      48.  00:41E5                      		
      49.  00:41E5  DD 7D               		ld	a,ixl
      50.  00:41E7  B5                  		or	l
      51.  00:41E8  6F                  		ld	l,a
      52.  00:41E9                      		
      53.  00:41E9  11 39 47            		ld		de,_metatable
      54.  00:41EC  19                  		add		hl,de
      55.  00:41ED                      
      56.  00:41ED  5E                  		ld		e,(hl)
      57.  00:41EE  23                  		inc		hl
      58.  00:41EF  56                  		ld		d,(hl)		; DE = tile
      59.  00:41F0                      
      60.  00:41F0  E1                  		pop		hl			; HL = screen position
      61.  00:41F1  E5                  		push	hl
      62.  00:41F2                      
      63.  00:41F2  C5                  		push	bc
      64.  00:41F3                      		
      65.  00:41F3  ED 4B 28 C0         		ld		bc,(_shadowbuff)
      66.  00:41F7  09                  		add		hl,bc		; HL = pointer to the shadow map
      67.  00:41F8                      		
      68.  00:41F8  7E                  		ld		a,(hl)		; Avoid writing the same tile
      69.  00:41F9  BB                  		cp		e
      70.  00:41FA  23                  		inc		hl
      71.  00:41FB  C2 06 42            		jp		nz,1f
      72.  00:41FE  7E                  		ld		a,(hl)
      73.  00:41FF  BA                  		cp		d
      74.  00:4200  C2 06 42            		jp		nz,1f
      75.  00:4203  C3 0F 42            		jp		4f
      76.  00:4206                      1:
      77.  00:4206  72                  		ld		(hl),d		; rewrite the position with the actual tile in shadowbuffer
      78.  00:4207  2B                  		dec		hl
      79.  00:4208  73                  		ld		(hl),e
      80.  00:4209  A7                  		and		a
      81.  00:420A  ED 42               		sbc		hl,bc		; HL relative position in 32x24*2
      82.  00:420C                      							; DE new 16 tile to be plotted
      83.  00:420C  CD 8B 45            		call	plot_tile
      84.  00:420F                      4:		
      85.  00:420F  C1                  		pop		bc
      86.  00:4210  E1                  		pop		hl
      87.  00:4211  D1                  		pop		de
      88.  00:4212                      		
      89.  00:4212  23 23               [2]		inc		hl			; the screen in WinWidthxWinHeight of uints
      90.  00:4214                      		
      91.  00:4214  13 13               [2]		inc		de			; the levelmap is uint
      92.  00:4216  10 C3               		djnz	3b
      93.  00:4218                      		
      94.  00:4218                      		if (WinWidth<32)
      95.  00:4218  11 08 00            			ld	de,2*(32-WinWidth)	; only if WinWidth<32
      96.  00:421B  19                  			add	hl,de
      97.  00:421C                      		endif
      98.  00:421C                      		
      99.  00:421C  D1                  		pop		de
     100.  00:421D                      		
     101.  00:421D  14 14               [2]		inc d				; only if mapWidth=256
     102.  00:421F                      		
     103.  00:421F  0D                  		dec		c
     104.  00:4220  20 B6               		jr	nz,2b
     105.  00:4222  C9                  		ret
      75   00:4223                      		
      76   00:4223                      ;-------------------------------------
      77   00:4223                      ; Entry point
      78   00:4223                      ;-------------------------------------
      79   00:4223                      START:
      80   00:4223  1E 05                       ld		e,5
      81   00:4225  CD CC 46            		call	_scr
      82   00:4228                      
      83   00:4228  CD 72 41            		call 	_set_r800
      84   00:422B  CD 49 44                    call    powerup
      85   00:422E                      
      86   00:422E  1E 06               		ld e,6
      87   00:4230  CD 9B 41            		call	checkkbd
      88   00:4233  3E 01               		ld	a,1
      89   00:4235  CB 0D               		rrc	l				; shift
      90   00:4237  D2 3B 42            		jp	nc,_ntsc
      91   00:423A  AF                  		xor	a
      92   00:423B  32 02 C0            _ntsc:	ld	(SEL_NTSC),a	; if set NSTC, if reset PAL
      93   00:423E                      		
      94   00:423E                      		; ld	e,7
      95   00:423E                      		; call	checkkbd
      96   00:423E                      		; and	0x04				; ESC
      97   00:423E                      		; jp 	z,_mballon_start
      98   00:423E                      		
      99   00:423E  11 00 00            		ld		de,0
     100   00:4241  4B                  		ld		c,e
     101   00:4242  F3                  		di
     102   00:4243  CD 87 46            		call	_vdpsetvramwr
     103   00:4246  01 00 00            		ld		bc,0x0000
     104   00:4249  AF                  1:		xor		a
     105   00:424A  D3 98               		out		(0x98),a
     106   00:424C  0B                  		dec		bc
     107   00:424D  78                  		ld		a,b
     108   00:424E  B1                  		or		c
     109   00:424F  20 F8               		jr	nz,1b
     110   00:4251                      		
     111   00:4251  F3                  		di
     112   00:4252                      		// sprites 16x16
     113   00:4252  3A E0 F3            		ld	a,(0xF3E0)
     114   00:4255  F6 02               		or	2
     115   00:4257  32 E0 F3            		ld	(0xF3E0),a
     116   00:425A  D3 99               		out		(0x99),a
     117   00:425C  3E 81               		ld		a,128+1
     118   00:425E  D3 99               		out		(0x99),a
     119   00:4260                      
     120   00:4260                      		// border color
     121   00:4260  3E 55               		ld		a,0x55
     122   00:4262  D3 99               		out		(0x99),a
     123   00:4264  3E 87               		ld		a,128+7
     124   00:4266  D3 99               		out		(0x99),a
     125   00:4268                      		
     126   00:4268                      		// enable sprites + TP
     127   00:4268  3A E7 FF            		ld		a,(0xFFE7)
     128   00:426B  F6 20               		or		32
     129   00:426D  32 E7 FF            		ld		(0xFFE7),a
     130   00:4270  D3 99               		out		(0x99),a
     131   00:4272  3E 88               		ld		a,128+8
     132   00:4274  D3 99               		out		(0x99),a
     133   00:4276                      		
     134   00:4276                      		// Set 192 lines @50Hz (PAL assumed!)
     135   00:4276  3A 02 C0            		ld	a,(SEL_NTSC)
     136   00:4279  A7                  		and 	a
     137   00:427A  20 0C               		jr		nz,1f
     138   00:427C                      		
     139   00:427C  3A E8 FF            		ld		a,(0xFFE8)		; PAL
     140   00:427F  E6 7F               		and		127
     141   00:4281  F6 02               		or		2
     142   00:4283  32 E8 FF            		ld		(0xFFE8),a
     143   00:4286  18 0C               		jr	2f
     144   00:4288  3A E8 FF            1:		ld		a,(0xFFE8)		; NTSC
     145   00:428B  E6 7F               		and		127
     146   00:428D  F6 02               		or		2
     147   00:428F  EE 02               		xor		2
     148   00:4291  32 E8 FF            		ld		(0xFFE8),a
     149   00:4294                      2:	
     150   00:4294  D3 99               		out		(0x99),a
     151   00:4296  3E 89               		ld		a,128+9
     152   00:4298  D3 99               		out		(0x99),a
     153   00:429A  FB                  		ei
     154   00:429B                      
     155   00:429B  CD D0 63            		call _hw_sprite_init
     156   00:429E                      		
     157   00:429E  3E C3               		LD	A,0xC3
     158   00:42A0  21 19 44            		LD	HL,_isr
     159   00:42A3  F3                  		DI
     160   00:42A4  32 9F FD            		LD	(0xFD9F),A
     161   00:42A7  22 A0 FD            		LD	(0xFDA0),HL
     162   00:42AA  FB                  		EI
     163   00:42AB                      
     164   00:42AB  CD 79 46            		call	_clean_buffs
     165   00:42AE                      
     166   00:42AE  CD 80 44            		call	_SetPalet
     167   00:42B1  1E 00               		ld		e,0
     168   00:42B3  CD BB 46                    call	_setpage
     169   00:42B6                      		
     170   00:42B6                      		; unpack level map (meta_tiles)
     171   00:42B6  3E 04               		ld	a, :_level
     172   00:42B8  32 00 70            		ld	(_bank2),a
     173   00:42BB                      		
     174   00:42BB  AF                  		xor	a
     175   00:42BC  32 20 C0            		ld		(_vbit16 ),a
     176   00:42BF  11 00 80            		ld		de,	_level
     177   00:42C2  01 00 00            		ld		bc,0
     178   00:42C5  CD 92 44            		call	_vuitpakker 
     179   00:42C8                      		
     180   00:42C8  CD 61 40            		call	setrampage2
     181   00:42CB                      		
     182   00:42CB  11 00 00            		ld		de,0
     183   00:42CE  4B                  		ld		c,e
     184   00:42CF  CD A1 46            		call	_vdpsetvramrd
     185   00:42D2  21 00 80            		ld		hl,_levelmap
     186   00:42D5  11 00 40            		ld		de,mapWidth*mapHeight*2
     187   00:42D8  0E 98               		ld		c,0x98
     188   00:42DA  ED A2               1:		ini
     189   00:42DC  1B                  		dec	de
     190   00:42DD  7A                  		ld	a,d
     191   00:42DE  B3                  		or	e
     192   00:42DF  20 F9               		jr	nz,1b
     193   00:42E1                      
     194   00:42E1  CD 5B 40            		call	setrompage2
     195   00:42E4                      				
     196   00:42E4                      		; unpack frame
     197   00:42E4  3E 01               		ld		a, :_frame
     198   00:42E6  32 00 70            		ld		(_bank2),a
     199   00:42E9                      		
     200   00:42E9  AF                  		xor	a
     201   00:42EA  32 20 C0            		ld		(_vbit16 ),a
     202   00:42ED  11 00 80            		ld		de,	_frame
     203   00:42F0  01 00 00            		ld		bc,0
     204   00:42F3  CD 92 44            		call	_vuitpakker 
     205   00:42F6                      
     206   00:42F6  1E 01               		ld		e,1
     207   00:42F8  CD BB 46                    call	_setpage
     208   00:42FB                      
     209   00:42FB  11 00 80            		ld		de,	_frame
     210   00:42FE  01 00 80            		ld		bc,0x8000
     211   00:4301  CD 92 44            		call	_vuitpakker 
     212   00:4304                      		
     213   00:4304                      		; unpack mc frames
     214   00:4304  3E 01               		ld		a, :_mc_sprites
     215   00:4306  32 00 70            		ld		(_bank2),a
     216   00:4309                      		
     217   00:4309  AF                  		xor	a
     218   00:430A  32 20 C0            		ld		(_vbit16 ),a
     219   00:430D  11 51 89            		ld		de,	_mc_sprites
     220   00:4310  01 00 E0            		ld		bc,192*128+256*128
     221   00:4313  CD 92 44            		call	_vuitpakker 
     222   00:4316                      				
     223   00:4316  1E 02               		ld		e,2
     224   00:4318  CD BB 46                    call	_setpage
     225   00:431B                      
     226   00:431B                      		; unpack tileset
     227   00:431B  3E 02               		ld		a, :_tiles0
     228   00:431D  32 00 70            		ld		(_bank2),a
     229   00:4320                      		
     230   00:4320  3E 01               		ld		a,1
     231   00:4322  32 20 C0            		ld		(_vbit16 ),a
     232   00:4325  11 00 80            		ld		de,	_tiles0
     233   00:4328  01 00 00            		ld		bc,0
     234   00:432B  CD 92 44            		call	_vuitpakker 
     235   00:432E                      		
     236   00:432E  1E 03               		ld		e,3
     237   00:4330  CD BB 46                    call	_setpage
     238   00:4333                      		
     239   00:4333  3E 03               		ld		a, :_tiles1
     240   00:4335  32 00 70            		ld		(_bank2),a
     241   00:4338                      		
     242   00:4338  3E 01               		ld		a,1
     243   00:433A  32 20 C0            		ld		(_vbit16 ),a
     244   00:433D  11 00 80            		ld		de,	_tiles1
     245   00:4340  01 00 80            		ld		bc,0x8000
     246   00:4343  CD 92 44            		call	_vuitpakker 
     247   00:4346                      		
     248   00:4346                      		; call	int_sprites
     249   00:4346                      
     250   00:4346                      		; main init
     251   00:4346                      		
     252   00:4346  CD 61 40            		call	setrampage2
     253   00:4349  FB                  		ei
     254   00:434A                      		
     255   00:434A  21 00 00            		ld		hl,0
     256   00:434D  7C                  		ld		a,h
     257   00:434E  22 22 C0            		ld		(_levelmappos),hl
     258   00:4351  32 24 C0            		ld		(_levelmappos+2),a
     259   00:4354  32 25 C0            		ld		(_ymappos),a
     260   00:4357  22 26 C0            		ld		(_xmappos),hl
     261   00:435A                      		
     262   00:435A  22 1E C0            		ld		(_nframes),hl
     263   00:435D  32 2A C0            		ld		(_currentpage),a
     264   00:4360  32 03 C0            		ld		(_mcdx),a
     265   00:4363  32 09 C0            		ld		(_mcframe),a
     266   00:4366                      main_loop:
     267   00:4366  AF                  		xor		a
     268   00:4367  32 0B C0            		ld		(_ticxframe),a
     269   00:436A                      
     270   00:436A  3A 2A C0            		ld		a,(_currentpage)
     271   00:436D  EE 01               		xor		1
     272   00:436F  32 2A C0            		ld		(_currentpage),a
     273   00:4372  EE 01               		xor		1
     274   00:4374  5F                  		ld		e,a
     275   00:4375  76                  		halt
     276   00:4376  CD BB 46                    call	_setpage
     277   00:4379  CB 43               		bit		0,e
     278   00:437B  21 2B C6            		ld		hl,_shadow1
     279   00:437E  20 03               		jr		nz,1f
     280   00:4380  21 2B C0            		ld		hl,_shadow0
     281   00:4383  22 28 C0            1:		ld		(_shadowbuff),hl
     282   00:4386                      
     283   00:4386                      		; ld	ix,enemylist
     284   00:4386                      		; call save_background
     285   00:4386                      
     286   00:4386                      		; ld	ix,enemylist
     287   00:4386                      		; call plot_sprite
     288   00:4386                      
     289   00:4386  CD A6 41            		call	plot_frame
     290   00:4389                      		
     291   00:4389  CD 49 64            		call	enemies_LMMM
     292   00:438C                      
     293   00:438C                      		; ld	ix,enemylist
     294   00:438C                      		; call restore_background
     295   00:438C                      
     296   00:438C                      		; ld	ix,enemylist
     297   00:438C                      		; call	move_sprites
     298   00:438C                      		
     299   00:438C  CD 0B 47            		call	_compute_fps
     300   00:438F  CD E9 46            		call	_print_fps
     301   00:4392                      
     302   00:4392  2A 1E C0            		ld		hl,(_nframes)
     303   00:4395  23                  		inc		hl
     304   00:4396  22 1E C0            		ld		(_nframes),hl
     305   00:4399                      		
     306   00:4399  CD 52 44            		call	_cursors
     307   00:439C  7D                  		ld		a,l
     308   00:439D  FE 01               		cp		1
     309   00:439F  CA BA 43            		jp		z,up
     310   00:43A2  FE 03               		cp		3
     311   00:43A4  CA E2 43            		jp		z,right
     312   00:43A7  FE 05               		cp		5
     313   00:43A9  CA CF 43            		jp		z,dwn
     314   00:43AC  FE 07               		cp		7
     315   00:43AE  CA FC 43            		jp		z,left
     316   00:43B1  3E FF               		ld		a,-1
     317   00:43B3  32 09 C0            		ld		(_mcframe),a
     318   00:43B6  C3 66 43            		jp      main_loop
     319   00:43B9                      
     320   00:43B9  C9                          ret
     321   00:43BA                      
     322   00:43BA                      up:		
     323   00:43BA  3A 25 C0            		ld		a,(_ymappos)
     324   00:43BD  47                  		ld		b,a
     325   00:43BE  3A 0B C0            		ld		a,(_ticxframe)
     326   00:43C1  ED 44               		neg
     327   00:43C3  80                  		add		a,b
     328   00:43C4  32 25 C0            		ld		(_ymappos),a
     329   00:43C7  3E 02               		ld	a,2
     330   00:43C9  32 0A C0            		ld	(_mcstate),a
     331   00:43CC  C3 66 43            		jp      main_loop
     332   00:43CF                      
     333   00:43CF                      dwn:	
     334   00:43CF  3A 25 C0            		ld		a,(_ymappos)
     335   00:43D2  47                  		ld		b,a
     336   00:43D3  3A 0B C0            		ld		a,(_ticxframe)
     337   00:43D6  80                  		add		a,b
     338   00:43D7  32 25 C0            		ld		(_ymappos),a
     339   00:43DA  3E 03               		ld	a,3
     340   00:43DC  32 0A C0            		ld	(_mcstate),a
     341   00:43DF  C3 66 43            		jp      main_loop
     342   00:43E2                      		
     343   00:43E2                      right:	
     344   00:43E2  3E 04               		ld		a,4
     345   00:43E4  32 03 C0            		ld		(_mcdx),a
     346   00:43E7                      
     347   00:43E7  3E 01               		ld	a,1
     348   00:43E9  32 0A C0            		ld	(_mcstate),a
     349   00:43EC                      
     350   00:43EC  3A 0B C0            		ld		a,(_ticxframe)
     351   00:43EF  4F                  		ld		c,a
     352   00:43F0  06 00               		ld		b,0
     353   00:43F2  2A 26 C0            		ld		hl,(_xmappos)
     354   00:43F5  09                  		add		hl,bc
     355   00:43F6  22 26 C0            		ld		(_xmappos),hl
     356   00:43F9  C3 66 43            		jp      main_loop
     357   00:43FC                      
     358   00:43FC                      left:	
     359   00:43FC  3E 04               		ld		a,4
     360   00:43FE  ED 44               		neg
     361   00:4400  32 03 C0            		ld		(_mcdx),a
     362   00:4403                      
     363   00:4403  AF                  		xor	a
     364   00:4404  32 0A C0            		ld	(_mcstate),a
     365   00:4407                      		
     366   00:4407  3A 0B C0            		ld		a,(_ticxframe)
     367   00:440A  ED 44               		neg
     368   00:440C  4F                  		ld		c,a
     369   00:440D  06 FF               		ld		b,-1
     370   00:440F  2A 26 C0            		ld		hl,(_xmappos)
     371   00:4412  09                  		add		hl,bc
     372   00:4413  22 26 C0            		ld		(_xmappos),hl
     373   00:4416  C3 66 43            		jp      main_loop
     374   00:4419                      
     375   00:4419                      
     376   00:4419                      ;-------------------------------------
     377   00:4419  (00:FC9E)           JIFFY: equ 0xFC9E 
     378   00:4419                      ;-------------------------------------
     379   00:4419  E5                  _isr:	push	hl
     380   00:441A  C5                  		push	bc
     381   00:441B  2A 9E FC            		ld		hl,(JIFFY)
     382   00:441E                      
     383   00:441E  3A 02 C0            		ld	a,(SEL_NTSC)
     384   00:4421  A7                  		and 	a
     385   00:4422  20 05               		jr		nz,1f
     386   00:4424                      		
     387   00:4424  01 CE FF            		ld		bc,-50			; PAL 
     388   00:4427  18 03               		jr	2f
     389   00:4429                      1:
     390   00:4429  01 C4 FF            		ld		bc,-60			; NTSC
     391   00:442C                      		
     392   00:442C  09                  2:		add		hl,bc
     393   00:442D  21 0B C0            		ld		hl,_ticxframe
     394   00:4430  34                  		inc		(hl)
     395   00:4431  C1                  		pop		bc
     396   00:4432  E1                  		pop		hl
     397   00:4433  D0                  		ret	nc
     398   00:4434                      		
     399   00:4434  E5                  		push	hl
     400   00:4435  21 00 00            		ld		hl,0
     401   00:4438  22 9E FC            		ld		(JIFFY),hl
     402   00:443B  2A 1E C0            		ld		hl,(_nframes)
     403   00:443E  22 1C C0            		ld		(_fps),hl
     404   00:4441  21 00 00            		ld		hl,0
     405   00:4444  22 1E C0            		ld		(_nframes),hl
     406   00:4447  E1                  		pop		hl
     407   00:4448  C9                  		ret
     408   00:4449                      ;-------------------------------------
     409   00:4449                      ;   Power-up routine for 32K ROM
     410   00:4449                      ;   set pages and sub slot
     411   00:4449                      ;-------------------------------------
     412   00:4449                      powerup:
     413   00:4449  CD 10 40                    call    search_slot
     414   00:444C  CD 2F 40                    call    search_slotram
     415   00:444F  C3 5B 40            		jp		setrompage2
     416   00:4452                              
     417   00:4452                      
     418   00:4452                      ;-------------------------------------
     419   00:4452                      
     420   00:4452                      
     421   00:4452  (00:00D5)           GTSTCK      equ 0x00D5      ;Returns the joystick status
     422   00:4452  (00:00D8)           GTTRIG      equ 0x00D8      ;Returns current trigger status
     423   00:4452                      
     424   00:4452                      
     425   00:4452                      _cursors:
     426   00:4452                      
     427   00:4452  AF                  	xor     a
     428   00:4453  CD D5 00            	call	GTSTCK
     429   00:4456  F5                  	push	af		;return the cursors
     430   00:4457  3E 01               	ld		a,1
     431   00:4459  CD D5 00            	call	GTSTCK
     432   00:445C  E1                  	pop		hl		;return the joystick
     433   00:445D  B4                  	or		h
     434   00:445E  6F                  	ld		l,a
     435   00:445F  C9                  	ret
     436   00:4460                      	
     437   00:4460                      
     438   00:4460                      
     439   00:4460                              
     440   00:4460                      ;-------------------------------------
     441   00:4460                      		
     442   00:4460  (00:0099)           vdpport1 equ 0x99
     443   00:4460  (00:009A)           vdpport2 equ 0x9A
     444   00:4460                      
     445   00:4460                      levelcolors:
     446   00:4460  (0020)              	incbin "palette.bin"
     447   00:4480                      
     448   00:4480                      _SetPalet:   
     449   00:4480  F3                  	di
     450   00:4481  AF                  	xor a 			;Set pointer to zero.
     451   00:4482  D3 99               	out (vdpport1),a        
     452   00:4484  3E 90               	ld  a,16 | 010000000B
     453   00:4486  D3 99               	out (vdpport1),a
     454   00:4488                      
     455   00:4488  21 60 44            	ld  hl,levelcolors
     456   00:448B  01 9A 20            	ld bc,vdpport2+32*256
     457   00:448E  ED B3               	otir
     458   00:4490  FB                  	ei
     459   00:4491  C9                  	ret
     460   00:4492                      
     461   00:4492                      ;;;;;;;;;;;;;;;;;;;;;;;;;;;;;;;;;;;;;;;;;
     462   00:4492                      
     463   00:4492                      	include vuitpakker.asm
       1.  00:4492                      
       2.  00:4492                      ;;;;;;;;;;;;;;;;;;;;;;;;;;;;;;;;;;;;;;;;;
       3.  00:4492                      
       4.  00:4492                      
       5.  00:4492                      _vuitpakker:
       6.  00:4492  FD E5                   push iy
       7.  00:4494  DD E5                   push ix
       8.  00:4496                      
       9.  00:4496  CD 9E 44                call  1f
      10.  00:4499                      
      11.  00:4499  DD E1                   pop ix
      12.  00:449B  FD E1                   pop iy
      13.  00:449D  C9                      ret
      14.  00:449E                      
      15.  00:449E                      1:
      16.  00:449E                      ; in de input
      17.  00:449E                      ; in bc VRAM output
      18.  00:449E                      
      19.  00:449E  62                      ld h,d
      20.  00:449F  6B                      ld l,e
      21.  00:44A0  50                      ld d,b
      22.  00:44A1  59                      ld e,c
      23.  00:44A2                      
      24.  00:44A2                      ; pletter v0.5 msx unpacker
      25.  00:44A2                      
      26.  00:44A2                      ;-----------------------------------------------------------
      27.  00:44A2                      ; Pletter 0.5b VRAM Depacker - 64Kb version
      28.  00:44A2                      ; HL = RAM/ROM source ; DE = VRAM destination
      29.  00:44A2                      ;-----------------------------------------------------------
      30.  00:44A2  F3                      di
      31.  00:44A3                      
      32.  00:44A3                      ; VRAM address setup
      33.  00:44A3                      ;    ld  a,e
      34.  00:44A3                      ;    out (0x99),a
      35.  00:44A3                      ;    ld  a,d
      36.  00:44A3                      ;    or  0x40
      37.  00:44A3                      ;    out (0x99),a
      38.  00:44A3  CD 63 45                call setVwrite
      39.  00:44A6                      
      40.  00:44A6                      ; Initialization
      41.  00:44A6  7E                      ld  a,(hl)
      42.  00:44A7  23                      inc hl
      43.  00:44A8  D9                      exx
      44.  00:44A9  11 00 00                ld  de,0
      45.  00:44AC  87                      add a,a
      46.  00:44AD  3C                      inc a
      47.  00:44AE  CB 13                   rl  e
      48.  00:44B0  87                      add a,a
      49.  00:44B1  CB 13                   rl  e
      50.  00:44B3  87                      add a,a
      51.  00:44B4  CB 13                   rl  e
      52.  00:44B6  CB 13                   rl  e
      53.  00:44B8  21 7D 45                ld  hl,__modes
      54.  00:44BB  19                      add hl,de
      55.  00:44BC  5E                      ld  e,(hl)
      56.  00:44BD  DD                      db    0xdd
      57.  00:44BE  6B                      ld  l,e         ; ld ixl,e    
      58.  00:44BF  23                      inc hl
      59.  00:44C0  5E                      ld  e,(hl)
      60.  00:44C1  DD                      db    0xdd
      61.  00:44C2  63                      ld h,e          ; ld  ixh,e
      62.  00:44C3  1E 01                   ld  e,1
      63.  00:44C5  D9                      exx
      64.  00:44C6  FD 21 CF 44             ld  iy,__loop
      65.  00:44CA                      
      66.  00:44CA                      ; Main depack loop
      67.  00:44CA  0E 98               _literal:ld  c,098h
      68.  00:44CC  ED A3                   outi
      69.  00:44CE  13                      inc de
      70.  00:44CF  87                  __loop:   add a,a
      71.  00:44D0  CC 57 45                call    z,_getbit
      72.  00:44D3  30 F5                   jr  nc,_literal
      73.  00:44D5                      
      74.  00:44D5                      ; Compressed data
      75.  00:44D5  D9                      exx
      76.  00:44D6  62                      ld  h,d
      77.  00:44D7  6B                      ld  l,e
      78.  00:44D8  87                  _getlen: add a,a
      79.  00:44D9  CC 5B 45                call    z,_getbitexx
      80.  00:44DC  30 1D                   jr  nc,lenok
      81.  00:44DE  87                  lus:    add a,a
      82.  00:44DF  CC 5B 45                call    z,_getbitexx
      83.  00:44E2  ED 6A                   adc hl,hl
      84.  00:44E4  D8                      ret c
      85.  00:44E5  87                      add a,a
      86.  00:44E6  CC 5B 45                call    z,_getbitexx
      87.  00:44E9  30 10                   jr  nc,lenok
      88.  00:44EB  87                      add a,a
      89.  00:44EC  CC 5B 45                call    z,_getbitexx
      90.  00:44EF  ED 6A                   adc hl,hl
      91.  00:44F1  DA 61 45                jp  c,Depack_out
      92.  00:44F4  87                      add a,a
      93.  00:44F5  CC 5B 45                call    z,_getbitexx
      94.  00:44F8  DA DE 44                jp  c,lus
      95.  00:44FB  23                  lenok:  inc hl
      96.  00:44FC  D9                      exx
      97.  00:44FD  4E                      ld  c,(hl)
      98.  00:44FE  23                      inc hl
      99.  00:44FF  06 00                   ld  b,0
     100.  00:4501  CB 79                   bit 7,c
     101.  00:4503  CA 36 45                jp  z,offsok
     102.  00:4506  DD E9                   jp  (ix)
     103.  00:4508                      
     104.  00:4508  87                  _mode7:  add a,a
     105.  00:4509  CC 57 45                call    z,_getbit
     106.  00:450C  CB 10                   rl  b
     107.  00:450E  87                  _mode6:  add a,a
     108.  00:450F  CC 57 45                call    z,_getbit
     109.  00:4512  CB 10                   rl  b
     110.  00:4514  87                  _mode5:  add a,a
     111.  00:4515  CC 57 45                call    z,_getbit
     112.  00:4518  CB 10                   rl  b
     113.  00:451A  87                  _mode4:  add a,a
     114.  00:451B  CC 57 45                call    z,_getbit
     115.  00:451E  CB 10                   rl  b
     116.  00:4520  87                  _mode3:  add a,a
     117.  00:4521  CC 57 45                call    z,_getbit
     118.  00:4524  CB 10                   rl  b
     119.  00:4526  87                  _mode2:  add a,a
     120.  00:4527  CC 57 45                call    z,_getbit
     121.  00:452A  CB 10                   rl  b
     122.  00:452C  87                      add a,a
     123.  00:452D  CC 57 45                call    z,_getbit
     124.  00:4530  30 04                   jr  nc,offsok
     125.  00:4532  B7                      or  a
     126.  00:4533  04                      inc b
     127.  00:4534  CB B9                   res 7,c
     128.  00:4536  03                  offsok: inc bc
     129.  00:4537  E5                      push    hl
     130.  00:4538  D9                      exx
     131.  00:4539  E5                      push    hl
     132.  00:453A  D9                      exx
     133.  00:453B  6B                      ld  l,e
     134.  00:453C  62                      ld  h,d
     135.  00:453D  ED 42                   sbc hl,bc
     136.  00:453F  C1                      pop bc
     137.  00:4540  F5                      push    af
     138.  00:4541                      _loop: 
     139.  00:4541                      ;    ld  a,l
     140.  00:4541                      ;    out (0x99),a
     141.  00:4541                      ;    ld  a,h
     142.  00:4541                      ;    out (0x99),a
     143.  00:4541  CD 6F 45                call setVread
     144.  00:4544                          
     145.  00:4544  DB 98                   in  a,(0x98)
     146.  00:4546  08                      ex  af,af'
     147.  00:4547                      ;    ld  a,e
     148.  00:4547                      ;    out (0x99),a
     149.  00:4547                      ;    ld  a,d
     150.  00:4547                      ;    or  0x40
     151.  00:4547                      ;    out (0x99),a
     152.  00:4547  CD 63 45                call setVwrite
     153.  00:454A                          
     154.  00:454A  08                      ex  af,af'
     155.  00:454B  D3 98                   out (0x98),a
     156.  00:454D  13                      inc de
     157.  00:454E  ED A1                   cpi
     158.  00:4550  EA 41 45                jp  pe,_loop
     159.  00:4553  F1                      pop af
     160.  00:4554  E1                      pop hl
     161.  00:4555  FD E9                   jp  (iy)
     162.  00:4557                      ;
     163.  00:4557  7E                  _getbit: ld  a,(hl)
     164.  00:4558  23                      inc hl
     165.  00:4559  17                      rla
     166.  00:455A  C9                      ret
     167.  00:455B                      
     168.  00:455B                      _getbitexx:
     169.  00:455B  D9                      exx
     170.  00:455C  7E                      ld  a,(hl)
     171.  00:455D  23                      inc hl
     172.  00:455E  D9                      exx
     173.  00:455F  17                      rla
     174.  00:4560  C9                      ret
     175.  00:4561                      
     176.  00:4561                      ; De-packer exit
     177.  00:4561                      Depack_out:
     178.  00:4561  FB                      ei
     179.  00:4562  C9                      ret
     180.  00:4563                      
     181.  00:4563                      
     182.  00:4563                      
     183.  00:4563                      setVwrite:
     184.  00:4563                      
     185.  00:4563  D5                      push    de
     186.  00:4564  C5                      push    bc
     187.  00:4565  ED 4B 20 C0             ld      bc,(_vbit16)
     188.  00:4569  CD 87 46                call    _vdpsetvramwr
     189.  00:456C  C1                      pop     bc
     190.  00:456D  D1                      pop     de
     191.  00:456E                      
     192.  00:456E  C9                      ret
     193.  00:456F                      setVread:    
     194.  00:456F                      
     195.  00:456F  D5                      push    de
     196.  00:4570  C5                      push    bc
     197.  00:4571  5D                      ld      e,l
     198.  00:4572  54                      ld      d,h
     199.  00:4573  ED 4B 20 C0             ld      bc,(_vbit16)
     200.  00:4577  CD A1 46                call    _vdpsetvramrd
     201.  00:457A  C1                      pop     bc
     202.  00:457B  D1                      pop     de
     203.  00:457C                      
     204.  00:457C  C9                      ret
     205.  00:457D                      
     206.  00:457D                      __modes:
     207.  00:457D  36 45                   dw  offsok
     208.  00:457F  26 45                   dw  _mode2
     209.  00:4581  20 45                   dw  _mode3
     210.  00:4583  1A 45                   dw  _mode4
     211.  00:4585  14 45                   dw  _mode5
     212.  00:4587  0E 45                   dw  _mode6
     213.  00:4589  08 45                   dw  _mode7
     464   00:458B                      
     465   00:458B                      ;;;;;;;;;;;;;;;;;;;;;;;;;;;;;;;;;;;;;;;;;
     466   00:458B                      
     467   00:458B                      	include plot_tile.asm
       1.  00:458B                      ;;;;;;;;;;;;;;;;;;;;;;;;;;;;;;;;;;;;;;;;;;;
       2.  00:458B                      ; input
       3.  00:458B                      ; hl  configured in window map 32x24 of uints
       4.  00:458B                      ; de  tile to be plot
       5.  00:458B                      ;;;;;;;;;;;;;;;;;;;;;;;;;;;;;;;;;;;;;;;;;;;
       6.  00:458B                      plot_tile:
       7.  00:458B                      							
       8.  00:458B  CB 7A               	bit 	7,d			; test for LMMMM	
       9.  00:458D  C2 DA 45            	jp		nz,plot_trasp_tile
      10.  00:4590                      	
      11.  00:4590  7A                  	ld		a,d
      12.  00:4591  B3                  	or		e
      13.  00:4592  C2 9E 45            	jp		nz,plot_foreground
      14.  00:4595                      
      15.  00:4595                      ;;;;;;;;;;;;;;;;;;;;;;;;;;;;;;;;;;;;;;;;;;;
      16.  00:4595                      ; input
      17.  00:4595                      ; hl  configured in window map 32x24
      18.  00:4595                      ;;;;;;;;;;;;;;;;;;;;;;;;;;;;;;;;;;;;;;;;;;;
      19.  00:4595                      
      20.  00:4595                      ; plot_background:
      21.  00:4595                      
      22.  00:4595  E5                  	push	hl
      23.  00:4596  11 AF 5E            	ld		de,_backmap-32*4-2
      24.  00:4599  19                  	add		hl,de
      25.  00:459A  5E                  	ld		e,(hl)
      26.  00:459B  23                  	inc		hl
      27.  00:459C  56                  	ld		d,(hl)
      28.  00:459D  E1                  	pop		hl
      29.  00:459E                      	
      30.  00:459E                      	
      31.  00:459E                      plot_foreground:
      32.  00:459E                      
      33.  00:459E  (00:0001)           counter:=1
      34.  00:459E                      	while counter<NSolidColors
      35.  00:459E                    < 	ld	a,low SolidTile@#
      36.  00:459E                    < 	cp	e
      37.  00:459E                    < 	jr	nz,1f
      38.  00:459E                    < 	ld	a,high SolidTile@#
      39.  00:459E                    < 	cp	d
      40.  00:459E                    < 	ld	a,17*SolidColor@#		; solid color1
      41.  00:459E                    < 	jp	z,plot_solid_box
      42.  00:459E                    < 1:	
      43.  00:459E                    < counter:=counter+1
      44.  00:459E                    < 	endwhile	
      44.  00:459E  3E 00 BB 20 08 3E 00 BA 3E 00 CA 3F 46 3E 1A BB 
      44.  00:45AE  20 08 3E 00 BA 3E 11 CA 3F 46 3E 27 BB 20 08 3E 
      44.  00:45BE  05 BA 3E 44 CA 3F 46 3E 34 BB 20 08 3E 06 BA 3E 
      44.  00:45CE  77 CA 3F 46 
      45.  00:45D2                      
      46.  00:45D2  CD F2 45            	call 	vdp_conf
      47.  00:45D5                      
      48.  00:45D5  3E D0               	ld		a,11010000B
      49.  00:45D7  D3 9B               	out 	(0x9B), a		; command HMMM
      50.  00:45D9  C9                  	ret
      51.  00:45DA                      
      52.  00:45DA                      	
      53.  00:45DA                      	
      54.  00:45DA                      ;;;;;;;;;;;;;;;;;;;;;;;;;;;;;;;;;;;;;;;;;;;
      55.  00:45DA                      ; input
      56.  00:45DA                      ; hl   configured in window map 32x24
      57.  00:45DA                      ; de  tile to be plot
      58.  00:45DA                      ;;;;;;;;;;;;;;;;;;;;;;;;;;;;;;;;;;;;;;;;;;;
      59.  00:45DA                      
      60.  00:45DA                      plot_trasp_tile:
      61.  00:45DA                      
      62.  00:45DA  D5                  	push	de
      63.  00:45DB  E5                  	push	hl
      64.  00:45DC                      					;	plot_background
      65.  00:45DC  11 AF 5E            	ld		de,_backmap-32*4-2
      66.  00:45DF  19                  	add		hl,de
      67.  00:45E0  5E                  	ld		e,(hl)
      68.  00:45E1  23                  	inc		hl
      69.  00:45E2  56                  	ld		d,(hl)
      70.  00:45E3                      
      71.  00:45E3  E1                  	pop		hl
      72.  00:45E4  E5                  	push	hl
      73.  00:45E5  CD 9E 45            	call	plot_foreground
      74.  00:45E8  E1                  	pop		hl
      75.  00:45E9  D1                  	pop		de
      76.  00:45EA                      
      77.  00:45EA  CD F2 45            	call	vdp_conf
      78.  00:45ED                      
      79.  00:45ED  3E 98               	ld		a,10011000B
      80.  00:45EF  D3 9B               	out 	(0x9B), a		; command LMMM
      81.  00:45F1  C9                  	ret
      82.  00:45F2                      
      83.  00:45F2                      ;;;;;;;;;;;;;;;;;;;;;;;;;;;;;;;;;;;;;;;;;;;
      84.  00:45F2                      ; input
      85.  00:45F2                      ; hl   configured in window map 32x24
      86.  00:45F2                      ; de  tile to be plot
      87.  00:45F2                      ;;;;;;;;;;;;;;;;;;;;;;;;;;;;;;;;;;;;;;;;;;;
      88.  00:45F2                      
      89.  00:45F2                      vdp_conf:	
      90.  00:45F2                      	
      91.  00:45F2  29 29               [2]	add		hl,hl
      92.  00:45F4  4D                  	ld		c,l			; C = dx*8
      93.  00:45F5  7C                  	ld		a,h
      94.  00:45F6  87 87 87            [3]	add		a,a
      95.  00:45F9  47                  	ld		b,a			; B = dy*8
      96.  00:45FA  C5                  	push	bc			; dx*8 and dy*8 on the stack
      97.  00:45FB                      	
      98.  00:45FB                      	; de has the 16 bit tile
      99.  00:45FB                      	; de = 10 bits = 5 bits for y and 5 bits for x
     100.  00:45FB                      
     101.  00:45FB  EB                  	ex		de,hl
     102.  00:45FC  29 29 29            [3]	add		hl,hl
     103.  00:45FF                      	
     104.  00:45FF                      	; now l is sx*8 and h is sy
     105.  00:45FF                      		
     106.  00:45FF  7C                  	ld		a,h
     107.  00:4600  87 87 87            [3]	add		a,a
     108.  00:4603  67                  	ld		h,a
     109.  00:4604  F5                  	push	af
     110.  00:4605                      	
     111.  00:4605                      	; now h is sy*8
     112.  00:4605  F3                  	di
     113.  00:4606  3E 20               	ld 		a, 32
     114.  00:4608  D3 99               	out 	(0x99),a
     115.  00:460A  3E 91               	ld 		a, 17+128
     116.  00:460C  D3 99               	out 	(0x99),a
     117.  00:460E  FB                  	ei
     118.  00:460F                      
     119.  00:460F  0E 9B               	ld 		c, 0x9B
     120.  00:4611                      	
     121.  00:4611  CD D1 46            	call _waitvdp;
     122.  00:4614                      	
     123.  00:4614  ED 69               	out		(c), l 		; sx
     124.  00:4616  AF                  	xor a
     125.  00:4617  D3 9B               	out		(0x9B), a 	; sx (high)
     126.  00:4619                      	
     127.  00:4619  ED 61               	out		(c), h 		; sy
     128.  00:461B  F1                  	pop		af
     129.  00:461C  3E 02               	ld		a,2			; source page for tiles 32x32=1024 tiles
     130.  00:461E  CE 00               	adc		a,0
     131.  00:4620  D3 9B               	out 	(0x9B), a 	; sy (high-> page 2)
     132.  00:4622                      
     133.  00:4622  E1                  	pop		hl			; recover dx*8,dy*8
     134.  00:4623                      	
     135.  00:4623  ED 69               	out 	(c), l 		; dx
     136.  00:4625  AF                  	xor a
     137.  00:4626  D3 9B               	out 	(0x9B), a	; dx (high)
     138.  00:4628  ED 61               	out 	(c), h 		; dy
     139.  00:462A  3A 2A C0            	ld 		a,(_currentpage)	; destination page
     140.  00:462D  D3 9B               	out 	(0x9B), a	; dy (high-> page 0 or 1)
     141.  00:462F                      
     142.  00:462F  2E 08               	ld 		l,8 		; block size
     143.  00:4631                      
     144.  00:4631  ED 69               	out 	(c), l
     145.  00:4633  AF                  	xor a
     146.  00:4634  D3 9B               	out 	(0x9B), a
     147.  00:4636  ED 69               	out 	(c), l
     148.  00:4638  D3 9B               	out 	(0x9B), a
     149.  00:463A  D3 9B               	out 	(0x9B), a
     150.  00:463C  D3 9B               	out 	(0x9B), a
     151.  00:463E  C9                  	ret
     152.  00:463F                      
     153.  00:463F                      ;;;;;;;;;;;;;;;;;;;;;;;;;;;;;;;;;;;;;;;;;;;
     154.  00:463F                      ; input
     155.  00:463F                      ; hl configured in window map 32x24
     156.  00:463F                      ;  a color
     157.  00:463F                      ;;;;;;;;;;;;;;;;;;;;;;;;;;;;;;;;;;;;;;;;;;;
     158.  00:463F                      
     159.  00:463F                      plot_solid_box:
     160.  00:463F  5F                  	ld		e,a		; solid color
     161.  00:4640                      
     162.  00:4640  29 29               [2]	add		hl,hl
     163.  00:4642  4D                  	ld		c,l			; C = dx*8
     164.  00:4643  7C                  	ld		a,h
     165.  00:4644  87 87 87            [3]	add		a,a
     166.  00:4647  47                  	ld		b,a			; B = dy*8
     167.  00:4648  C5                  	push	bc			; dx*8 and dy*8 on the stack
     168.  00:4649                      
     169.  00:4649  F3                  	di
     170.  00:464A  3E 24               	ld 		a, 36
     171.  00:464C  D3 99               	out 	(0x99),a
     172.  00:464E  3E 91               	ld 		a, 17+128
     173.  00:4650  D3 99               	out 	(0x99),a
     174.  00:4652  FB                  	ei
     175.  00:4653                      
     176.  00:4653  0E 9B               	ld 		c, 0x9B
     177.  00:4655                      	
     178.  00:4655  CD D1 46            	call _waitvdp;
     179.  00:4658  E1                  	pop		hl			; recover dx*8,dy*8
     180.  00:4659                      	
     181.  00:4659  ED 69               	out 	(c), l 		; dx
     182.  00:465B  AF                  	xor a
     183.  00:465C  D3 9B               	out 	(0x9B), a	; dx (high)
     184.  00:465E  ED 61               	out 	(c), h 		; dy
     185.  00:4660  3A 2A C0            	ld 		a,(_currentpage)	; destination page
     186.  00:4663  D3 9B               	out 	(0x9B), a	; dy (high-> page 0 or 1)
     187.  00:4665                      
     188.  00:4665  2E 08               	ld 		l,8 		; block size
     189.  00:4667                      
     190.  00:4667  ED 69               	out 	(c), l
     191.  00:4669  AF                  	xor a
     192.  00:466A  D3 9B               	out 	(0x9B), a
     193.  00:466C  ED 69               	out 	(c), l
     194.  00:466E  D3 9B               	out 	(0x9B), a
     195.  00:4670  ED 59               	out 	(c), e
     196.  00:4672  D3 9B               	out 	(0x9B), a
     197.  00:4674  2E C0               	ld		l,11000000B	; command HMMV
     198.  00:4676  ED 69               	out 	(c), l
     199.  00:4678  C9                  	ret
     468   00:4679                      
     469   00:4679                      ;;;;;;;;;;;;;;;;;;;;;;;;;;;;;;;;;;;;;;;;;
     470   00:4679                      
     471   00:4679                      _clean_buffs:
     472   00:4679  01 3F 0C            	ld	bc,2*WinWidth*WinWidth*2-1
     473   00:467C  21 2B C0            	ld	hl,_shadow0
     474   00:467F  36 FF               	ld	(hl),-1
     475   00:4681  11 2C C0            	ld	de,_shadow0+1
     476   00:4684  ED B0               	ldir
     477   00:4686  C9                  	ret
     478   00:4687                      	
     479   00:4687                      ;Set VDP for writing at address CDE (17-bit) 
     480   00:4687                      
     481   00:4687                      _vdpsetvramwr:
     482   00:4687  79                  	ld a,c
     483   00:4688                      ;Set VDP for writing at address ADE (17-bit) ;
     484   00:4688  CB 02               	rlc d
     485   00:468A  17                  	rla
     486   00:468B  CB 02               	rlc d
     487   00:468D  17                  	rla
     488   00:468E  CB 3A               	srl d ; primo shift, il secondo dopo la out
     489   00:4690                      
     490   00:4690  D3 99               	out (0x99),a ;set bits 14-16
     491   00:4692  3E 8E               	ld a,14+128
     492   00:4694  D3 99               	out (0x99),a
     493   00:4696                      
     494   00:4696  CB 3A               	srl d ; secondo shift.            
     495   00:4698  7B                  	ld a,e ;set bits 0-7
     496   00:4699  D3 99               	out (0x99),a
     497   00:469B  7A                  	ld a,d ;set bits 8-13
     498   00:469C  F6 40               	or 0x40 ; + write access
     499   00:469E  D3 99               	out (0x99),a
     500   00:46A0  C9                  	ret
     501   00:46A1                      	
     502   00:46A1                      ;Set VDP port #98 to start reading at address CDE (17-bit) ;
     503   00:46A1                      
     504   00:46A1                      _vdpsetvramrd:
     505   00:46A1  79                  	ld a,c
     506   00:46A2                      ;Set VDP port #98 to start reading at address ADE (17-bit) ;
     507   00:46A2  CB 02               	rlc d
     508   00:46A4  17                  	rla
     509   00:46A5  CB 02               	rlc d
     510   00:46A7  17                  	rla
     511   00:46A8  CB 3A               	srl d ; primo shift, il secondo dopo la out
     512   00:46AA                      
     513   00:46AA  D3 99               	out (0x99),a ;set bits 14-16
     514   00:46AC  3E 8E               	ld a,14+128
     515   00:46AE  D3 99               	out (0x99),a
     516   00:46B0                      
     517   00:46B0  CB 3A               	srl d ; secondo shift.            
     518   00:46B2  7B                  	ld a,e ;set bits 0-7
     519   00:46B3  D3 99               	out (0x99),a
     520   00:46B5  7A                  	ld a,d ;set bits 8-13
     521   00:46B6  E6 3F               	and 0x3F
     522   00:46B8  D3 99               	out (0x99),a
     523   00:46BA  C9                  	ret
     524   00:46BB                      
     525   00:46BB                      ;Display page E in screen 5
     526   00:46BB                      _setpage:
     527   00:46BB  7B                  	ld a,e
     528   00:46BC  87                  	add a,a ;x32
     529   00:46BD  87                  	add a,a
     530   00:46BE  87                  	add a,a
     531   00:46BF  87                  	add a,a
     532   00:46C0  87                  	add a,a
     533   00:46C1  C6 1F               	add a,31
     534   00:46C3  F3                  	di
     535   00:46C4  D3 99               	out (0x99),a
     536   00:46C6  3E 82               	ld a,2+128
     537   00:46C8  D3 99               	out (0x99),a
     538   00:46CA  FB                  	ei            
     539   00:46CB  C9                  	ret
     540   00:46CC                      
     541   00:46CC  (00:005F)           chgmod        equ     0x005f      ;change graphic mode
     542   00:46CC  (00:000C)           RDSLT         equ     0x000c      ;read address HL in slot A
     543   00:46CC  (00:0156)           KILBUF        equ     0x0156      ;clear keyboard buffer
     544   00:46CC                      
     545   00:46CC                      _scr:
     546   00:46CC  7B                  	ld  a,e
     547   00:46CD  CD 5F 00            	call	chgmod
     548   00:46D0  C9                  	ret
     549   00:46D1                      
     550   00:46D1                      
     551   00:46D1                      _waitvdp:
     552   00:46D1  F3                  	di
     553   00:46D2  3E 02               	ld a,2
     554   00:46D4  D3 99               	out (0x99),a
     555   00:46D6  3E 8F               	ld a, 0x8f
     556   00:46D8  D3 99               	out (0x99),a
     557   00:46DA                      
     558   00:46DA  DB 99               1:  in a,(0x99)
     559   00:46DC  0F                  	rrca
     560   00:46DD  DA DA 46            	jp c, 1b
     561   00:46E0                      
     562   00:46E0  AF                  	xor a
     563   00:46E1  D3 99               	out (0x99),a
     564   00:46E3  3E 8F               	ld a, 0x8f
     565   00:46E5  D3 99               	out (0x99),a
     566   00:46E7  FB                  	ei
     567   00:46E8  C9                  	ret
     568   00:46E9                      
     569   00:46E9                      
     570   00:46E9                      	
     571   00:46E9                      _print_fps:
     572   00:46E9  3A 0F C0            	ld	a,(_buffer+3)
     573   00:46EC  5F                  	ld	e,a
     574   00:46ED  16 00               	ld	d,0
     575   00:46EF                      	; ld	hl,32*(64-3)-'0'+16
     576   00:46EF  21 90 07            	ld	hl,32*(64-2)-'0'
     577   00:46F2  19                  	add	hl,de
     578   00:46F3  EB                  	ex	de,hl
     579   00:46F4                      	
     580   00:46F4  21 FC 05            	ld	hl,2*(23*32+30)
     581   00:46F7  CD 9E 45            	call 	plot_foreground
     582   00:46FA                      
     583   00:46FA  3A 10 C0            	ld	a,(_buffer+4)
     584   00:46FD  5F                  	ld	e,a
     585   00:46FE  16 00               	ld	d,0
     586   00:4700                      	; ld	hl,32*(64-3)-'0'+16
     587   00:4700  21 90 07            	ld	hl,32*(64-2)-'0'
     588   00:4703  19                  	add	hl,de
     589   00:4704  EB                  	ex	de,hl
     590   00:4705                      	
     591   00:4705  21 FE 05            	ld	hl,2*(23*32+31)
     592   00:4708  C3 9E 45            	jp 	plot_foreground
     593   00:470B                      	
     594   00:470B                      
     595   00:470B                      ;-------------------------------------
     596   00:470B                      _compute_fps:
     597   00:470B  ED 5B 1C C0         	ld	de,(_fps)
     598   00:470F  01 0C C0            	ld	bc,_buffer
     599   00:4712                      
     600   00:4712                      int2ascii:
     601   00:4712                      	
     602   00:4712                      ; in de input 
     603   00:4712                      ; in bc output
     604   00:4712                      
     605   00:4712  EB                  	ex  de,hl
     606   00:4713  59                  	ld  e,c
     607   00:4714  50                  	ld  d,b
     608   00:4715                      
     609   00:4715                      Num2asc:
     610   00:4715  01 F0 D8            	ld  bc,-10000
     611   00:4718  CD 2E 47            	call    Num1
     612   00:471B  01 18 FC            	ld  bc,-1000
     613   00:471E  CD 2E 47            	call    Num1
     614   00:4721  01 9C FF            	ld  bc,-100
     615   00:4724  CD 2E 47            	call    Num1
     616   00:4727  0E F6               	ld  c,-10
     617   00:4729  CD 2E 47            	call    Num1
     618   00:472C  0E FF               	ld  c,-1
     619   00:472E                      
     620   00:472E                      Num1:   
     621   00:472E  3E 2F               	ld  a,'0'-1  ; '0' in the tileset
     622   00:4730                      
     623   00:4730                      Num2:   
     624   00:4730  3C                  	inc a
     625   00:4731  09                  	add hl,bc
     626   00:4732  38 FC               	jr  c,Num2
     627   00:4734  ED 42               	sbc hl,bc
     628   00:4736                      
     629   00:4736  12                  	ld  (de),a
     630   00:4737  13                  	inc de
     631   00:4738  C9                  	ret
     632   00:4739                      
     633   00:4739                      _metatable:
     634   00:4739  (17F8)              	incbin "metatable.bin"
     635   00:5F31                      _backmap:
     636   00:5F31  (0400)              	incbin "backmap.bin"
     637   00:6331                      
     638   00:6331                      ; start
     639   00:6331                      ; _mballon_start
     640   00:6331                      	; ld	de,0xc000
     641   00:6331                      	; ld	hl,_relocate
     642   00:6331                      	; ld	bc,_endrelocate-_relocate
     643   00:6331                      	; ldir
     644   00:6331                      	; jp	0xc000
     645   00:6331                      ; _relocate:
     646   00:6331                      	; ld	a,:mballon
     647   00:6331                      	; ld	(_bank1),a
     648   00:6331                      	; inc	a
     649   00:6331                      	; ld	(_bank2),a
     650   00:6331                      	; ld	hl,(0x4002)
     651   00:6331                      	; jp	(hl)
     652   00:6331                      ; _endrelocate:
     653   00:6331                      
     654   00:6331                      	include enemies.asm
       1.  00:6331                      
       2.  00:6331  (00:0008)           nenemies 	equ	8
       3.  00:6331  (00:0080)           sprite_size	equ	8*8*2
       4.  00:6331                      
       5.  00:6331                      		struct enemy
       6.  00:6331                    < type 	db
       7.  00:6331                    < state 	db
       8.  00:6331                    < frame 	db
       9.  00:6331                    < x		dw	
      10.  00:6331                    < y		dw
      11.  00:6331                    < mappos	dw
      12.  00:6331                    < dx		dw
      13.  00:6331                    < dy		dw
      14.  00:6331                    < nx		db
      15.  00:6331                    < ny		db
      16.  00:6331                    < buf		ds	sprite_size
      17.  00:6331                    < 	endstruct
      18.  00:6331                      	
      19.  00:6331  (06)                	page 6
      20.  06:8000                      frames:
      21.  06:8000  1A 00 EB 00 AA 00   		dw 01Ah,0EBh,0AAh
      22.  06:8006  1A 00 EB 00 AA 00   		dw 01Ah,0EBh,0AAh
      23.  06:800C                      
      24.  06:800C  00 (128)            [127]	ds	sprite_size
      25.  06:BF8C                      
      26.  06:BF8C  (00)                	page 0
      27.  00:6331                      int_sprites
      28.  00:6331  DD 21 2B CC         	ld	ix,enemylist
      29.  00:6335  DD 36 03 00         	ld	(ix+enemy.x),0
      30.  00:6339  DD 36 04 00         	ld	(ix+enemy.x+1),0
      31.  00:633D                      	
      32.  00:633D  DD 36 05 00         	ld	(ix+enemy.y),0
      33.  00:6341  DD 36 06 00         	ld	(ix+enemy.y+1),0
      34.  00:6345                      	
      35.  00:6345  DD 36 0D 03         	ld	(ix+enemy.nx),3
      36.  00:6349  DD 36 0E 02         	ld	(ix+enemy.ny),2
      37.  00:634D                      	
      38.  00:634D  DD 36 02 00         	ld	(ix+enemy.frame),0
      39.  00:6351                      	
      40.  00:6351  01 02 94            	ld	bc,_levelmap+2+mapWidth*10*2
      41.  00:6354  DD 71 07            	ld	(ix+enemy.mappos),c
      42.  00:6357  DD 70 08            	ld	(ix+enemy.mappos+1),b
      43.  00:635A  C9                  	ret
      44.  00:635B                      
      45.  00:635B                      move_sprites
      46.  00:635B  DD 7E 09            	ld	a,(ix+enemy.dx)
      47.  00:635E  3D                  	dec	a
      48.  00:635F  E6 03               	and	3
      49.  00:6361  DD 77 09            	ld	(ix+enemy.dx),a
      50.  00:6364  C0                  	ret	nz
      51.  00:6365                      	
      52.  00:6365  DD 6E 07            	ld	l,(ix+enemy.mappos)
      53.  00:6368  DD 66 08            	ld	h,(ix+enemy.mappos+1)
      54.  00:636B  23 23               [2]	inc	hl
      55.  00:636D  DD 75 07            	ld	(ix+enemy.mappos),l
      56.  00:6370  DD 74 08            	ld	(ix+enemy.mappos+1),h
      57.  00:6373  C9                  	ret
      58.  00:6374                      
      59.  00:6374                      	; ld	bc,(ix+enemy.y)
      60.  00:6374                      	; ld	hl,mapWidth
      61.  00:6374                      	; call	bcxhl
      62.  00:6374                      	; ld	bc,(ix+enemy.y)
      63.  00:6374                      	; add	hl,bc
      64.  00:6374                      	; ld	bc,_levelmap
      65.  00:6374                      	; add	hl,bc	
      66.  00:6374                      
      67.  00:6374                      ;;;;;;;;;;;;;;;;;;;;;;;;
      68.  00:6374                      ; save_background
      69.  00:6374                      ; in 
      70.  00:6374                      ;  ix destination in enemylist
      71.  00:6374                      ;;;;;;;;;;;;;;;;;;;;;;;;
      72.  00:6374                      
      73.  00:6374                      save_background:
      74.  00:6374  DD 5E 07            	ld	e,(ix+enemy.mappos)
      75.  00:6377  DD 56 08            	ld	d,(ix+enemy.mappos+1)
      76.  00:637A                      	
      77.  00:637A  DD E5               	push	ix
      78.  00:637C  E1                  	pop		hl
      79.  00:637D  01 0F 00            	ld	bc,enemy.buf
      80.  00:6380  09                  	add	hl,bc
      81.  00:6381  EB                  	ex	de,hl
      82.  00:6382                      	
      83.  00:6382  DD 7E 0E            	ld	a,(ix+enemy.ny)
      84.  00:6385                      
      85.  00:6385  06 00               	ld	b,0
      86.  00:6387                      	
      87.  00:6387  DD 4E 0D            2:	ld	c,(ix+enemy.nx)
      88.  00:638A  CB 21               	sla	c
      89.  00:638C  E5                  	push	hl
      90.  00:638D  ED B0               	ldir
      91.  00:638F  E1                  	pop	hl
      92.  00:6390                      	
      93.  00:6390  24 24               [2]	inc h	; only if (mapWidth=256)
      94.  00:6392                      	
      95.  00:6392  3D                  	dec	a
      96.  00:6393  C2 87 63            	jp	nz,2b
      97.  00:6396  C9                  	ret
      98.  00:6397                      	
      99.  00:6397                      ;;;;;;;;;;;;;;;;;;;;;;;;
     100.  00:6397                      ; plot_sprite
     101.  00:6397                      ; in 
     102.  00:6397                      ;  ix destination in enemylist
     103.  00:6397                      ;;;;;;;;;;;;;;;;;;;;;;;;
     104.  00:6397                      
     105.  00:6397                      plot_sprite:
     106.  00:6397  DD 6E 02            	ld	l,(ix+enemy.frame)
     107.  00:639A  26 00               	ld	h,0
     108.  00:639C  29 29 29 29 29 29   [6]	add	hl,hl			; sprite_size = 64*2
     109.  00:63A2                      
     110.  00:63A2  3E 06               	ld	a,:frames
     111.  00:63A4  32 00 70            	ld	(_bank2),a
     112.  00:63A7  01 00 80            	ld	bc,frames
     113.  00:63AA  09                  	add	hl,bc			; hl aims to the current frame to be plotted
     114.  00:63AB                      
     115.  00:63AB  C3 B5 63            	jp	plot_sprtite_frame
     116.  00:63AE                      	
     117.  00:63AE                      ;;;;;;;;;;;;;;;;;;;;;;;;
     118.  00:63AE                      ; restore_background
     119.  00:63AE                      ; in 
     120.  00:63AE                      ;  ix source in enemylist
     121.  00:63AE                      ;;;;;;;;;;;;;;;;;;;;;;;;
     122.  00:63AE                      
     123.  00:63AE                      restore_background:
     124.  00:63AE  DD E5               	push	ix
     125.  00:63B0  E1                  	pop		hl
     126.  00:63B1  01 0F 00            	ld	bc,enemy.buf
     127.  00:63B4  09                  	add	hl,bc			
     128.  00:63B5                      
     129.  00:63B5                      plot_sprtite_frame:
     130.  00:63B5  DD 5E 07            	ld	e,(ix+enemy.mappos)
     131.  00:63B8  DD 56 08            	ld	d,(ix+enemy.mappos+1)	; hl->buffer, de->_levelmap
     132.  00:63BB                      	
     133.  00:63BB  DD 7E 0E            	ld	a,(ix+enemy.ny)
     134.  00:63BE  06 00               	ld	b,0
     135.  00:63C0                      	
     136.  00:63C0  DD 4E 0D            2:	ld	c,(ix+enemy.nx)
     137.  00:63C3  CB 21               	sla	c
     138.  00:63C5  D5                  	push	de
     139.  00:63C6  ED B0               	ldir
     140.  00:63C8  D1                  	pop	de
     141.  00:63C9                      
     142.  00:63C9  14 14               [2]	inc d	; only if (mapWidth=256)
     143.  00:63CB                      
     144.  00:63CB  3D                  	dec	a
     145.  00:63CC  C2 C0 63            	jp	nz,2b
     146.  00:63CF  C9                  	ret
     147.  00:63D0                      	
     148.  00:63D0                      	
     149.  00:63D0                      	
     655   00:63D0                      
     656   00:63D0                      	include hwsprites.asm
       1.  00:63D0                      
       2.  00:63D0                      ; SGT = 0x7800 ->#R6 = 0x0F
       3.  00:63D0                      ; SAT = 0x7600 ->#R5 = 0xEF #R11=0
       4.  00:63D0                      
       5.  00:63D0                      _hw_sprite_init:
       6.  00:63D0                      
       7.  00:63D0  F3                  		di
       8.  00:63D1                      		; SGT = 0x7800 ->#R6 = 0x0F
       9.  00:63D1  3E 0F               		ld		a,0x0F
      10.  00:63D3  D3 99               		out		(0x99),a
      11.  00:63D5  3E 86               		ld		a,128+6
      12.  00:63D7  D3 99               		out		(0x99),a
      13.  00:63D9                      		
      14.  00:63D9                      		; SAT = 0x7600 ->#R5 = 0xEF #R11=0
      15.  00:63D9  3E EF               		ld		a,0xEF
      16.  00:63DB  D3 99               		out		(0x99),a
      17.  00:63DD  3E 85               		ld		a,128+5
      18.  00:63DF  D3 99               		out		(0x99),a
      19.  00:63E1                      		
      20.  00:63E1  AF                  		xor	a
      21.  00:63E2  D3 99               		out		(0x99),a
      22.  00:63E4  3E 8B               		ld		a,128+11
      23.  00:63E6  D3 99               		out		(0x99),a
      24.  00:63E8  FB                  		ei
      25.  00:63E9                      		
      26.  00:63E9                      		; unpack level map (meta_tiles)
      27.  00:63E9  3E 05               		ld	a, :sprtdata.SPRITES
      28.  00:63EB  32 00 70            		ld	(_bank2),a
      29.  00:63EE                      		
      30.  00:63EE  21 00 80            		ld		hl,	sprtdata.SPRITES
      31.  00:63F1  0E 00               		ld		c,0
      32.  00:63F3  11 00 78            		ld		de,0x7800
      33.  00:63F6  CD 87 46            		call	_vdpsetvramwr
      34.  00:63F9                      		
      35.  00:63F9  01 98 00            		ld		bc,0x98
      36.  00:63FC                      [8]		otir	; 2K
      36.  00:63FC  ED B3 ED B3 ED B3 ED B3 ED B3 ED B3 ED B3 ED B3 
      37.  00:640C                      
      38.  00:640C  21 40 82            		ld		hl,	sprtdata.ATRIBUTOS
      39.  00:640F  0E 00               		ld		c,0
      40.  00:6411  11 00 74            		ld		de,0x7600-512
      41.  00:6414  CD 87 46            		call	_vdpsetvramwr
      42.  00:6417                      
      43.  00:6417  01 98 00            		ld		bc,0x98
      44.  00:641A  ED B3 ED B3         [2]		otir	; 512
      45.  00:641E                      
      46.  00:641E                      
      47.  00:641E  0E 00               		ld		c,0
      48.  00:6420  11 00 76            		ld		de,0x7600
      49.  00:6423  CD 87 46            		call	_vdpsetvramwr
      50.  00:6426                      		
      51.  00:6426  21 2F 64            		ld		hl,hwsprt_test		
      52.  00:6429  01 98 80            		ld		bc,0x8098
      53.  00:642C  ED B3               		otir			
      54.  00:642E  C9                  		ret
      55.  00:642F                      		
      56.  00:642F                      hwsprt_test
      57.  00:642F  D8                  		db	0xd8
      58.  00:6430  40 80 00 0F         		db	64,128,0,15
      59.  00:6434  40 80 04 0F         		db	64,128,4,15
      60.  00:6438  40 80 08 0F         		db	64,128,8,15
      61.  00:643C                      		
      62.  00:643C  20 80 0C 0F         		db	32,128,12,15
      63.  00:6440  20 80 10 0F         		db	32,128,16,15
      64.  00:6444  20 80 14 0F         		db	32,128,20,15
      65.  00:6448  D8                  		db	0xd8
     657   00:6449                      	
     658   00:6449                      	include enemies_LMMM.asm
       1.  00:6449                      
       2.  00:6449                      enemies_LMMM:
       3.  00:6449                      
       4.  00:6449  21 78 00            	ld	hl,120
       5.  00:644C  22 05 C0            	ld	(_mcx),hl
       6.  00:644F  21 50 00            	ld	hl,16+64
       7.  00:6452  22 07 C0            	ld	(_mcy),hl
       8.  00:6455                      	
       9.  00:6455  2A 07 C0            	ld	hl,(_mcy)
      10.  00:6458  7D                  	ld	a,l
      11.  00:6459  E6 F8               	and	11111000B
      12.  00:645B  6F                  	ld	l,a
      13.  00:645C  29 29 29            [3]	add	hl,hl
      14.  00:645F  EB                  	ex	de,hl
      15.  00:6460  2A 05 C0            	ld	hl,(_mcx)
      16.  00:6463  7D                  	ld	a,l
      17.  00:6464  E6 F8               	and	11111000B
      18.  00:6466  1F 1F               [2]	rra
      19.  00:6468  6F                  	ld	l,a
      20.  00:6469  19                  	add	hl,de
      21.  00:646A                      	
      22.  00:646A  ED 5B 28 C0         	ld		de,(_shadowbuff)
      23.  00:646E  19                  	add		hl,de		; HL = pointer to the shadow map
      24.  00:646F  23                  	inc		hl
      25.  00:6470  36 7F               	ld		(hl),127
      26.  00:6472  23 23               [2]	inc		hl
      27.  00:6474  36 7F               	ld		(hl),127
      28.  00:6476  11 3E 00            	ld		de,2*32-2
      29.  00:6479  19                  	add		hl,de		; HL = pointer to the shadow map
      30.  00:647A  36 7F               	ld		(hl),127
      31.  00:647C  23 23               [2]	inc		hl
      32.  00:647E  36 7F               	ld		(hl),127
      33.  00:6480                      
      34.  00:6480                      	
      35.  00:6480  F3                  	di
      36.  00:6481  3E 20               	ld 		a, 32
      37.  00:6483  D3 99               	out 	(0x99),a
      38.  00:6485  3E 91               	ld 		a, 17+128
      39.  00:6487  D3 99               	out 	(0x99),a
      40.  00:6489  FB                  	ei
      41.  00:648A                      
      42.  00:648A  0E 9B               	ld 		c, 0x9B
      43.  00:648C                      	
      44.  00:648C  CD D1 46            	call _waitvdp;
      45.  00:648F                      
      46.  00:648F  3A 0A C0            	ld	a,(_mcstate)
      47.  00:6492  87 87               [2]	add	a,a
      48.  00:6494  5F                  	ld	e,a
      49.  00:6495  16 00               	ld	d,0
      50.  00:6497  21 DD 64            	ld	hl,state0
      51.  00:649A  19                  	add	hl,de
      52.  00:649B                      	
      53.  00:649B  3A 09 C0            	ld	a,(_mcframe)
      54.  00:649E  3C                  	inc	a
      55.  00:649F  E6 03               	and	3
      56.  00:64A1  32 09 C0            	ld	(_mcframe),a
      57.  00:64A4  5F                  	ld	e,a
      58.  00:64A5  16 00               	ld	d,0
      59.  00:64A7  19                  	add	hl,de
      60.  00:64A8  6E                  	ld	l,(hl)
      61.  00:64A9                      
      62.  00:64A9  26 C0               	ld		h,192
      63.  00:64AB  ED 69               	out		(c), l 		; sx
      64.  00:64AD  AF                  	xor a
      65.  00:64AE  D3 9B               	out		(0x9B), a 	; sx (high)
      66.  00:64B0                      	
      67.  00:64B0  ED 61               	out		(c), h 		; sy
      68.  00:64B2  3E 01               	ld		a,1			; source page for sprites
      69.  00:64B4  D3 9B               	out 	(0x9B), a 	; sy (high-> page 3)
      70.  00:64B6                      	
      71.  00:64B6  3A 05 C0            	ld		a,(_mcx)
      72.  00:64B9  D3 9B               	out 	(0x9B), a 	; dx
      73.  00:64BB  AF                  	xor a
      74.  00:64BC  D3 9B               	out 	(0x9B), a	; dx (high)
      75.  00:64BE                      	
      76.  00:64BE  3A 07 C0            	ld		a,(_mcy)
      77.  00:64C1  D3 9B               	out 	(0x9B), a	; dy
      78.  00:64C3  3A 2A C0            	ld 		a,(_currentpage)	; destination page
      79.  00:64C6  D3 9B               	out 	(0x9B), a	; dy (high-> page 0 or 1)
      80.  00:64C8                      
      81.  00:64C8  21 10 10            	ld 		hl,16*257 	; block size
      82.  00:64CB                      
      83.  00:64CB  ED 69               	out 	(c), l
      84.  00:64CD  AF                  	xor a
      85.  00:64CE  D3 9B               	out 	(0x9B), a
      86.  00:64D0  ED 61               	out 	(c), h
      87.  00:64D2  D3 9B               	out 	(0x9B), a
      88.  00:64D4  D3 9B               	out 	(0x9B), a
      89.  00:64D6  D3 9B               	out 	(0x9B), a
      90.  00:64D8                      
      91.  00:64D8  3E 98               	ld		a,10011000B
      92.  00:64DA  D3 9B               	out 	(0x9B), a		; command LMMM
      93.  00:64DC  C9                  	ret
      94.  00:64DD                      
      95.  00:64DD  00 10 00 20         state0		db	0*16,1*16,0*16,2*16
      96.  00:64E1  30 40 30 50         state1		db	3*16,4*16,3*16,5*16
      97.  00:64E5  60 70 60 70         state2		db	6*16,7*16,6*16,7*16
      98.  00:64E9  60 70 60 70         state3		db	6*16,7*16,6*16,7*16
     659   00:64ED                      
     660   00:64ED  (01)                	page 1
     661   01:8000                      _frame:
     662   01:8000  (0951)              	incbin "_frame.bin"
     663   01:8951                      _mc_sprites:	
     664   01:8951  (09E7)              	incbin "_sprites.bin"			
     665   01:9338                      	
     666   01:9338  (02)                	page 2
     667   02:8000                      _tiles0:
     668   02:8000  (36E0)              	incbin "_tiles0.bin"
     669   02:B6E0                      	
     670   02:B6E0  (03)                	page 3
     671   03:8000                      _tiles1:
     672   03:8000  (3AC1)              	incbin "_tiles1.bin"
     673   03:BAC1                      
     674   03:BAC1  (04)                	page 4
     675   04:8000                      _level:
     676   04:8000  (0C08)              	incbin "_metamap.bin"			
     677   04:8C08                      	
     678   04:8C08  (05)                	page 5
     679   05:8000                      sprtdata
     680   05:8000                      	include 	SPROL.ASM
       1.  05:8000                      .SPRITES
       2.  05:8000                      ; --- Slot 0
       3.  05:8000                      ; mask 00
       4.  05:8000                       DB $01,$00,$07,$00,$00,$00,$01,$01
       4.  05:8000  01 00 07 00 00 00 01 01 
       5.  05:8008                       DB $00,$04,$10,$18,$18,$04,$00,$06
       5.  05:8008  00 04 10 18 18 04 00 06 
       6.  05:8010                       DB $20,$80,$F8,$20,$20,$70,$20,$E8
       6.  05:8010  20 80 F8 20 20 70 20 E8 
       7.  05:8018                       DB $48,$00,$20,$00,$00,$08,$20,$18
       7.  05:8018  48 00 20 00 00 08 20 18 
       8.  05:8020                      ; mask 01
       9.  05:8020                       DB $03,$07,$00,$07,$00,$05,$04,$02
       9.  05:8020  03 07 00 07 00 05 04 02 
      10.  05:8028                       DB $00,$07,$0D,$02,$1C,$02,$06,$00
      10.  05:8028  00 07 0D 02 1C 02 06 00 
      11.  05:8030                       DB $20,$F0,$00,$F8,$10,$00,$80,$14
      11.  05:8030  20 F0 00 F8 10 00 80 14 
      12.  05:8038                       DB $A4,$48,$C8,$70,$80,$70,$18,$00
      12.  05:8038  A4 48 C8 70 80 70 18 00 
      13.  05:8040                      ; mask 02
      14.  05:8040                       DB $05,$00,$00,$00,$0F,$0F,$06,$06
      14.  05:8040  05 00 00 00 0F 0F 06 06 
      15.  05:8048                       DB $07,$08,$02,$05,$1B,$01,$09,$00
      15.  05:8048  07 08 02 05 1B 01 09 00 
      16.  05:8050                       DB $E0,$00,$00,$00,$D8,$80,$D0,$14
      16.  05:8050  E0 00 00 00 D8 80 D0 14 
      17.  05:8058                       DB $B4,$B4,$14,$88,$70,$80,$C4,$00
      17.  05:8058  B4 B4 14 88 70 80 C4 00 
      18.  05:8060                      
      19.  05:8060                      ;
      20.  05:8060                      ; --- Slot 1
      21.  05:8060                      ; mask 10
      22.  05:8060                       DB $01,$00,$07,$00,$00,$00,$01,$01
      22.  05:8060  01 00 07 00 00 00 01 01 
      23.  05:8068                       DB $00,$00,$00,$02,$04,$02,$00,$03
      23.  05:8068  00 00 00 02 04 02 00 03 
      24.  05:8070                       DB $20,$80,$F8,$20,$20,$70,$20,$E0
      24.  05:8070  20 80 F8 20 20 70 20 E0 
      25.  05:8078                       DB $A0,$60,$60,$E0,$08,$00,$08,$38
      25.  05:8078  A0 60 60 E0 08 00 08 38 
      26.  05:8080                      ; mask 11
      27.  05:8080                       DB $03,$00,$00,$0F,$00,$05,$04,$02
      27.  05:8080  03 00 00 0F 00 05 04 02 
      28.  05:8088                       DB $02,$02,$01,$05,$03,$01,$03,$00
      28.  05:8088  02 02 01 05 03 01 03 00 
      29.  05:8090                       DB $30,$88,$00,$F8,$10,$00,$80,$10
      29.  05:8090  30 88 00 F8 10 00 80 10 
      30.  05:8098                       DB $A0,$60,$60,$10,$F0,$90,$34,$00
      30.  05:8098  A0 60 60 10 F0 90 34 00 
      31.  05:80A0                      ; mask 12
      32.  05:80A0                       DB $05,$07,$00,$00,$0F,$0F,$06,$06
      32.  05:80A0  05 07 00 00 0F 0F 06 06 
      33.  05:80A8                       DB $05,$07,$06,$00,$00,$04,$04,$00
      33.  05:80A8  05 07 06 00 00 04 04 00 
      34.  05:80B0                       DB $E0,$F0,$00,$00,$D8,$80,$D0,$10
      34.  05:80B0  E0 F0 00 00 D8 80 D0 10 
      35.  05:80B8                       DB $F0,$90,$F0,$00,$00,$68,$C0,$00
      35.  05:80B8  F0 90 F0 00 00 68 C0 00 
      36.  05:80C0                      
      37.  05:80C0                      ;
      38.  05:80C0                      ; --- Slot 2
      39.  05:80C0                      ; mask 20
      40.  05:80C0                       DB $01,$00,$07,$00,$00,$00,$01,$01
      40.  05:80C0  01 00 07 00 00 00 01 01 
      41.  05:80C8                       DB $00,$04,$00,$01,$01,$04,$00,$07
      41.  05:80C8  00 04 00 01 01 04 00 07 
      42.  05:80D0                       DB $20,$80,$F8,$20,$20,$70,$20,$E0
      42.  05:80D0  20 80 F8 20 20 70 20 E0 
      43.  05:80D8                       DB $40,$00,$20,$88,$88,$60,$90,$F0
      43.  05:80D8  40 00 20 88 88 60 90 F0 
      44.  05:80E0                      ; mask 21
      45.  05:80E0                       DB $03,$00,$00,$0F,$00,$05,$04,$02
      45.  05:80E0  03 00 00 0F 00 05 04 02 
      46.  05:80E8                       DB $00,$07,$01,$02,$07,$03,$03,$00
      46.  05:80E8  00 07 01 02 07 03 03 00 
      47.  05:80F0                       DB $30,$88,$00,$F8,$10,$00,$80,$10
      47.  05:80F0  30 88 00 F8 10 00 80 10 
      48.  05:80F8                       DB $A0,$40,$C0,$60,$F8,$90,$28,$00
      48.  05:80F8  A0 40 C0 60 F8 90 28 00 
      49.  05:8100                      ; mask 22
      50.  05:8100                       DB $05,$07,$00,$00,$0F,$0F,$06,$06
      50.  05:8100  05 07 00 00 0F 0F 06 06 
      51.  05:8108                       DB $07,$00,$06,$04,$00,$00,$04,$00
      51.  05:8108  07 00 06 04 00 00 04 00 
      52.  05:8110                       DB $E0,$F0,$00,$00,$D8,$80,$D0,$10
      52.  05:8110  E0 F0 00 00 D8 80 D0 10 
      53.  05:8118                       DB $B0,$B0,$10,$10,$00,$00,$40,$00
      53.  05:8118  B0 B0 10 10 00 00 40 00 
      54.  05:8120                      
      55.  05:8120                      ;
      56.  05:8120                      ; --- Slot 3
      57.  05:8120                      ; mask 30
      58.  05:8120                       DB $04,$01,$1F,$04,$04,$0E,$04,$17
      58.  05:8120  04 01 1F 04 04 0E 04 17 
      59.  05:8128                       DB $12,$00,$04,$00,$00,$10,$04,$18
      59.  05:8128  12 00 04 00 00 10 04 18 
      60.  05:8130                       DB $80,$00,$E0,$00,$00,$00,$80,$80
      60.  05:8130  80 00 E0 00 00 00 80 80 
      61.  05:8138                       DB $00,$20,$08,$18,$18,$20,$00,$60
      61.  05:8138  00 20 08 18 18 20 00 60 
      62.  05:8140                      ; mask 31
      63.  05:8140                       DB $04,$0F,$00,$1F,$08,$00,$01,$28
      63.  05:8140  04 0F 00 1F 08 00 01 28 
      64.  05:8148                       DB $25,$12,$13,$0E,$01,$0E,$18,$00
      64.  05:8148  25 12 13 0E 01 0E 18 00 
      65.  05:8150                       DB $C0,$E0,$00,$E0,$00,$A0,$20,$40
      65.  05:8150  C0 E0 00 E0 00 A0 20 40 
      66.  05:8158                       DB $00,$E0,$B0,$40,$38,$40,$60,$00
      66.  05:8158  00 E0 B0 40 38 40 60 00 
      67.  05:8160                      ; mask 32
      68.  05:8160                       DB $07,$00,$00,$00,$1B,$01,$0B,$28
      68.  05:8160  07 00 00 00 1B 01 0B 28 
      69.  05:8168                       DB $2D,$2D,$28,$11,$0E,$01,$23,$00
      69.  05:8168  2D 2D 28 11 0E 01 23 00 
      70.  05:8170                       DB $A0,$00,$00,$00,$F0,$F0,$60,$60
      70.  05:8170  A0 00 00 00 F0 F0 60 60 
      71.  05:8178                       DB $E0,$10,$40,$A0,$D8,$80,$90,$00
      71.  05:8178  E0 10 40 A0 D8 80 90 00 
      72.  05:8180                      
      73.  05:8180                      ;
      74.  05:8180                      ; --- Slot 4
      75.  05:8180                      ; mask 40
      76.  05:8180                       DB $04,$01,$1F,$04,$04,$0E,$04,$07
      76.  05:8180  04 01 1F 04 04 0E 04 07 
      77.  05:8188                       DB $05,$06,$06,$07,$10,$00,$10,$1C
      77.  05:8188  05 06 06 07 10 00 10 1C 
      78.  05:8190                       DB $80,$00,$E0,$00,$00,$00,$80,$80
      78.  05:8190  80 00 E0 00 00 00 80 80 
      79.  05:8198                       DB $00,$00,$00,$40,$20,$40,$00,$C0
      79.  05:8198  00 00 00 40 20 40 00 C0 
      80.  05:81A0                      ; mask 41
      81.  05:81A0                       DB $0C,$11,$00,$1F,$08,$00,$01,$08
      81.  05:81A0  0C 11 00 1F 08 00 01 08 
      82.  05:81A8                       DB $05,$06,$06,$08,$0F,$09,$2C,$00
      82.  05:81A8  05 06 06 08 0F 09 2C 00 
      83.  05:81B0                       DB $C0,$00,$00,$F0,$00,$A0,$20,$40
      83.  05:81B0  C0 00 00 F0 00 A0 20 40 
      84.  05:81B8                       DB $40,$40,$80,$A0,$C0,$80,$C0,$00
      84.  05:81B8  40 40 80 A0 C0 80 C0 00 
      85.  05:81C0                      ; mask 42
      86.  05:81C0                       DB $07,$0F,$00,$00,$1B,$01,$0B,$08
      86.  05:81C0  07 0F 00 00 1B 01 0B 08 
      87.  05:81C8                       DB $0F,$09,$0F,$00,$00,$16,$03,$00
      87.  05:81C8  0F 09 0F 00 00 16 03 00 
      88.  05:81D0                       DB $A0,$E0,$00,$00,$F0,$F0,$60,$60
      88.  05:81D0  A0 E0 00 00 F0 F0 60 60 
      89.  05:81D8                       DB $A0,$E0,$60,$00,$00,$20,$20,$00
      89.  05:81D8  A0 E0 60 00 00 20 20 00 
      90.  05:81E0                      
      91.  05:81E0                      ;
      92.  05:81E0                      ; --- Slot 5
      93.  05:81E0                      ; mask 50
      94.  05:81E0                       DB $04,$01,$1F,$04,$04,$0E,$04,$07
      94.  05:81E0  04 01 1F 04 04 0E 04 07 
      95.  05:81E8                       DB $02,$00,$04,$11,$11,$06,$09,$0F
      95.  05:81E8  02 00 04 11 11 06 09 0F 
      96.  05:81F0                       DB $80,$00,$E0,$00,$00,$00,$80,$80
      96.  05:81F0  80 00 E0 00 00 00 80 80 
      97.  05:81F8                       DB $00,$20,$00,$80,$80,$20,$00,$E0
      97.  05:81F8  00 20 00 80 80 20 00 E0 
      98.  05:8200                      ; mask 51
      99.  05:8200                       DB $0C,$11,$00,$1F,$08,$00,$01,$08
      99.  05:8200  0C 11 00 1F 08 00 01 08 
     100.  05:8208                       DB $05,$02,$03,$06,$1F,$09,$14,$00
     100.  05:8208  05 02 03 06 1F 09 14 00 
     101.  05:8210                       DB $C0,$00,$00,$F0,$00,$A0,$20,$40
     101.  05:8210  C0 00 00 F0 00 A0 20 40 
     102.  05:8218                       DB $00,$E0,$80,$40,$E0,$C0,$C0,$00
     102.  05:8218  00 E0 80 40 E0 C0 C0 00 
     103.  05:8220                      ; mask 52
     104.  05:8220                       DB $07,$0F,$00,$00,$1B,$01,$0B,$08
     104.  05:8220  07 0F 00 00 1B 01 0B 08 
     105.  05:8228                       DB $0D,$0D,$08,$08,$00,$00,$02,$00
     105.  05:8228  0D 0D 08 08 00 00 02 00 
     106.  05:8230                       DB $A0,$E0,$00,$00,$F0,$F0,$60,$60
     106.  05:8230  A0 E0 00 00 F0 F0 60 60 
     107.  05:8238                       DB $E0,$00,$60,$20,$00,$00,$20,$00
     107.  05:8238  E0 00 60 20 00 00 20 00 
     108.  05:8240                      
     109.  05:8240                      .ATRIBUTOS
     110.  05:8240                      ; attr 00
     111.  05:8240                       DB $0C,$0E,$01,$0A,$0C,$0C,$0C,$0C
     111.  05:8240  0C 0E 01 0A 0C 0C 0C 0C 
     112.  05:8248                       DB $0C,$04,$04,$0C,$08,$04,$04,$01
     112.  05:8248  0C 04 04 0C 08 04 04 01 
     113.  05:8250                      ; attr 01
     114.  05:8250                       DB $42,$41,$00,$41,$4A,$4A,$4A,$4A
     114.  05:8250  42 41 00 41 4A 4A 4A 4A 
     115.  05:8258                       DB $4A,$42,$42,$42,$42,$42,$42,$00
     115.  05:8258  4A 42 42 42 42 42 42 00 
     116.  05:8260                      ; attr 02
     117.  05:8260                       DB $41,$00,$00,$00,$41,$41,$41,$41
     117.  05:8260  41 00 00 00 41 41 41 41 
     118.  05:8268                       DB $41,$41,$41,$41,$41,$41,$41,$00
     118.  05:8268  41 41 41 41 41 41 41 00 
     119.  05:8270                      ; attr 10
     120.  05:8270                       DB $0C,$0C,$01,$0A,$0C,$0C,$0C,$0C
     120.  05:8270  0C 0C 01 0A 0C 0C 0C 0C 
     121.  05:8278                       DB $08,$08,$08,$02,$02,$04,$04,$01
     121.  05:8278  08 08 08 02 02 04 04 01 
     122.  05:8280                      ; attr 11
     123.  05:8280                       DB $42,$42,$00,$41,$4A,$4A,$4A,$4A
     123.  05:8280  42 42 00 41 4A 4A 4A 4A 
     124.  05:8288                       DB $42,$44,$42,$41,$41,$42,$42,$00
     124.  05:8288  42 44 42 41 41 42 42 00 
     125.  05:8290                      ; attr 12
     126.  05:8290                       DB $41,$41,$00,$00,$41,$41,$41,$41
     126.  05:8290  41 41 00 00 41 41 41 41 
     127.  05:8298                       DB $41,$42,$41,$00,$00,$41,$41,$00
     127.  05:8298  41 42 41 00 00 41 41 00 
     128.  05:82A0                      ; attr 20
     129.  05:82A0                       DB $0C,$0C,$01,$0A,$0C,$0C,$0C,$0C
     129.  05:82A0  0C 0C 01 0A 0C 0C 0C 0C 
     130.  05:82A8                       DB $0C,$04,$04,$0C,$0A,$02,$04,$01
     130.  05:82A8  0C 04 04 0C 0A 02 04 01 
     131.  05:82B0                      ; attr 21
     132.  05:82B0                       DB $42,$42,$00,$41,$4A,$4A,$4A,$4A
     132.  05:82B0  42 42 00 41 4A 4A 4A 4A 
     133.  05:82B8                       DB $4A,$42,$42,$42,$41,$41,$42,$00
     133.  05:82B8  4A 42 42 42 41 41 42 00 
     134.  05:82C0                      ; attr 22
     135.  05:82C0                       DB $41,$41,$00,$00,$41,$41,$41,$41
     135.  05:82C0  41 41 00 00 41 41 41 41 
     136.  05:82C8                       DB $41,$41,$41,$41,$00,$00,$41,$00
     136.  05:82C8  41 41 41 41 00 00 41 00 
     137.  05:82D0                      ; attr 30
     138.  05:82D0                       DB $0C,$0E,$01,$0A,$0C,$0C,$0C,$0C
     138.  05:82D0  0C 0E 01 0A 0C 0C 0C 0C 
     139.  05:82D8                       DB $0C,$04,$04,$0C,$08,$04,$04,$01
     139.  05:82D8  0C 04 04 0C 08 04 04 01 
     140.  05:82E0                      ; attr 31
     141.  05:82E0                       DB $42,$41,$00,$41,$4A,$4A,$4A,$4A
     141.  05:82E0  42 41 00 41 4A 4A 4A 4A 
     142.  05:82E8                       DB $4A,$42,$42,$42,$42,$42,$42,$00
     142.  05:82E8  4A 42 42 42 42 42 42 00 
     143.  05:82F0                      ; attr 32
     144.  05:82F0                       DB $41,$00,$00,$00,$41,$41,$41,$41
     144.  05:82F0  41 00 00 00 41 41 41 41 
     145.  05:82F8                       DB $41,$41,$41,$41,$41,$41,$41,$00
     145.  05:82F8  41 41 41 41 41 41 41 00 
     146.  05:8300                      ; attr 40
     147.  05:8300                       DB $0C,$0C,$01,$0A,$0C,$0C,$0C,$0C
     147.  05:8300  0C 0C 01 0A 0C 0C 0C 0C 
     148.  05:8308                       DB $08,$08,$08,$02,$02,$04,$04,$01
     148.  05:8308  08 08 08 02 02 04 04 01 
     149.  05:8310                      ; attr 41
     150.  05:8310                       DB $42,$42,$00,$41,$4A,$4A,$4A,$4A
     150.  05:8310  42 42 00 41 4A 4A 4A 4A 
     151.  05:8318                       DB $42,$44,$42,$41,$41,$42,$42,$00
     151.  05:8318  42 44 42 41 41 42 42 00 
     152.  05:8320                      ; attr 42
     153.  05:8320                       DB $41,$41,$00,$00,$41,$41,$41,$41
     153.  05:8320  41 41 00 00 41 41 41 41 
     154.  05:8328                       DB $41,$42,$41,$00,$00,$41,$41,$00
     154.  05:8328  41 42 41 00 00 41 41 00 
     155.  05:8330                      ; attr 50
     156.  05:8330                       DB $0C,$0C,$01,$0A,$0C,$0C,$0C,$0C
     156.  05:8330  0C 0C 01 0A 0C 0C 0C 0C 
     157.  05:8338                       DB $0C,$04,$04,$0C,$0A,$02,$04,$01
     157.  05:8338  0C 04 04 0C 0A 02 04 01 
     158.  05:8340                      ; attr 51
     159.  05:8340                       DB $42,$42,$00,$41,$4A,$4A,$4A,$4A
     159.  05:8340  42 42 00 41 4A 4A 4A 4A 
     160.  05:8348                       DB $4A,$42,$42,$42,$41,$41,$42,$00
     160.  05:8348  4A 42 42 42 41 41 42 00 
     161.  05:8350                      ; attr 52
     162.  05:8350                       DB $41,$41,$00,$00,$41,$41,$41,$41
     162.  05:8350  41 41 00 00 41 41 41 41 
     163.  05:8358                       DB $41,$41,$41,$41,$00,$00,$41,$00
     163.  05:8358  41 41 41 41 00 00 41 00 
     164.  05:8360                      
     165.  05:8360                      	
     681   05:8360                      FINISH:
     682   05:8360                      
     683   05:8360                      ;---------------------------------------------------------
     684   05:8360                      ; Variables
     685   05:8360                      ;---------------------------------------------------------
     686   05:8360                      
     687   05:8360                      
     688   05:8360                      	
     689   05:8360  (C000)              	MAP 0xC000
     690   05:8360  (05:C000)           slotvar				#1
     691   05:8360  (05:C001)           slotram				#1
     692   05:8360  (05:C002)           SEL_NTSC			#1
     693   05:8360  (05:C003)           _mcdx				#1
     694   05:8360  (05:C004)           _mcdy				#1
     695   05:8360  (05:C005)           _mcx				#2
     696   05:8360  (05:C007)           _mcy				#2
     697   05:8360  (05:C009)           _mcframe			#1
     698   05:8360  (05:C00A)           _mcstate			#1
     699   05:8360                      
     700   05:8360                      
     701   05:8360  (05:C00B)           _ticxframe			#1
     702   05:8360                      
     703   05:8360  (05:C00C)           _buffer:			#16
     704   05:8360  (05:C01C)           _fps:				#2
     705   05:8360  (05:C01E)           _nframes:			#2
     706   05:8360  (05:C020)           _vbit16:			#2
     707   05:8360  (05:C022)           _levelmappos:		#3
     708   05:8360                      
     709   05:8360  (05:C025)           _ymappos:			#1
     710   05:8360  (05:C026)           _xmappos:			#2
     711   05:8360                      
     712   05:8360  (05:C028)           _shadowbuff:		#2
     713   05:8360  (05:C02A)           _currentpage:		#1
     714   05:8360                      
     715   05:8360  (05:C02B)           _shadow0:			#32*24*2
     716   05:8360  (05:C62B)           _shadow1:			#32*24*2
     717   05:8360                      
     718   05:8360  (05:CC2B)           enemylist:			#enemy*nenemies
     719   05:8360  (0000)              	ENDMAP

    LABELS
-------------------------------------------------
00:00006000 X _bank1
00:00007000   _bank2
00:000007A8 X n_tiles
00:00000100   mapWidth
00:00000020   mapHeight
00:0000001C   WinWidth
00:00000010   WinHeight
00:000004FF X Transp
00:00000000   SolidTile0
00:0000001A   SolidTile1
00:00000527   SolidTile2
00:00000634   SolidTile3
00:00000716 X SolidTile4
00:00000000   SolidColor0
00:00000001   SolidColor1
00:00000004   SolidColor2
00:00000007   SolidColor3
00:00000008 X SolidColor4
00:00000005 X NSolidColors
00:00000024 X ENASLT
00:00000138   RSLREG
00:0000FCC1   EXPTBL
00:00004010   search_slot
00:0000402F   search_slotram
00:00004050   search_slotram0
00:00004055 X setrompage0
00:0000405B   setrompage2
00:00004061   setrampage2
00:00004067 X setrompage3
00:0000406D X setrampage3
00:00004073 X recbios
00:00004076   setslotpage0
00:000040AD X setslotpage1
00:000040EC   setslotpage2
00:00004133   setslotpage3
00:0000000C X rdslt
00:0000001C X CALSLT
00:00000180   chgcpu
00:0000FCC1 X exttbl
00:00008000   _levelmap
00:00004172   _set_r800
00:00004193   set_turbo_tr
00:0000419B   checkkbd
00:000041A6   plot_frame
00:00004223   START
00:0000423B   _ntsc
00:00004366   main_loop
00:000043BA   up
00:000043CF   dwn
00:000043E2   right
00:000043FC   left
00:0000FC9E   JIFFY
00:00004419   _isr
00:00004449   powerup
00:000000D5   GTSTCK
00:000000D8 X GTTRIG
00:00004452   _cursors
00:00000099   vdpport1
00:0000009A   vdpport2
00:00004460   levelcolors
00:00004480   _SetPalet
00:00004492   _vuitpakker
00:000044CA   _literal
00:000044CF   __loop
00:000044D8 X _getlen
00:000044DE   lus
00:000044FB   lenok
00:00004508   _mode7
00:0000450E   _mode6
00:00004514   _mode5
00:0000451A   _mode4
00:00004520   _mode3
00:00004526   _mode2
00:00004536   offsok
00:00004541   _loop
00:00004557   _getbit
00:0000455B   _getbitexx
00:00004561   Depack_out
00:00004563   setVwrite
00:0000456F   setVread
00:0000457D   __modes
00:0000458B   plot_tile
00:0000459E   plot_foreground
00:00000005 S counter
00:000045DA   plot_trasp_tile
00:000045F2   vdp_conf
00:0000463F   plot_solid_box
00:00004679   _clean_buffs
00:00004687   _vdpsetvramwr
00:000046A1   _vdpsetvramrd
00:000046BB   _setpage
00:0000005F   chgmod
00:0000000C X RDSLT
00:00000156 X KILBUF
00:000046CC   _scr
00:000046D1   _waitvdp
00:000046E9   _print_fps
00:0000470B   _compute_fps
00:00004712 X int2ascii
00:00004715 X Num2asc
00:0000472E   Num1
00:00004730   Num2
00:00004739   _metatable
00:00005F31   _backmap
00:00000008   nenemies
00:00000080   sprite_size
00:00000000 X enemy.type
00:00000001 X enemy.state
00:00000002   enemy.frame
00:00000003   enemy.x
00:00000005   enemy.y
00:00000007   enemy.mappos
00:00000009   enemy.dx
00:0000000B X enemy.dy
00:0000000D   enemy.nx
00:0000000E   enemy.ny
00:0000000F   enemy.buf
00:0000008F   enemy
06:00008000   frames
00:00006331 X int_sprites
00:0000635B X move_sprites
00:00006374 X save_background
00:00006397 X plot_sprite
00:000063AE X restore_background
00:000063B5   plot_sprtite_frame
00:000063D0   _hw_sprite_init
00:0000642F   hwsprt_test
00:00006449   enemies_LMMM
00:000064DD   state0
00:000064E1 X state1
00:000064E5 X state2
00:000064E9 X state3
01:00008000   _frame
01:00008951   _mc_sprites
02:00008000   _tiles0
03:00008000   _tiles1
04:00008000   _level
05:00008000 X sprtdata
05:00008000   sprtdata.SPRITES
05:00008240   sprtdata.ATRIBUTOS
05:00008360 X FINISH
05:0000C000   slotvar
05:0000C001   slotram
05:0000C002   SEL_NTSC
05:0000C003   _mcdx
05:0000C004 X _mcdy
05:0000C005   _mcx
05:0000C007   _mcy
05:0000C009   _mcframe
05:0000C00A   _mcstate
05:0000C00B   _ticxframe
05:0000C00C   _buffer
05:0000C01C   _fps
05:0000C01E   _nframes
05:0000C020   _vbit16
05:0000C022   _levelmappos
05:0000C025   _ymappos
05:0000C026   _xmappos
05:0000C028   _shadowbuff
05:0000C02A   _currentpage
05:0000C02B   _shadow0
05:0000C62B   _shadow1
05:0000CC2B   enemylist


 Output: main.out
-------------------------------------------------

 Page: 00
  Org: 00004000  Size: *  Used: 00000000

    No output

 Output: maneldem.rom
-------------------------------------------------

 Page: 00
  Org: 00004000  Size: 00004000  Used: 000024ED

   Address   Length Align   Label
   00004000    9009         search_slot
   00006331     444         int_sprites
   000064ED    6931       <empty>

 Page: 01
  Org: 00008000  Size: 00004000  Used: 00001338

   Address   Length Align   Label
   00008000    4920         _frame
   00009338   11464       <empty>

 Page: 02
  Org: 00008000  Size: 00004000  Used: 000036E0

   Address   Length Align   Label
   00008000   14048         _tiles0
   0000B6E0    2336       <empty>

 Page: 03
  Org: 00008000  Size: 00004000  Used: 00003AC1

   Address   Length Align   Label
   00008000   15041         _tiles1
   0000BAC1    1343       <empty>

 Page: 04
  Org: 00008000  Size: 00004000  Used: 00000C08

   Address   Length Align   Label
   00008000    3080         _level
   00008C08   13304       <empty>

 Page: 05
  Org: 00008000  Size: 00004000  Used: 00000360

   Address   Length Align   Label
   00008000     864         sprtdata
   00008360   15520       <empty>

 Page: 06
  Org: 00008000  Size: 00004000  Used: 00003F8C

   Address   Length Align   Label
   00008000   16268         frames
   0000BF8C     116       <empty>

 Page: 07
  Org: 00008000  Size: 00004000  Used: 00000000

   00008000   16384       <empty>

 Page: 08
  Org: 00008000  Size: 00004000  Used: 00000000

   00008000   16384       <empty>

 Page: 09
  Org: 00008000  Size: 00004000  Used: 00000000

   00008000   16384       <empty>

 Page: 0A
  Org: 00008000  Size: 00004000  Used: 00000000

   00008000   16384       <empty>

 Page: 0B
  Org: 00008000  Size: 00004000  Used: 00000000

   00008000   16384       <empty>

 Page: 0C
  Org: 00008000  Size: 00004000  Used: 00000000

   00008000   16384       <empty>

 Page: 0D
  Org: 00008000  Size: 00004000  Used: 00000000

   00008000   16384       <empty>

 Page: 0E
  Org: 00008000  Size: 00004000  Used: 00000000

   00008000   16384       <empty>

 Page: 0F
  Org: 00008000  Size: 00004000  Used: 00000000

   00008000   16384       <empty>
