Sjasm Z80 Assembler v0.42c - www.xl2s.tk             [2015.03.15 - 23:55:10]

main.asm
Errors: 0

       1   00:0000                      ;----------------------------------------------------------------------------
       2   00:0000                      ;----------------------------------------------------------------------------
       3   00:0000                      
       4   00:0000                              output "maneldem.rom"
       5   00:0000                      
       6   00:0000                      		defpage	0,0x4000, 0x2000		; page 0 main code + far call routines
       7   00:0000                      		defpage	1,0x6000, 0x2000		; page 1 main code + far call routines
       8   00:0000                      		defpage	2,0x8000, 0x2000		; swapped data 
       9   00:0000                      		defpage	3,0xA000, 0x2000		; swapped data 
      10   00:0000                      		defpage	4,0x8000, 0x2000		; swapped data 
      11   00:0000                      		defpage	5,0xA000, 0x2000		; swapped data 
      12   00:0000                      		defpage	6,0x8000, 0x2000		; swapped data 
      13   00:0000                      		defpage	7,0xA000, 0x2000		; swapped data 
      14   00:0000                      		defpage	8,0x8000, 0x2000		; swapped data 
      15   00:0000                      		defpage	9,0xA000, 0x2000		; swapped data 
      16   00:0000                      		defpage	10,0x8000, 0x2000		; swapped data 
      17   00:0000                      		defpage	11,0xA000, 0x2000		; swapped data 
      18   00:0000                      
      19   00:0000                      		defpage	14,0x8000, 0x2000		; swapped data 
      20   00:0000                      		defpage	15,0xA000, 0x2000		; swapped data 
      21   00:0000                      
      22   00:0000                      		defpage	12,0x4000, 0x2000		; swapped data 
      23   00:0000                      		defpage	13,0x6000, 0x2000		; swapped data 
      24   00:0000                      
      25   00:0000                      		;	konami scc
      26   00:0000                      		
      27   00:0000  (00:5000)           _kBank1:	equ 05000h ;- 57FFh (5000h used)
      28   00:0000  (00:7000)           _kBank2: 	equ 07000h ;- 77FFh (7000h used)
      29   00:0000  (00:9000)           _kBank3: 	equ 09000h ;- 97FFh (9000h used)
      30   00:0000  (00:B000)           _kBank4: 	equ 0B000h ;- B7FFh (B000h used)
      31   00:0000                      	
      32   00:0000                      ;	ascii 16
      33   00:0000                      ; _bank1	equ	0x6000 
      34   00:0000                      ; _bank2	equ	0x7000
      35   00:0000                      		
      36   00:0000                      	macro setpage_a
      37   00:0000                    < 		ld	(_kBank3),a
      38   00:0000                    < 		inc	a
      39   00:0000                    < 		ld	(_kBank4),a
      40   00:0000                    < 	endmacro
      41   00:0000                        
      42   00:0000  (00)                		page 0
      43   00:4000                      		
      44   00:4000                              org 4000h
      45   00:4000                              dw  4241h,START,0,0,0,0,0,0
      45   00:4000  41 42 23 42 00 00 00 00 00 00 00 00 00 00 00 00 
      46   00:4010                      
      47   00:4010                      
      48   00:4010                      		include "header.asm"
       1.  00:4010  (00:06EF)           n_tiles: equ 1775
       2.  00:4010  (00:0100)           mapWidth:	equ	256
       3.  00:4010  (00:0020)           mapHeight:	equ	 32
       4.  00:4010  (00:001C)           WinWidth:	equ	 28
       5.  00:4010  (00:0010)           WinHeight:	equ	 16
       6.  00:4010  (00:01E1)           Transp:	equ	481
       7.  00:4010  (00:0000)           SolidTile0	equ	  0
       8.  00:4010  (00:002B)           SolidTile1	equ	 43
       9.  00:4010  (00:0515)           SolidTile2	equ	1301
      10.  00:4010  (00:0625)           SolidTile3	equ	1573
      11.  00:4010  (00:0000)           SolidColor0	equ	  0
      12.  00:4010  (00:0001)           SolidColor1	equ	  1
      13.  00:4010  (00:0007)           SolidColor2	equ	  7
      14.  00:4010  (00:0008)           SolidColor3	equ	  8
      15.  00:4010  (00:0004)           NSolidColors	equ	  4
      49   00:4010                      	
      50   00:4010                      		include "rominit64.asm"
       1.  00:4010                      
       2.  00:4010                      ;;;;;;;;;;;;;;;;;;;;;;;;;;;;;;;;;;;;;;;;;;;;;;;;;;;;;;;;;;;;;;;;;;;;;;
       3.  00:4010                      ; set pages and subslot
       4.  00:4010                      ;
       5.  00:4010                      
       6.  00:4010                      
       7.  00:4010  (00:0024)           ENASLT:			equ		024h
       8.  00:4010  (00:0138)           RSLREG:			equ		0138h
       9.  00:4010  (00:FCC1)           EXPTBL:			equ		0FCC1h	; Bios Slot / Expansion Slot
      10.  00:4010                      
      11.  00:4010                      
      12.  00:4010                      ; ----------------------------
      13.  00:4010                      ; pre-set main slot for page 3
      14.  00:4010                      ; and set sub-slot for page 3
      15.  00:4010                      ; ----------------------------
      16.  00:4010                      	macro	mainslot_setup n
      17.  00:4010                    < 	and		3
      18.  00:4010                    < [2]	rrca
      19.  00:4010                    < 	and		0xC0
      20.  00:4010                    < 	ld		c,a
      21.  00:4010                    < 	ld		a,d
      22.  00:4010                    < 	and		0x3F
      23.  00:4010                    < 	or		c
      24.  00:4010                    < 	ld		c,a					; Primary slot value with main slot in page 3
      25.  00:4010                    < 
      26.  00:4010                    < 	ld		a,b
      27.  00:4010                    < 	and		0x0C
      28.  00:4010                    < [2]	rrca
      29.  00:4010                    < 	and		3
      30.  00:4010                    < 	ld		b,a					; B = Expanded slot in page 3
      31.  00:4010                    < 	ld		a,c
      32.  00:4010                    < 	out		(0A8h),a			; Slot : Main Slot, xx, xx, Main slot
      33.  00:4010                    < 	ld		a,(0FFFFh)
      34.  00:4010                    < 	cpl
      35.  00:4010                    < 	if (n<=4)
      36.  00:4010                    < [n]	RLCA
      37.  00:4010                    < 	else
      38.  00:4010                    < [8-n] RRCA	
      39.  00:4010                    < 	endif
      40.  00:4010                    < 	and		0xFC
      41.  00:4010                    < 	or		b
      42.  00:4010                    < 	if (n<=4)
      43.  00:4010                    < [n]	RRCA
      44.  00:4010                    < 	else
      45.  00:4010                    < [8-n] RLCA
      46.  00:4010                    < 	endif
      47.  00:4010                    < 	ld		(0FFFFh),a		; Expanded slot selected
      48.  00:4010                    < 	ld		b,a				; save for later	
      49.  00:4010                    < 	endmacro
      50.  00:4010                      		
      51.  00:4010                      
      52.  00:4010                      ; ------------------------------
      53.  00:4010                      ; SEARCH_SLOT
      54.  00:4010                      ; look for the slot of our rom
      55.  00:4010                      ; active in page 1
      56.  00:4010                      ; ------------------------------
      57.  00:4010                      
      58.  00:4010                      search_slot:
      59.  00:4010  CD 38 01            	call	RSLREG
      60.  00:4013  0F 0F               [2]	rrca
      61.  00:4015  E6 03               	and		3
      62.  00:4017  4F                  	ld		c,a
      63.  00:4018  06 00               	ld		b,0
      64.  00:401A  21 C1 FC            	ld		hl,EXPTBL
      65.  00:401D  09                  	add		hl,bc
      66.  00:401E  7E                  	ld		a,(hl)
      67.  00:401F  E6 80               	and		080h
      68.  00:4021  B1                  	or		c
      69.  00:4022  4F                  	ld		c,a
      70.  00:4023  23 23 23 23         [4]	inc		hl
      71.  00:4027  7E                  	ld		a,(hl)
      72.  00:4028  E6 0C               	and		0Ch
      73.  00:402A  B1                  	or		c
      74.  00:402B  32 74 D4            	ld		(slotvar),a
      75.  00:402E  C9                  	ret
      76.  00:402F                      	
      77.  00:402F                      ; ------------------------------
      78.  00:402F                      ; look for the slot of ram
      79.  00:402F                      ; active in page 3
      80.  00:402F                      ; ------------------------------
      81.  00:402F                      
      82.  00:402F                      search_slotram:
      83.  00:402F  F3                  	di
      84.  00:4030  CD 38 01            	call	RSLREG
      85.  00:4033  07 07               [2]	rlca
      86.  00:4035  E6 03               	and		3
      87.  00:4037  4F                  	ld		c,a
      88.  00:4038  06 00               	ld		b,0
      89.  00:403A  21 C1 FC            	ld		hl,EXPTBL
      90.  00:403D  09                  	add		hl,bc
      91.  00:403E  7E                  	ld		a,(hl)
      92.  00:403F  E6 80               	and		080h
      93.  00:4041  28 0D               	jr		z,search_slotram0
      94.  00:4043  B1                  	or		c
      95.  00:4044  4F                  	ld		c,a
      96.  00:4045  23 23 23 23         [4]	inc		hl
      97.  00:4049  7E                  	ld		a,(hl)
      98.  00:404A  07 07 07 07         [4]	rlca
      99.  00:404E  E6 0C               	and		0Ch
     100.  00:4050                      search_slotram0:
     101.  00:4050  B1                  	or		c
     102.  00:4051  32 75 D4            	ld		(slotram),a
     103.  00:4054  C9                  	ret
     104.  00:4055                      	
     105.  00:4055                      ; ------------------------------
     106.  00:4055                      ; SETROMPAGE0
     107.  00:4055                      ; Set the chart in
     108.  00:4055                      ; Page 0
     109.  00:4055                      ; -----------------------------
     110.  00:4055                      
     111.  00:4055                      setrompage0:
     112.  00:4055  3A 74 D4            	ld		a,(slotvar)
     113.  00:4058  C3 76 40            	jp		setslotpage0
     114.  00:405B                      
     115.  00:405B                      setrompage2:
     116.  00:405B  3A 74 D4            	ld		a,(slotvar)
     117.  00:405E  C3 EC 40            	jp		setslotpage2
     118.  00:4061                      
     119.  00:4061                      setrampage2:
     120.  00:4061  3A 75 D4            	ld		a,(slotram)
     121.  00:4064  C3 EC 40            	jp		setslotpage2
     122.  00:4067                      	
     123.  00:4067                      setrompage3:
     124.  00:4067  3A 74 D4            	ld		a,(slotvar)
     125.  00:406A  C3 33 41            	jp		setslotpage3
     126.  00:406D                      
     127.  00:406D                      setrampage3:
     128.  00:406D  3A 75 D4            	ld		a,(slotram)
     129.  00:4070  C3 33 41            	jp		setslotpage3
     130.  00:4073                      	
     131.  00:4073                      ; ------------------------------
     132.  00:4073                      ; RECBIOS
     133.  00:4073                      ; set the bios ROM
     134.  00:4073                      ; -------------------------------
     135.  00:4073                      recbios:
     136.  00:4073  3A C1 FC            	ld		a,(EXPTBL)
     137.  00:4076                      
     138.  00:4076                      ; ---------------------------
     139.  00:4076                      ; SETSLOTPAGE0
     140.  00:4076                      ; Set the slot passed in A
     141.  00:4076                      ; at page 0 in the Z80 address space
     142.  00:4076                      ; A: Format FxxxSSPP
     143.  00:4076                      ; ----------------------------
     144.  00:4076                      
     145.  00:4076                      setslotpage0:
     146.  00:4076  F3                  	di
     147.  00:4077  47                  	ld		b,a					; B = Slot param in FxxxSSPP format
     148.  00:4078  DB A8               	in		a,(0A8h)
     149.  00:407A  E6 FC               	and		0xFC
     150.  00:407C  57                  	ld		d,a					; D = Primary slot value
     151.  00:407D  78                  	ld		a,b
     152.  00:407E  E6 03               	and		3
     153.  00:4080  B2                  	or		d
     154.  00:4081  57                  	ld		d,a		; D = Final Value for primary slot
     155.  00:4082  78                  	ld		a,b		; Check if expanded
     156.  00:4083  CB 7F               	bit		7,a
     157.  00:4085  28 22               	jr		z,1f	; Not Expanded
     158.  00:4087                      	mainslot_setup	0
     158.  00:4087  E6 03             >  and  3
     158.  00:4089  0F 0F             > [2] rrca
     158.  00:408B  E6 C0             >  and  0xC0
     158.  00:408D  4F                >  ld  c,a
     158.  00:408E  7A                >  ld  a,d
     158.  00:408F  E6 3F             >  and  0x3F
     158.  00:4091  B1                >  or  c
     158.  00:4092  4F                >  ld  c,a
     158.  00:4093                    > 
     158.  00:4093  78                >  ld  a,b
     158.  00:4094  E6 0C             >  and  0x0C
     158.  00:4096  0F 0F             > [2] rrca
     158.  00:4098  E6 03             >  and  3
     158.  00:409A  47                >  ld  b,a
     158.  00:409B  79                >  ld  a,c
     158.  00:409C  D3 A8             >  out  (0A8h),a
     158.  00:409E  3A FF FF          >  ld  a,(0FFFFh)
     158.  00:40A1  2F                >  cpl
     158.  00:40A2                    >  if (n<=4)
     158.  00:40A2                    > [n] RLCA
     158.  00:40A2                    >  else
     158.  00:40A2                    ~ [8-n] RRCA
     158.  00:40A2                    ~  endif
     158.  00:40A2  E6 FC             >  and  0xFC
     158.  00:40A4  B0                >  or  b
     158.  00:40A5                    >  if (n<=4)
     158.  00:40A5                    > [n] RRCA
     158.  00:40A5                    >  else
     158.  00:40A5                    ~ [8-n] RLCA
     158.  00:40A5                    ~  endif
     158.  00:40A5  32 FF FF          >  ld  (0FFFFh),a
     158.  00:40A8  47                >  ld  b,a
     159.  00:40A9  7A                  1:	ld		a,d				; A = Final value
     160.  00:40AA  D3 A8               	out		(0A8h),a		; Slot Final. Ram, rom c, rom c, Main
     161.  00:40AC  C9                  	ret
     162.  00:40AD                      
     163.  00:40AD                      ; ---------------------------
     164.  00:40AD                      ; SETSLOTPAGE1
     165.  00:40AD                      ; Set the slot passed in A
     166.  00:40AD                      ; at page 1 in the Z80 address space
     167.  00:40AD                      ; A: Format FxxxSSPP
     168.  00:40AD                      ; ----------------------------
     169.  00:40AD                      
     170.  00:40AD                      setslotpage1:
     171.  00:40AD  F3                  	di
     172.  00:40AE  47                  	ld		b,a					; B = Slot param in FxxxSSPP format
     173.  00:40AF  DB A8               	in		a,(0A8h)
     174.  00:40B1  0F 0F               [2]	RRCA
     175.  00:40B3  E6 FC               	and		0xFC
     176.  00:40B5  57                  	ld		d,a					; D = Primary slot value
     177.  00:40B6  78                  	ld		a,b
     178.  00:40B7  E6 03               	and		3
     179.  00:40B9  B2                  	or		d
     180.  00:40BA  07 07               [2]	RLCA
     181.  00:40BC  57                  	ld		d,a		; D = Final Value for primary slot
     182.  00:40BD  78                  	ld		a,b		; Check if expanded
     183.  00:40BE  CB 7F               	bit		7,a
     184.  00:40C0  28 26               	jr		z,1f	; Not Expanded
     185.  00:40C2                      	mainslot_setup	6
     185.  00:40C2  E6 03             >  and  3
     185.  00:40C4  0F 0F             > [2] rrca
     185.  00:40C6  E6 C0             >  and  0xC0
     185.  00:40C8  4F                >  ld  c,a
     185.  00:40C9  7A                >  ld  a,d
     185.  00:40CA  E6 3F             >  and  0x3F
     185.  00:40CC  B1                >  or  c
     185.  00:40CD  4F                >  ld  c,a
     185.  00:40CE                    > 
     185.  00:40CE  78                >  ld  a,b
     185.  00:40CF  E6 0C             >  and  0x0C
     185.  00:40D1  0F 0F             > [2] rrca
     185.  00:40D3  E6 03             >  and  3
     185.  00:40D5  47                >  ld  b,a
     185.  00:40D6  79                >  ld  a,c
     185.  00:40D7  D3 A8             >  out  (0A8h),a
     185.  00:40D9  3A FF FF          >  ld  a,(0FFFFh)
     185.  00:40DC  2F                >  cpl
     185.  00:40DD                    >  if (n<=4)
     185.  00:40DD                    ~ [n] RLCA
     185.  00:40DD                    ~  else
     185.  00:40DD  0F 0F             > [8-n] RRCA
     185.  00:40DF                    >  endif
     185.  00:40DF  E6 FC             >  and  0xFC
     185.  00:40E1  B0                >  or  b
     185.  00:40E2                    >  if (n<=4)
     185.  00:40E2                    ~ [n] RRCA
     185.  00:40E2                    ~  else
     185.  00:40E2  07 07             > [8-n] RLCA
     185.  00:40E4                    >  endif
     185.  00:40E4  32 FF FF          >  ld  (0FFFFh),a
     185.  00:40E7  47                >  ld  b,a
     186.  00:40E8  7A                  1:	ld		a,d				; A = Final value
     187.  00:40E9  D3 A8               	out		(0A8h),a		; Slot Final. Ram, rom c, rom c, Main
     188.  00:40EB  C9                  	ret
     189.  00:40EC                      	
     190.  00:40EC                      
     191.  00:40EC                      ; ---------------------------
     192.  00:40EC                      ; SETSLOTPAGE2
     193.  00:40EC                      ; Set the slot passed in A
     194.  00:40EC                      ; at page 2 in the Z80 address space
     195.  00:40EC                      ; A: Format FxxxSSPP
     196.  00:40EC                      ; ----------------------------
     197.  00:40EC                      
     198.  00:40EC                      setslotpage2:
     199.  00:40EC  F3                  	di
     200.  00:40ED  47                  	ld		b,a					; B = Slot param in FxxxSSPP format
     201.  00:40EE  DB A8               	in		a,(0A8h)
     202.  00:40F0  07 07 07 07         [4]	RLCA
     203.  00:40F4  E6 FC               	and		0xFC
     204.  00:40F6  57                  	ld		d,a					; D = Primary slot value
     205.  00:40F7  78                  	ld		a,b
     206.  00:40F8  E6 03               	and		3
     207.  00:40FA  B2                  	or		d
     208.  00:40FB  0F 0F 0F 0F         [4]	RRCA
     209.  00:40FF  57                  	ld		d,a		; D = Final Value for primary slot
     210.  00:4100  78                  	ld		a,b		; Check if expanded
     211.  00:4101  CB 7F               	bit		7,a
     212.  00:4103  28 2A               	jr		z,1f	; Not Expanded
     213.  00:4105                      	mainslot_setup	4
     213.  00:4105  E6 03             >  and  3
     213.  00:4107  0F 0F             > [2] rrca
     213.  00:4109  E6 C0             >  and  0xC0
     213.  00:410B  4F                >  ld  c,a
     213.  00:410C  7A                >  ld  a,d
     213.  00:410D  E6 3F             >  and  0x3F
     213.  00:410F  B1                >  or  c
     213.  00:4110  4F                >  ld  c,a
     213.  00:4111                    > 
     213.  00:4111  78                >  ld  a,b
     213.  00:4112  E6 0C             >  and  0x0C
     213.  00:4114  0F 0F             > [2] rrca
     213.  00:4116  E6 03             >  and  3
     213.  00:4118  47                >  ld  b,a
     213.  00:4119  79                >  ld  a,c
     213.  00:411A  D3 A8             >  out  (0A8h),a
     213.  00:411C  3A FF FF          >  ld  a,(0FFFFh)
     213.  00:411F  2F                >  cpl
     213.  00:4120                    >  if (n<=4)
     213.  00:4120  07 07 07 07       > [n] RLCA
     213.  00:4124                    >  else
     213.  00:4124                    ~ [8-n] RRCA
     213.  00:4124                    ~  endif
     213.  00:4124  E6 FC             >  and  0xFC
     213.  00:4126  B0                >  or  b
     213.  00:4127                    >  if (n<=4)
     213.  00:4127  0F 0F 0F 0F       > [n] RRCA
     213.  00:412B                    >  else
     213.  00:412B                    ~ [8-n] RLCA
     213.  00:412B                    ~  endif
     213.  00:412B  32 FF FF          >  ld  (0FFFFh),a
     213.  00:412E  47                >  ld  b,a
     214.  00:412F  7A                  1:	ld		a,d				; A = Final value
     215.  00:4130  D3 A8               	out		(0A8h),a		; Slot Final. Ram, rom c, rom c, Main
     216.  00:4132  C9                  	ret
     217.  00:4133                      	
     218.  00:4133                      ; ---------------------------
     219.  00:4133                      ; SETSLOTPAGE3
     220.  00:4133                      ; Set the slot passed in A
     221.  00:4133                      ; at page 3 in the Z80 address space
     222.  00:4133                      ; A: Format FxxxSSPP
     223.  00:4133                      ; ----------------------------
     224.  00:4133                      	
     225.  00:4133                      setslotpage3:
     226.  00:4133  F3                  	di
     227.  00:4134  47                  	ld		b,a					; B = Slot param in FxxxSSPP format
     228.  00:4135  DB A8               	in		a,(0A8h)
     229.  00:4137  07 07               [2]	RLCA
     230.  00:4139  E6 FC               	and		0xFC
     231.  00:413B  57                  	ld		d,a					; D = Primary slot value
     232.  00:413C  78                  	ld		a,b
     233.  00:413D  E6 03               	and		3
     234.  00:413F  B2                  	or		d
     235.  00:4140  0F 0F               [2]	RRCA	
     236.  00:4142  57                  	ld		d,a		; D = Final Value for primary slot
     237.  00:4143  78                  	ld		a,b		; Check if expanded
     238.  00:4144  CB 7F               	bit		7,a
     239.  00:4146  28 26               	jr		z,1f	; Not Expanded
     240.  00:4148                      	mainslot_setup	2
     240.  00:4148  E6 03             >  and  3
     240.  00:414A  0F 0F             > [2] rrca
     240.  00:414C  E6 C0             >  and  0xC0
     240.  00:414E  4F                >  ld  c,a
     240.  00:414F  7A                >  ld  a,d
     240.  00:4150  E6 3F             >  and  0x3F
     240.  00:4152  B1                >  or  c
     240.  00:4153  4F                >  ld  c,a
     240.  00:4154                    > 
     240.  00:4154  78                >  ld  a,b
     240.  00:4155  E6 0C             >  and  0x0C
     240.  00:4157  0F 0F             > [2] rrca
     240.  00:4159  E6 03             >  and  3
     240.  00:415B  47                >  ld  b,a
     240.  00:415C  79                >  ld  a,c
     240.  00:415D  D3 A8             >  out  (0A8h),a
     240.  00:415F  3A FF FF          >  ld  a,(0FFFFh)
     240.  00:4162  2F                >  cpl
     240.  00:4163                    >  if (n<=4)
     240.  00:4163  07 07             > [n] RLCA
     240.  00:4165                    >  else
     240.  00:4165                    ~ [8-n] RRCA
     240.  00:4165                    ~  endif
     240.  00:4165  E6 FC             >  and  0xFC
     240.  00:4167  B0                >  or  b
     240.  00:4168                    >  if (n<=4)
     240.  00:4168  0F 0F             > [n] RRCA
     240.  00:416A                    >  else
     240.  00:416A                    ~ [8-n] RLCA
     240.  00:416A                    ~  endif
     240.  00:416A  32 FF FF          >  ld  (0FFFFh),a
     240.  00:416D  47                >  ld  b,a
     241.  00:416E  7A                  1:	ld		a,d				; A = Final value
     242.  00:416F  D3 A8               	out		(0A8h),a		; Slot Final. Ram, rom c, rom c, Main
     243.  00:4171  C9                  	ret
     244.  00:4172                      
     245.  00:4172                      	
      51   00:4172                      
      52   00:4172  (00:000C)           rdslt	equ	0x000c
      53   00:4172  (00:001C)           CALSLT	equ	0x001c
      54   00:4172  (00:0180)           chgcpu	equ	0x0180	; change cpu mode
      55   00:4172  (00:FCC1)           exttbl	equ	0xfcc1	; main rom slot
      56   00:4172                      
      57   00:4172                      ; _levelmap:			#mapWidth*mapHeight*2	
      58   00:4172                      
      59   00:4172  (00:8000)           _levelmap equ	0x8000	; ram in page 1
      60   00:4172                      
      61   00:4172                      ; Switch to r800 rom mode
      62   00:4172                      	
      63   00:4172                      _set_r800:
      64   00:4172  DB AA               		in	a,(0aah)
      65   00:4174  E6 F0               		and 011110000B			; upper 4 bits contain info to preserve
      66   00:4176  F6 06               		or	6
      67   00:4178  D3 AA               		out (0aah),a
      68   00:417A  DB A9               		in	a,(0a9h)
      69   00:417C  6F                  		ld	l,a
      70   00:417D                      
      71   00:417D  3A 2D 00            		ld	a,(0x002d)
      72   00:4180  FE 03               		cp	3					; this is a TR
      73   00:4182  7D                  		ld	a,l
      74   00:4183  28 0E               		jr	z,set_turbo_tr
      75   00:4185                      								; this is anything else
      76   00:4185  E6 02               		and	0x02				; CTR
      77   00:4187  C0                  		ret	nz					; if NZ, CTR is not pressed set the turbo
      78   00:4188                      
      79   00:4188  3A 80 01            		ld	A,(chgcpu)
      80   00:418B  FE C3               		cp	0C3h
      81   00:418D  3E 81               		ld	a,81h              ; R800 ROM mode or any other turbo
      82   00:418F  CC 80 01            		call	z,chgcpu
      83   00:4192  C9                  		ret
      84   00:4193                      
      85   00:4193                      set_turbo_tr
      86   00:4193  E6 02               		and	0x02				; CTR
      87   00:4195  C8                  		ret	z					; if Z, CTR is pressed -> do not set the turbo
      88   00:4196  3E 81               		ld	a,81h              	; R800 ROM mode
      89   00:4198  C3 80 01            		jp chgcpu
      90   00:419B                      		
      91   00:419B                      	
      92   00:419B                      checkkbd:
      93   00:419B  DB AA               		in	a,(0aah)
      94   00:419D  E6 F0               		and 011110000B			; upper 4 bits contain info to preserve
      95   00:419F  B3                  		or	e
      96   00:41A0  D3 AA               		out (0aah),a
      97   00:41A2  DB A9               		in	a,(0a9h)
      98   00:41A4  6F                  		ld	l,a
      99   00:41A5  C9                  		ret
     100   00:41A6                      		
     101   00:41A6                      ;-------------------------------------		
     102   00:41A6                      		
     103   00:41A6                      		include plot_frame.asm
       1.  00:41A6                      
       2.  00:41A6                      plot_frame:
       3.  00:41A6  0E 10               		ld		c,WinHeight
       4.  00:41A8                      		
       5.  00:41A8  2E 00               		ld		l,0
       6.  00:41AA  3A 9F D4            		ld		a,(_ymappos)
       7.  00:41AD                      
       8.  00:41AD  1F 1F               [2]		rra
       9.  00:41AF  E6 3E               		and	00111110B				; ONLY IF mapWidth=256
      10.  00:41B1  67                  		ld	h,a
      11.  00:41B2                      
      12.  00:41B2  ED 5B A0 D4         		ld		de,(_xmappos)
      13.  00:41B6                      		repeat 2		; X /8 * 2
      14.  00:41B6                    < 		srl		d
      15.  00:41B6                    < 		rr		e
      16.  00:41B6                    < 		endrepeat
      16.  00:41B6  CB 3A CB 1B CB 3A CB 1B 
      17.  00:41BE  CB 83               		res		0,e
      18.  00:41C0  19                  		add		hl,de
      19.  00:41C1                      		
      20.  00:41C1  11 00 80            		ld		de,_levelmap		; byte scale
      21.  00:41C4  19                  		add		hl,de
      22.  00:41C5  EB                  		ex		de,hl				; de -> levelmap
      23.  00:41C6  21 84 00            		ld		hl,2*(2*32+2)		; hl -> screen 
      24.  00:41C9                      		
      25.  00:41C9  3A A0 D4            		ld		a,(_xmappos)
      26.  00:41CC  E6 04               		and		00000100B
      27.  00:41CE  47                  		ld		b,a
      28.  00:41CF  3A 9F D4            		ld		a,(_ymappos)
      29.  00:41D2  E6 04               		and		00000100B
      30.  00:41D4  1F                  		rra
      31.  00:41D5  80                  		add		a,b
      32.  00:41D6  DD 6F               		ld		ixl,a			; ixl -> scroll offset
      33.  00:41D8                      		
      34.  00:41D8                      		
      35.  00:41D8  06 1C               2:		ld		b,WinWidth
      36.  00:41DA  D5                  		push	de
      37.  00:41DB                      
      38.  00:41DB  D5                  3:		push	de
      39.  00:41DC  E5                  		push	hl
      40.  00:41DD                      		
      41.  00:41DD  EB                  		ex		de,hl
      42.  00:41DE  5E                  		ld		e,(hl)
      43.  00:41DF  23                  		inc		hl
      44.  00:41E0  56                  		ld		d,(hl)		; DE = meta tile
      45.  00:41E1                      		
      46.  00:41E1  EB                  		ex		de,hl
      47.  00:41E2  29 29 29            [3]		add		hl,hl
      48.  00:41E5                      		
      49.  00:41E5  DD 7D               		ld	a,ixl
      50.  00:41E7  B5                  		or	l
      51.  00:41E8  6F                  		ld	l,a
      52.  00:41E9                      		
      53.  00:41E9  11 7E 47            		ld		de,_metatable
      54.  00:41EC  19                  		add		hl,de
      55.  00:41ED                      
      56.  00:41ED  5E                  		ld		e,(hl)
      57.  00:41EE  23                  		inc		hl
      58.  00:41EF  56                  		ld		d,(hl)		; DE = tile
      59.  00:41F0                      
      60.  00:41F0  E1                  		pop		hl			; HL = screen position
      61.  00:41F1  E5                  		push	hl
      62.  00:41F2                      
      63.  00:41F2  C5                  		push	bc
      64.  00:41F3                      		
      65.  00:41F3  ED 4B A2 D4         		ld		bc,(_shadowbuff)
      66.  00:41F7  09                  		add		hl,bc		; HL = pointer to the shadow map
      67.  00:41F8                      		
      68.  00:41F8  7E                  		ld		a,(hl)		; Avoid writing the same tile
      69.  00:41F9  BB                  		cp		e
      70.  00:41FA  23                  		inc		hl
      71.  00:41FB  C2 06 42            		jp		nz,1f
      72.  00:41FE  7E                  		ld		a,(hl)
      73.  00:41FF  BA                  		cp		d
      74.  00:4200  C2 06 42            		jp		nz,1f
      75.  00:4203  C3 0F 42            		jp		4f
      76.  00:4206                      1:
      77.  00:4206  72                  		ld		(hl),d		; rewrite the position with the actual tile in shadowbuffer
      78.  00:4207  2B                  		dec		hl
      79.  00:4208  73                  		ld		(hl),e
      80.  00:4209  A7                  		and		a
      81.  00:420A  ED 42               		sbc		hl,bc		; HL relative position in 32x24*2
      82.  00:420C                      							; DE new 16 tile to be plotted
      83.  00:420C  CD 8D 45            		call	plot_tile
      84.  00:420F                      4:		
      85.  00:420F  C1                  		pop		bc
      86.  00:4210  E1                  		pop		hl
      87.  00:4211  D1                  		pop		de
      88.  00:4212                      		
      89.  00:4212  23 23               [2]		inc		hl			; the screen in WinWidthxWinHeight of uints
      90.  00:4214                      		
      91.  00:4214  13 13               [2]		inc		de			; the levelmap is uint
      92.  00:4216  10 C3               		djnz	3b
      93.  00:4218                      		
      94.  00:4218                      		if (WinWidth<32)
      95.  00:4218  11 08 00            			ld	de,2*(32-WinWidth)	; only if WinWidth<32
      96.  00:421B  19                  			add	hl,de
      97.  00:421C                      		endif
      98.  00:421C                      		
      99.  00:421C  D1                  		pop		de
     100.  00:421D                      		
     101.  00:421D  14 14               [2]		inc d				; only if mapWidth=256
     102.  00:421F                      		
     103.  00:421F  0D                  		dec		c
     104.  00:4220  20 B6               		jr	nz,2b
     105.  00:4222  C9                  		ret
     104   00:4223                      		
     105   00:4223                      ;-------------------------------------
     106   00:4223                      ; Entry point
     107   00:4223                      ;-------------------------------------
     108   00:4223                      START:
     109   00:4223  1E 05                       ld		e,5
     110   00:4225  CD C1 46            		call	_scr
     111   00:4228                      
     112   00:4228  CD 72 41            		call 	_set_r800
     113   00:422B  CD 59 44                    call    powerup
     114   00:422E                      
     115   00:422E  AF                  		xor	a
     116   00:422F  32 00 50            		ld	(_kBank1),a
     117   00:4232  3C                  		inc	a
     118   00:4233  32 00 70            		ld	(_kBank2),a
     119   00:4236                      
     120   00:4236                      
     121   00:4236  1E 06               		ld e,6
     122   00:4238  CD 9B 41            		call	checkkbd
     123   00:423B  3E 01               		ld	a,1
     124   00:423D  CB 0D               		rrc	l				; shift
     125   00:423F  D2 43 42            		jp	nc,_ntsc
     126   00:4242  AF                  		xor	a
     127   00:4243  32 76 D4            _ntsc:	ld	(SEL_NTSC),a	; if set NSTC, if reset PAL
     128   00:4246                      		
     129   00:4246                      		; ld	e,7
     130   00:4246                      		; call	checkkbd
     131   00:4246                      		; and	0x04				; ESC
     132   00:4246                      		; jp 	z,_mballon_start
     133   00:4246                      		
     134   00:4246  11 00 00            		ld		de,0
     135   00:4249  4B                  		ld		c,e
     136   00:424A  F3                  		di
     137   00:424B  CD 7C 46            		call	_vdpsetvramwr
     138   00:424E  01 00 00            		ld		bc,0x0000
     139   00:4251  AF                  1:		xor		a
     140   00:4252  D3 98               		out		(0x98),a
     141   00:4254  0B                  		dec		bc
     142   00:4255  78                  		ld		a,b
     143   00:4256  B1                  		or		c
     144   00:4257  20 F8               		jr	nz,1b
     145   00:4259                      		
     146   00:4259  F3                  		di
     147   00:425A                      		// sprites 16x16
     148   00:425A  3A E0 F3            		ld	a,(0xF3E0)
     149   00:425D  F6 02               		or	2
     150   00:425F  32 E0 F3            		ld	(0xF3E0),a
     151   00:4262  D3 99               		out		(0x99),a
     152   00:4264  3E 81               		ld		a,128+1
     153   00:4266  D3 99               		out		(0x99),a
     154   00:4268                      
     155   00:4268                      		// border color
     156   00:4268  3E 55               		ld		a,0x55
     157   00:426A  D3 99               		out		(0x99),a
     158   00:426C  3E 87               		ld		a,128+7
     159   00:426E  D3 99               		out		(0x99),a
     160   00:4270                      		
     161   00:4270                      		// enable sprites + TP
     162   00:4270  3A E7 FF            		ld		a,(0xFFE7)
     163   00:4273  F6 22               		or		32+2
     164   00:4275  32 E7 FF            		ld		(0xFFE7),a
     165   00:4278  D3 99               		out		(0x99),a
     166   00:427A  3E 88               		ld		a,128+8
     167   00:427C  D3 99               		out		(0x99),a
     168   00:427E                      		
     169   00:427E                      		// Set 192 lines @50Hz (PAL assumed!)
     170   00:427E  3A 76 D4            		ld	a,(SEL_NTSC)
     171   00:4281  A7                  		and 	a
     172   00:4282  20 0C               		jr		nz,1f
     173   00:4284                      		
     174   00:4284  3A E8 FF            		ld		a,(0xFFE8)		; PAL
     175   00:4287  E6 7F               		and		01111111B
     176   00:4289  F6 02               		or		2
     177   00:428B  32 E8 FF            		ld		(0xFFE8),a
     178   00:428E  18 08               		jr	2f
     179   00:4290  3A E8 FF            1:		ld		a,(0xFFE8)		; NTSC
     180   00:4293  E6 7D               		and		01111101B
     181   00:4295  32 E8 FF            		ld		(0xFFE8),a
     182   00:4298                      2:	
     183   00:4298  D3 99               		out		(0x99),a
     184   00:429A  3E 89               		ld		a,128+9
     185   00:429C  D3 99               		out		(0x99),a
     186   00:429E  FB                  		ei
     187   00:429F                      
     188   00:429F  CD 00 64            		call _hw_sprite_init
     189   00:42A2                      
     190   00:42A2                      	;clear RAM (first kb only)
     191   00:42A2                      		; ld	bc,1024
     192   00:42A2                      		; ld	hl,0xc000
     193   00:42A2                      		; ld	de,0xc001
     194   00:42A2                      
     195   00:42A2                      		; ld	(hl),0
     196   00:42A2                      		; ldir
     197   00:42A2                      	
     198   00:42A2                      	;--- initialise demo song
     199   00:42A2  3E 0E               		ld	a, :demo_song
     200   00:42A4                      		setpage_a
     200   00:42A4  32 00 90          >   ld (_kBank3),a
     200   00:42A7  3C                >   inc a
     200   00:42A8  32 00 B0          >   ld (_kBank4),a
     201   00:42AB                      		
     202   00:42AB  21 00 80            		ld	hl,demo_song
     203   00:42AE  CD F6 66            		call	replay_init
     204   00:42B1                      
     205   00:42B1  CD 6E 46            		call	_clean_buffs
     206   00:42B4                      
     207   00:42B4  CD 82 44            		call	_SetPalet
     208   00:42B7  1E 00               		ld		e,0
     209   00:42B9  CD B0 46                    call	_setpage
     210   00:42BC                      		
     211   00:42BC                      		; unpack level map (bit field for collisions)
     212   00:42BC  3E 08               		ld	a, :_level_bf
     213   00:42BE                      		setpage_a
     213   00:42BE  32 00 90          >   ld (_kBank3),a
     213   00:42C1  3C                >   inc a
     213   00:42C2  32 00 B0          >   ld (_kBank4),a
     214   00:42C5                      		
     215   00:42C5  01 00 10            		ld	bc,mapWidth*mapHeight/2
     216   00:42C8  21 52 84            		ld	hl,	_level_bf
     217   00:42CB  11 C7 C2            		ld	de,	_cur_level_bf
     218   00:42CE  ED B0               		ldir
     219   00:42D0                      
     220   00:42D0                      		; unpack level map (meta_tiles)
     221   00:42D0  3E 08               		ld	a, :_level
     222   00:42D2                      		setpage_a
     222   00:42D2  32 00 90          >   ld (_kBank3),a
     222   00:42D5  3C                >   inc a
     222   00:42D6  32 00 B0          >   ld (_kBank4),a
     223   00:42D9                      		
     224   00:42D9  AF                  		xor	a
     225   00:42DA  32 9D D4            		ld		(_vbit16 ),a
     226   00:42DD  11 00 80            		ld		de,	_level
     227   00:42E0  01 00 00            		ld		bc,0
     228   00:42E3  CD 94 44            		call	_vuitpakker 
     229   00:42E6                      		
     230   00:42E6  CD 61 40            		call	setrampage2
     231   00:42E9                      		
     232   00:42E9  11 00 00            		ld		de,0
     233   00:42EC  4B                  		ld		c,e
     234   00:42ED  CD 96 46            		call	_vdpsetvramrd
     235   00:42F0  21 00 80            		ld		hl,_levelmap
     236   00:42F3  11 00 40            		ld		de,mapWidth*mapHeight*2
     237   00:42F6  0E 98               		ld		c,0x98
     238   00:42F8  ED A2               1:		ini
     239   00:42FA  1B                  		dec	de
     240   00:42FB  7A                  		ld	a,d
     241   00:42FC  B3                  		or	e
     242   00:42FD  20 F9               		jr	nz,1b
     243   00:42FF                      
     244   00:42FF  CD 5B 40            		call	setrompage2
     245   00:4302                      				
     246   00:4302                      		; unpack frame
     247   00:4302  3E 02               		ld		a, :_frame
     248   00:4304                      		setpage_a
     248   00:4304  32 00 90          >   ld (_kBank3),a
     248   00:4307  3C                >   inc a
     248   00:4308  32 00 B0          >   ld (_kBank4),a
     249   00:430B                      		
     250   00:430B  AF                  		xor	a
     251   00:430C  32 9D D4            		ld		(_vbit16 ),a
     252   00:430F  11 00 80            		ld		de,	_frame
     253   00:4312  01 00 00            		ld		bc,0
     254   00:4315  CD 94 44            		call	_vuitpakker 
     255   00:4318                      
     256   00:4318  1E 01               		ld		e,1
     257   00:431A  CD B0 46                    call	_setpage
     258   00:431D                      
     259   00:431D  11 00 80            		ld		de,	_frame
     260   00:4320  01 00 80            		ld		bc,0x8000
     261   00:4323  CD 94 44            		call	_vuitpakker 
     262   00:4326                      		
     263   00:4326                      		; unpack mc frames
     264   00:4326  3E 02               		ld		a, :_mc_sprites
     265   00:4328                      		setpage_a
     265   00:4328  32 00 90          >   ld (_kBank3),a
     265   00:432B  3C                >   inc a
     265   00:432C  32 00 B0          >   ld (_kBank4),a
     266   00:432F                      		
     267   00:432F  AF                  		xor	a
     268   00:4330  32 9D D4            		ld		(_vbit16 ),a
     269   00:4333  11 51 89            		ld		de,	_mc_sprites
     270   00:4336  01 00 E0            		ld		bc,192*128+256*128
     271   00:4339  CD 94 44            		call	_vuitpakker 
     272   00:433C                      				
     273   00:433C  1E 02               		ld		e,2
     274   00:433E  CD B0 46                    call	_setpage
     275   00:4341                      
     276   00:4341                      		; unpack tileset
     277   00:4341  3E 04               		ld		a, :_tiles0
     278   00:4343                      		setpage_a
     278   00:4343  32 00 90          >   ld (_kBank3),a
     278   00:4346  3C                >   inc a
     278   00:4347  32 00 B0          >   ld (_kBank4),a
     279   00:434A                      		
     280   00:434A  3E 01               		ld		a,1
     281   00:434C  32 9D D4            		ld		(_vbit16 ),a
     282   00:434F  11 00 80            		ld		de,	_tiles0
     283   00:4352  01 00 00            		ld		bc,0
     284   00:4355  CD 94 44            		call	_vuitpakker 
     285   00:4358                      		
     286   00:4358  1E 03               		ld		e,3
     287   00:435A  CD B0 46                    call	_setpage
     288   00:435D                      		
     289   00:435D  3E 06               		ld		a, :_tiles1
     290   00:435F                      		setpage_a
     290   00:435F  32 00 90          >   ld (_kBank3),a
     290   00:4362  3C                >   inc a
     290   00:4363  32 00 B0          >   ld (_kBank4),a
     291   00:4366                      		
     292   00:4366  3E 01               		ld		a,1
     293   00:4368  32 9D D4            		ld		(_vbit16 ),a
     294   00:436B  11 00 80            		ld		de,	_tiles1
     295   00:436E  01 00 80            		ld		bc,0x8000
     296   00:4371  CD 94 44            		call	_vuitpakker 
     297   00:4374                      		
     298   00:4374  F3                  		di
     299   00:4375  3E 0D               		ld	a,:int_sprites
     300   00:4377  32 00 70            		ld	(_kBank2),a
     301   00:437A  CD 00 74            		call	int_sprites
     302   00:437D  3E 01               		ld	a,1
     303   00:437F  32 00 70            		ld	(_kBank2),a
     304   00:4382  FB                  		ei
     305   00:4383                      		
     306   00:4383                      		; main init
     307   00:4383                      		
     308   00:4383  CD 9E 65            		call	init_hero
     309   00:4386  CD 61 40            		call	setrampage2
     310   00:4389  FB                  		ei
     311   00:438A                      
     312   00:438A  3E C3               		LD	A,0xC3
     313   00:438C  21 0E 44            		LD	HL,_isr
     314   00:438F  F3                  		DI
     315   00:4390  32 9F FD            		LD	(0xFD9F),A
     316   00:4393  22 A0 FD            		LD	(0xFDA0),HL
     317   00:4396  FB                  		EI
     318   00:4397                      		
     319   00:4397  21 00 00            		ld		hl,0
     320   00:439A  7C                  		ld		a,h
     321   00:439B  32 9F D4            		ld		(_ymappos),a
     322   00:439E  22 A0 D4            		ld		(_xmappos),hl
     323   00:43A1                      		
     324   00:43A1  22 9B D4            		ld		(_nframes),hl
     325   00:43A4  32 A4 D4            		ld		(_currentpage),a
     326   00:43A7  22 82 D4            		ld		(_mcdx),hl
     327   00:43AA  32 80 D4            		ld		(_mcframe),a
     328   00:43AD                      main_loop:
     329   00:43AD  AF                  		xor		a
     330   00:43AE  32 88 D4            		ld		(_ticxframe),a
     331   00:43B1                      
     332   00:43B1  3A A4 D4            		ld		a,(_currentpage)
     333   00:43B4  EE 01               		xor		1
     334   00:43B6  32 A4 D4            		ld		(_currentpage),a
     335   00:43B9  EE 01               		xor		1
     336   00:43BB  5F                  		ld		e,a
     337   00:43BC  76                  		halt
     338   00:43BD  CD B0 46                    call	_setpage
     339   00:43C0  CB 43               		bit		0,e
     340   00:43C2  21 A5 DA            		ld		hl,_shadow1
     341   00:43C5  20 03               		jr		nz,1f
     342   00:43C7  21 A5 D4            		ld		hl,_shadow0
     343   00:43CA  22 A2 D4            1:		ld		(_shadowbuff),hl
     344   00:43CD                      
     345   00:43CD  F3                  		di
     346   00:43CE  3E 0D               		ld		a,:save_background
     347   00:43D0  32 00 70            		ld		(_kBank2),a
     348   00:43D3  CD 24 75            		call 	save_background
     349   00:43D6  CD 5A 75            		call 	plot_sprite
     350   00:43D9  3E 01               		ld		a,1
     351   00:43DB  32 00 70            		ld		(_kBank2),a
     352   00:43DE  FB                  		ei
     353   00:43DF                      		
     354   00:43DF  CD A6 41            		call	plot_frame
     355   00:43E2                      		
     356   00:43E2  CD BA 65            		call	plot_hero
     357   00:43E5                      		
     358   00:43E5  F3                  		di
     359   00:43E6  3E 0D               		ld		a,:restore_background
     360   00:43E8  32 00 70            		ld		(_kBank2),a
     361   00:43EB  CD 80 75            		call 	restore_background
     362   00:43EE  CD 72 74            		call	move_sprites
     363   00:43F1  3E 01               		ld		a,1
     364   00:43F3  32 00 70            		ld		(_kBank2),a
     365   00:43F6  FB                  		ei
     366   00:43F7                      		
     367   00:43F7  CD 50 47            		call	_compute_fps
     368   00:43FA  CD 2E 47            		call	_print_fps
     369   00:43FD  CD DE 46            		call	_print_probe
     370   00:4400                      		
     371   00:4400  2A 9B D4            		ld		hl,(_nframes)
     372   00:4403  23                  		inc		hl
     373   00:4404  22 9B D4            		ld		(_nframes),hl
     374   00:4407                      
     375   00:4407  CD E4 64            		call	manage_hero
     376   00:440A                      
     377   00:440A  C3 AD 43            		jp      main_loop
     378   00:440D                      
     379   00:440D  C9                          ret
     380   00:440E                      
     381   00:440E                      
     382   00:440E                      ;-------------------------------------
     383   00:440E  (00:FC9E)           JIFFY: equ 0xFC9E 
     384   00:440E                      ;-------------------------------------
     385   00:440E                      _isr:	
     386   00:440E  CD 5B 40            		call	setrompage2
     387   00:4411                      		
     388   00:4411  3E 0E               		ld	a, 14
     389   00:4413                      		setpage_a
     389   00:4413  32 00 90          >   ld (_kBank3),a
     389   00:4416  3C                >   inc a
     389   00:4417  32 00 B0          >   ld (_kBank4),a
     390   00:441A  CD 16 71            		call	replay_route		; first outout data
     391   00:441D                      		
     392   00:441D  3E 0E               		ld	a, 14
     393   00:441F                      		setpage_a
     393   00:441F  32 00 90          >   ld (_kBank3),a
     393   00:4422  3C                >   inc a
     393   00:4423  32 00 B0          >   ld (_kBank4),a
     394   00:4426  CD C9 67            		call	replay_play			; calculate next output		
     395   00:4429  CD 61 40            		call	setrampage2
     396   00:442C  FB                  		ei
     397   00:442D                      
     398   00:442D  2A 9E FC            		ld		hl,(JIFFY)
     399   00:4430                      
     400   00:4430  3A 76 D4            		ld	a,(SEL_NTSC)
     401   00:4433  A7                  		and 	a
     402   00:4434  20 05               		jr		nz,1f
     403   00:4436                      		
     404   00:4436  01 CE FF            		ld		bc,-50			; PAL 
     405   00:4439  18 03               		jr	2f
     406   00:443B                      1:
     407   00:443B  01 C4 FF            		ld		bc,-60			; NTSC
     408   00:443E                      		
     409   00:443E  09                  2:		add		hl,bc
     410   00:443F  21 88 D4            		ld		hl,_ticxframe
     411   00:4442                      		; inc		(hl)
     412   00:4442                      		
     413   00:4442  3E 04               		ld		a,4
     414   00:4444  77                  		ld		(hl),a
     415   00:4445                      		
     416   00:4445  D0                  		ret	nc
     417   00:4446                      		
     418   00:4446  21 00 00            		ld		hl,0
     419   00:4449  22 9E FC            		ld		(JIFFY),hl
     420   00:444C  2A 9B D4            		ld		hl,(_nframes)
     421   00:444F  22 99 D4            		ld		(_fps),hl
     422   00:4452  21 00 00            		ld		hl,0
     423   00:4455  22 9B D4            		ld		(_nframes),hl
     424   00:4458  C9                  		ret
     425   00:4459                      ;-------------------------------------
     426   00:4459                      ;   Power-up routine for 32K ROM
     427   00:4459                      ;   set pages and sub slot
     428   00:4459                      ;-------------------------------------
     429   00:4459                      powerup:
     430   00:4459  CD 10 40                    call    search_slot
     431   00:445C  CD 2F 40                    call    search_slotram
     432   00:445F  C3 5B 40            		jp		setrompage2
     433   00:4462                              
     434   00:4462                      
     435   00:4462                              
     436   00:4462                      ;-------------------------------------
     437   00:4462                      		
     438   00:4462  (00:0099)           vdpport1 equ 0x99
     439   00:4462  (00:009A)           vdpport2 equ 0x9A
     440   00:4462                      
     441   00:4462                      levelcolors:
     442   00:4462  (0020)              	incbin "palette.bin"
     443   00:4482                      
     444   00:4482                      _SetPalet:   
     445   00:4482  F3                  	di
     446   00:4483  AF                  	xor a 			;Set pointer to zero.
     447   00:4484  D3 99               	out (vdpport1),a        
     448   00:4486  3E 90               	ld  a,16 | 010000000B
     449   00:4488  D3 99               	out (vdpport1),a
     450   00:448A                      
     451   00:448A  21 62 44            	ld  hl,levelcolors
     452   00:448D  01 9A 20            	ld bc,vdpport2+32*256
     453   00:4490  ED B3               	otir
     454   00:4492  FB                  	ei
     455   00:4493  C9                  	ret
     456   00:4494                      
     457   00:4494                      ;;;;;;;;;;;;;;;;;;;;;;;;;;;;;;;;;;;;;;;;;
     458   00:4494                      
     459   00:4494                      	include vuitpakker.asm
       1.  00:4494                      
       2.  00:4494                      ;;;;;;;;;;;;;;;;;;;;;;;;;;;;;;;;;;;;;;;;;
       3.  00:4494                      
       4.  00:4494                      
       5.  00:4494                      _vuitpakker:
       6.  00:4494  FD E5                   push iy
       7.  00:4496  DD E5                   push ix
       8.  00:4498                      
       9.  00:4498  CD A0 44                call  1f
      10.  00:449B                      
      11.  00:449B  DD E1                   pop ix
      12.  00:449D  FD E1                   pop iy
      13.  00:449F  C9                      ret
      14.  00:44A0                      
      15.  00:44A0                      1:
      16.  00:44A0                      ; in de input
      17.  00:44A0                      ; in bc VRAM output
      18.  00:44A0                      
      19.  00:44A0  62                      ld h,d
      20.  00:44A1  6B                      ld l,e
      21.  00:44A2  50                      ld d,b
      22.  00:44A3  59                      ld e,c
      23.  00:44A4                      
      24.  00:44A4                      ; pletter v0.5 msx unpacker
      25.  00:44A4                      
      26.  00:44A4                      ;-----------------------------------------------------------
      27.  00:44A4                      ; Pletter 0.5b VRAM Depacker - 64Kb version
      28.  00:44A4                      ; HL = RAM/ROM source ; DE = VRAM destination
      29.  00:44A4                      ;-----------------------------------------------------------
      30.  00:44A4  F3                      di
      31.  00:44A5                      
      32.  00:44A5                      ; VRAM address setup
      33.  00:44A5                      ;    ld  a,e
      34.  00:44A5                      ;    out (0x99),a
      35.  00:44A5                      ;    ld  a,d
      36.  00:44A5                      ;    or  0x40
      37.  00:44A5                      ;    out (0x99),a
      38.  00:44A5  CD 65 45                call setVwrite
      39.  00:44A8                      
      40.  00:44A8                      ; Initialization
      41.  00:44A8  7E                      ld  a,(hl)
      42.  00:44A9  23                      inc hl
      43.  00:44AA  D9                      exx
      44.  00:44AB  11 00 00                ld  de,0
      45.  00:44AE  87                      add a,a
      46.  00:44AF  3C                      inc a
      47.  00:44B0  CB 13                   rl  e
      48.  00:44B2  87                      add a,a
      49.  00:44B3  CB 13                   rl  e
      50.  00:44B5  87                      add a,a
      51.  00:44B6  CB 13                   rl  e
      52.  00:44B8  CB 13                   rl  e
      53.  00:44BA  21 7F 45                ld  hl,__modes
      54.  00:44BD  19                      add hl,de
      55.  00:44BE  5E                      ld  e,(hl)
      56.  00:44BF  DD                      db    0xdd
      57.  00:44C0  6B                      ld  l,e         ; ld ixl,e    
      58.  00:44C1  23                      inc hl
      59.  00:44C2  5E                      ld  e,(hl)
      60.  00:44C3  DD                      db    0xdd
      61.  00:44C4  63                      ld h,e          ; ld  ixh,e
      62.  00:44C5  1E 01                   ld  e,1
      63.  00:44C7  D9                      exx
      64.  00:44C8  FD 21 D1 44             ld  iy,__loop
      65.  00:44CC                      
      66.  00:44CC                      ; Main depack loop
      67.  00:44CC  0E 98               _literal:ld  c,098h
      68.  00:44CE  ED A3                   outi
      69.  00:44D0  13                      inc de
      70.  00:44D1  87                  __loop:   add a,a
      71.  00:44D2  CC 59 45                call    z,_getbit
      72.  00:44D5  30 F5                   jr  nc,_literal
      73.  00:44D7                      
      74.  00:44D7                      ; Compressed data
      75.  00:44D7  D9                      exx
      76.  00:44D8  62                      ld  h,d
      77.  00:44D9  6B                      ld  l,e
      78.  00:44DA  87                  _getlen: add a,a
      79.  00:44DB  CC 5D 45                call    z,_getbitexx
      80.  00:44DE  30 1D                   jr  nc,lenok
      81.  00:44E0  87                  lus:    add a,a
      82.  00:44E1  CC 5D 45                call    z,_getbitexx
      83.  00:44E4  ED 6A                   adc hl,hl
      84.  00:44E6  D8                      ret c
      85.  00:44E7  87                      add a,a
      86.  00:44E8  CC 5D 45                call    z,_getbitexx
      87.  00:44EB  30 10                   jr  nc,lenok
      88.  00:44ED  87                      add a,a
      89.  00:44EE  CC 5D 45                call    z,_getbitexx
      90.  00:44F1  ED 6A                   adc hl,hl
      91.  00:44F3  DA 63 45                jp  c,Depack_out
      92.  00:44F6  87                      add a,a
      93.  00:44F7  CC 5D 45                call    z,_getbitexx
      94.  00:44FA  DA E0 44                jp  c,lus
      95.  00:44FD  23                  lenok:  inc hl
      96.  00:44FE  D9                      exx
      97.  00:44FF  4E                      ld  c,(hl)
      98.  00:4500  23                      inc hl
      99.  00:4501  06 00                   ld  b,0
     100.  00:4503  CB 79                   bit 7,c
     101.  00:4505  CA 38 45                jp  z,offsok
     102.  00:4508  DD E9                   jp  (ix)
     103.  00:450A                      
     104.  00:450A  87                  _mode7:  add a,a
     105.  00:450B  CC 59 45                call    z,_getbit
     106.  00:450E  CB 10                   rl  b
     107.  00:4510  87                  _mode6:  add a,a
     108.  00:4511  CC 59 45                call    z,_getbit
     109.  00:4514  CB 10                   rl  b
     110.  00:4516  87                  _mode5:  add a,a
     111.  00:4517  CC 59 45                call    z,_getbit
     112.  00:451A  CB 10                   rl  b
     113.  00:451C  87                  _mode4:  add a,a
     114.  00:451D  CC 59 45                call    z,_getbit
     115.  00:4520  CB 10                   rl  b
     116.  00:4522  87                  _mode3:  add a,a
     117.  00:4523  CC 59 45                call    z,_getbit
     118.  00:4526  CB 10                   rl  b
     119.  00:4528  87                  _mode2:  add a,a
     120.  00:4529  CC 59 45                call    z,_getbit
     121.  00:452C  CB 10                   rl  b
     122.  00:452E  87                      add a,a
     123.  00:452F  CC 59 45                call    z,_getbit
     124.  00:4532  30 04                   jr  nc,offsok
     125.  00:4534  B7                      or  a
     126.  00:4535  04                      inc b
     127.  00:4536  CB B9                   res 7,c
     128.  00:4538  03                  offsok: inc bc
     129.  00:4539  E5                      push    hl
     130.  00:453A  D9                      exx
     131.  00:453B  E5                      push    hl
     132.  00:453C  D9                      exx
     133.  00:453D  6B                      ld  l,e
     134.  00:453E  62                      ld  h,d
     135.  00:453F  ED 42                   sbc hl,bc
     136.  00:4541  C1                      pop bc
     137.  00:4542  F5                      push    af
     138.  00:4543                      _loop: 
     139.  00:4543                      ;    ld  a,l
     140.  00:4543                      ;    out (0x99),a
     141.  00:4543                      ;    ld  a,h
     142.  00:4543                      ;    out (0x99),a
     143.  00:4543  CD 71 45                call setVread
     144.  00:4546                          
     145.  00:4546  DB 98                   in  a,(0x98)
     146.  00:4548  08                      ex  af,af'
     147.  00:4549                      ;    ld  a,e
     148.  00:4549                      ;    out (0x99),a
     149.  00:4549                      ;    ld  a,d
     150.  00:4549                      ;    or  0x40
     151.  00:4549                      ;    out (0x99),a
     152.  00:4549  CD 65 45                call setVwrite
     153.  00:454C                          
     154.  00:454C  08                      ex  af,af'
     155.  00:454D  D3 98                   out (0x98),a
     156.  00:454F  13                      inc de
     157.  00:4550  ED A1                   cpi
     158.  00:4552  EA 43 45                jp  pe,_loop
     159.  00:4555  F1                      pop af
     160.  00:4556  E1                      pop hl
     161.  00:4557  FD E9                   jp  (iy)
     162.  00:4559                      ;
     163.  00:4559  7E                  _getbit: ld  a,(hl)
     164.  00:455A  23                      inc hl
     165.  00:455B  17                      rla
     166.  00:455C  C9                      ret
     167.  00:455D                      
     168.  00:455D                      _getbitexx:
     169.  00:455D  D9                      exx
     170.  00:455E  7E                      ld  a,(hl)
     171.  00:455F  23                      inc hl
     172.  00:4560  D9                      exx
     173.  00:4561  17                      rla
     174.  00:4562  C9                      ret
     175.  00:4563                      
     176.  00:4563                      ; De-packer exit
     177.  00:4563                      Depack_out:
     178.  00:4563  FB                      ei
     179.  00:4564  C9                      ret
     180.  00:4565                      
     181.  00:4565                      
     182.  00:4565                      
     183.  00:4565                      setVwrite:
     184.  00:4565                      
     185.  00:4565  D5                      push    de
     186.  00:4566  C5                      push    bc
     187.  00:4567  ED 4B 9D D4             ld      bc,(_vbit16)
     188.  00:456B  CD 7C 46                call    _vdpsetvramwr
     189.  00:456E  C1                      pop     bc
     190.  00:456F  D1                      pop     de
     191.  00:4570                      
     192.  00:4570  C9                      ret
     193.  00:4571                      setVread:    
     194.  00:4571                      
     195.  00:4571  D5                      push    de
     196.  00:4572  C5                      push    bc
     197.  00:4573  5D                      ld      e,l
     198.  00:4574  54                      ld      d,h
     199.  00:4575  ED 4B 9D D4             ld      bc,(_vbit16)
     200.  00:4579  CD 96 46                call    _vdpsetvramrd
     201.  00:457C  C1                      pop     bc
     202.  00:457D  D1                      pop     de
     203.  00:457E                      
     204.  00:457E  C9                      ret
     205.  00:457F                      
     206.  00:457F                      __modes:
     207.  00:457F  38 45                   dw  offsok
     208.  00:4581  28 45                   dw  _mode2
     209.  00:4583  22 45                   dw  _mode3
     210.  00:4585  1C 45                   dw  _mode4
     211.  00:4587  16 45                   dw  _mode5
     212.  00:4589  10 45                   dw  _mode6
     213.  00:458B  0A 45                   dw  _mode7
     460   00:458D                      
     461   00:458D                      ;;;;;;;;;;;;;;;;;;;;;;;;;;;;;;;;;;;;;;;;;
     462   00:458D                      
     463   00:458D                      	include plot_tile.asm
       1.  00:458D                      ;;;;;;;;;;;;;;;;;;;;;;;;;;;;;;;;;;;;;;;;;;;
       2.  00:458D                      ; input
       3.  00:458D                      ; hl  configured in window map 32x24 of uints
       4.  00:458D                      ; de  tile to be plot
       5.  00:458D                      ;;;;;;;;;;;;;;;;;;;;;;;;;;;;;;;;;;;;;;;;;;;
       6.  00:458D                      plot_tile:
       7.  00:458D                      							
       8.  00:458D  CB 7A               	bit 	7,d			; test for LMMMM	
       9.  00:458F  C2 CF 45            	jp		nz,plot_trasp_tile
      10.  00:4592                      	
      11.  00:4592  7A                  	ld		a,d
      12.  00:4593  B3                  	or		e
      13.  00:4594  C2 A0 45            	jp		nz,plot_foreground
      14.  00:4597                      
      15.  00:4597                      ;;;;;;;;;;;;;;;;;;;;;;;;;;;;;;;;;;;;;;;;;;;
      16.  00:4597                      ; input
      17.  00:4597                      ; hl  configured in window map 32x24
      18.  00:4597                      ;;;;;;;;;;;;;;;;;;;;;;;;;;;;;;;;;;;;;;;;;;;
      19.  00:4597                      
      20.  00:4597                      ; plot_background:
      21.  00:4597                      
      22.  00:4597  E5                  	push	hl
      23.  00:4598  11 7E 5F            	ld		de,_backmap-32*4-2
      24.  00:459B  19                  	add		hl,de
      25.  00:459C  5E                  	ld		e,(hl)
      26.  00:459D  23                  	inc		hl
      27.  00:459E  56                  	ld		d,(hl)
      28.  00:459F  E1                  	pop		hl
      29.  00:45A0                      	
      30.  00:45A0                      	
      31.  00:45A0                      plot_foreground:
      32.  00:45A0                      
      33.  00:45A0  (00:0001)           counter:=1
      34.  00:45A0                      	while counter<NSolidColors
      35.  00:45A0                    < 	ld	a,low SolidTile@#
      36.  00:45A0                    < 	cp	e
      37.  00:45A0                    < 	jr	nz,1f
      38.  00:45A0                    < 	ld	a,high SolidTile@#
      39.  00:45A0                    < 	cp	d
      40.  00:45A0                    < 	ld	a,17*SolidColor@#		; solid color1
      41.  00:45A0                    < 	jp	z,plot_solid_box
      42.  00:45A0                    < 1:	
      43.  00:45A0                    < counter:=counter+1
      44.  00:45A0                    < 	endwhile	
      44.  00:45A0  3E 00 BB 20 08 3E 00 BA 3E 00 CA 34 46 3E 2B BB 
      44.  00:45B0  20 08 3E 00 BA 3E 11 CA 34 46 3E 15 BB 20 08 3E 
      44.  00:45C0  05 BA 3E 77 CA 34 46 
      45.  00:45C7                      
      46.  00:45C7  CD E7 45            	call 	vdp_conf
      47.  00:45CA                      
      48.  00:45CA  3E D0               	ld		a,11010000B
      49.  00:45CC  D3 9B               	out 	(0x9B), a		; command HMMM
      50.  00:45CE  C9                  	ret
      51.  00:45CF                      
      52.  00:45CF                      	
      53.  00:45CF                      	
      54.  00:45CF                      ;;;;;;;;;;;;;;;;;;;;;;;;;;;;;;;;;;;;;;;;;;;
      55.  00:45CF                      ; input
      56.  00:45CF                      ; hl   configured in window map 32x24
      57.  00:45CF                      ; de  tile to be plot
      58.  00:45CF                      ;;;;;;;;;;;;;;;;;;;;;;;;;;;;;;;;;;;;;;;;;;;
      59.  00:45CF                      
      60.  00:45CF                      plot_trasp_tile:
      61.  00:45CF                      
      62.  00:45CF  D5                  	push	de
      63.  00:45D0  E5                  	push	hl
      64.  00:45D1                      					;	plot_background
      65.  00:45D1  11 7E 5F            	ld		de,_backmap-32*4-2
      66.  00:45D4  19                  	add		hl,de
      67.  00:45D5  5E                  	ld		e,(hl)
      68.  00:45D6  23                  	inc		hl
      69.  00:45D7  56                  	ld		d,(hl)
      70.  00:45D8                      
      71.  00:45D8  E1                  	pop		hl
      72.  00:45D9  E5                  	push	hl
      73.  00:45DA  CD A0 45            	call	plot_foreground
      74.  00:45DD  E1                  	pop		hl
      75.  00:45DE  D1                  	pop		de
      76.  00:45DF                      
      77.  00:45DF  CD E7 45            	call	vdp_conf
      78.  00:45E2                      
      79.  00:45E2  3E 98               	ld		a,10011000B
      80.  00:45E4  D3 9B               	out 	(0x9B), a		; command LMMM
      81.  00:45E6  C9                  	ret
      82.  00:45E7                      
      83.  00:45E7                      ;;;;;;;;;;;;;;;;;;;;;;;;;;;;;;;;;;;;;;;;;;;
      84.  00:45E7                      ; input
      85.  00:45E7                      ; hl   configured in window map 32x24
      86.  00:45E7                      ; de  tile to be plot
      87.  00:45E7                      ;;;;;;;;;;;;;;;;;;;;;;;;;;;;;;;;;;;;;;;;;;;
      88.  00:45E7                      
      89.  00:45E7                      vdp_conf:	
      90.  00:45E7                      	
      91.  00:45E7  29 29               [2]	add		hl,hl
      92.  00:45E9  4D                  	ld		c,l			; C = dx*8
      93.  00:45EA  7C                  	ld		a,h
      94.  00:45EB  87 87 87            [3]	add		a,a
      95.  00:45EE  47                  	ld		b,a			; B = dy*8
      96.  00:45EF  C5                  	push	bc			; dx*8 and dy*8 on the stack
      97.  00:45F0                      	
      98.  00:45F0                      	; de has the 16 bit tile
      99.  00:45F0                      	; de = 10 bits = 5 bits for y and 5 bits for x
     100.  00:45F0                      
     101.  00:45F0  EB                  	ex		de,hl
     102.  00:45F1  29 29 29            [3]	add		hl,hl
     103.  00:45F4                      	
     104.  00:45F4                      	; now l is sx*8 and h is sy
     105.  00:45F4                      		
     106.  00:45F4  7C                  	ld		a,h
     107.  00:45F5  87 87 87            [3]	add		a,a
     108.  00:45F8  67                  	ld		h,a
     109.  00:45F9  F5                  	push	af
     110.  00:45FA                      	
     111.  00:45FA                      	; now h is sy*8
     112.  00:45FA  F3                  	di
     113.  00:45FB  3E 20               	ld 		a, 32
     114.  00:45FD  D3 99               	out 	(0x99),a
     115.  00:45FF  3E 91               	ld 		a, 17+128
     116.  00:4601  D3 99               	out 	(0x99),a
     117.  00:4603  FB                  	ei
     118.  00:4604                      
     119.  00:4604  0E 9B               	ld 		c, 0x9B
     120.  00:4606                      	
     121.  00:4606  CD C6 46            	call _waitvdp;
     122.  00:4609                      	
     123.  00:4609  ED 69               	out		(c), l 		; sx
     124.  00:460B  AF                  	xor a
     125.  00:460C  D3 9B               	out		(0x9B), a 	; sx (high)
     126.  00:460E                      	
     127.  00:460E  ED 61               	out		(c), h 		; sy
     128.  00:4610  F1                  	pop		af
     129.  00:4611  3E 02               	ld		a,2			; source page for tiles 32x32=1024 tiles
     130.  00:4613  CE 00               	adc		a,0
     131.  00:4615  D3 9B               	out 	(0x9B), a 	; sy (high-> page 2)
     132.  00:4617                      
     133.  00:4617  E1                  	pop		hl			; recover dx*8,dy*8
     134.  00:4618                      	
     135.  00:4618  ED 69               	out 	(c), l 		; dx
     136.  00:461A  AF                  	xor a
     137.  00:461B  D3 9B               	out 	(0x9B), a	; dx (high)
     138.  00:461D  ED 61               	out 	(c), h 		; dy
     139.  00:461F  3A A4 D4            	ld 		a,(_currentpage)	; destination page
     140.  00:4622  D3 9B               	out 	(0x9B), a	; dy (high-> page 0 or 1)
     141.  00:4624                      
     142.  00:4624  2E 08               	ld 		l,8 		; block size
     143.  00:4626                      
     144.  00:4626  ED 69               	out 	(c), l
     145.  00:4628  AF                  	xor a
     146.  00:4629  D3 9B               	out 	(0x9B), a
     147.  00:462B  ED 69               	out 	(c), l
     148.  00:462D  D3 9B               	out 	(0x9B), a
     149.  00:462F  D3 9B               	out 	(0x9B), a
     150.  00:4631  D3 9B               	out 	(0x9B), a
     151.  00:4633  C9                  	ret
     152.  00:4634                      
     153.  00:4634                      ;;;;;;;;;;;;;;;;;;;;;;;;;;;;;;;;;;;;;;;;;;;
     154.  00:4634                      ; input
     155.  00:4634                      ; hl configured in window map 32x24
     156.  00:4634                      ;  a color
     157.  00:4634                      ;;;;;;;;;;;;;;;;;;;;;;;;;;;;;;;;;;;;;;;;;;;
     158.  00:4634                      
     159.  00:4634                      plot_solid_box:
     160.  00:4634  5F                  	ld		e,a		; solid color
     161.  00:4635                      
     162.  00:4635  29 29               [2]	add		hl,hl
     163.  00:4637  4D                  	ld		c,l			; C = dx*8
     164.  00:4638  7C                  	ld		a,h
     165.  00:4639  87 87 87            [3]	add		a,a
     166.  00:463C  47                  	ld		b,a			; B = dy*8
     167.  00:463D  C5                  	push	bc			; dx*8 and dy*8 on the stack
     168.  00:463E                      
     169.  00:463E  F3                  	di
     170.  00:463F  3E 24               	ld 		a, 36
     171.  00:4641  D3 99               	out 	(0x99),a
     172.  00:4643  3E 91               	ld 		a, 17+128
     173.  00:4645  D3 99               	out 	(0x99),a
     174.  00:4647  FB                  	ei
     175.  00:4648                      
     176.  00:4648  0E 9B               	ld 		c, 0x9B
     177.  00:464A                      	
     178.  00:464A  CD C6 46            	call _waitvdp;
     179.  00:464D  E1                  	pop		hl			; recover dx*8,dy*8
     180.  00:464E                      	
     181.  00:464E  ED 69               	out 	(c), l 		; dx
     182.  00:4650  AF                  	xor a
     183.  00:4651  D3 9B               	out 	(0x9B), a	; dx (high)
     184.  00:4653  ED 61               	out 	(c), h 		; dy
     185.  00:4655  3A A4 D4            	ld 		a,(_currentpage)	; destination page
     186.  00:4658  D3 9B               	out 	(0x9B), a	; dy (high-> page 0 or 1)
     187.  00:465A                      
     188.  00:465A  2E 08               	ld 		l,8 		; block size
     189.  00:465C                      
     190.  00:465C  ED 69               	out 	(c), l
     191.  00:465E  AF                  	xor a
     192.  00:465F  D3 9B               	out 	(0x9B), a
     193.  00:4661  ED 69               	out 	(c), l
     194.  00:4663  D3 9B               	out 	(0x9B), a
     195.  00:4665  ED 59               	out 	(c), e
     196.  00:4667  D3 9B               	out 	(0x9B), a
     197.  00:4669  2E C0               	ld		l,11000000B	; command HMMV
     198.  00:466B  ED 69               	out 	(c), l
     199.  00:466D  C9                  	ret
     464   00:466E                      
     465   00:466E                      ;;;;;;;;;;;;;;;;;;;;;;;;;;;;;;;;;;;;;;;;;
     466   00:466E                      
     467   00:466E                      _clean_buffs:
     468   00:466E  01 3F 0C            	ld	bc,2*WinWidth*WinWidth*2-1
     469   00:4671  21 A5 D4            	ld	hl,_shadow0
     470   00:4674  36 FF               	ld	(hl),-1
     471   00:4676  11 A6 D4            	ld	de,_shadow0+1
     472   00:4679  ED B0               	ldir
     473   00:467B  C9                  	ret
     474   00:467C                      	
     475   00:467C                      ;Set VDP for writing at address CDE (17-bit) 
     476   00:467C                      
     477   00:467C                      _vdpsetvramwr:
     478   00:467C  79                  	ld a,c
     479   00:467D                      ;Set VDP for writing at address ADE (17-bit) ;
     480   00:467D  CB 02               	rlc d
     481   00:467F  17                  	rla
     482   00:4680  CB 02               	rlc d
     483   00:4682  17                  	rla
     484   00:4683  CB 3A               	srl d ; primo shift, il secondo dopo la out
     485   00:4685                      
     486   00:4685  D3 99               	out (0x99),a ;set bits 14-16
     487   00:4687  3E 8E               	ld a,14+128
     488   00:4689  D3 99               	out (0x99),a
     489   00:468B                      
     490   00:468B  CB 3A               	srl d ; secondo shift.            
     491   00:468D  7B                  	ld a,e ;set bits 0-7
     492   00:468E  D3 99               	out (0x99),a
     493   00:4690  7A                  	ld a,d ;set bits 8-13
     494   00:4691  F6 40               	or 0x40 ; + write access
     495   00:4693  D3 99               	out (0x99),a
     496   00:4695  C9                  	ret
     497   00:4696                      	
     498   00:4696                      ;Set VDP port #98 to start reading at address CDE (17-bit) ;
     499   00:4696                      
     500   00:4696                      _vdpsetvramrd:
     501   00:4696  79                  	ld a,c
     502   00:4697                      ;Set VDP port #98 to start reading at address ADE (17-bit) ;
     503   00:4697  CB 02               	rlc d
     504   00:4699  17                  	rla
     505   00:469A  CB 02               	rlc d
     506   00:469C  17                  	rla
     507   00:469D  CB 3A               	srl d ; primo shift, il secondo dopo la out
     508   00:469F                      
     509   00:469F  D3 99               	out (0x99),a ;set bits 14-16
     510   00:46A1  3E 8E               	ld a,14+128
     511   00:46A3  D3 99               	out (0x99),a
     512   00:46A5                      
     513   00:46A5  CB 3A               	srl d ; secondo shift.            
     514   00:46A7  7B                  	ld a,e ;set bits 0-7
     515   00:46A8  D3 99               	out (0x99),a
     516   00:46AA  7A                  	ld a,d ;set bits 8-13
     517   00:46AB  E6 3F               	and 0x3F
     518   00:46AD  D3 99               	out (0x99),a
     519   00:46AF  C9                  	ret
     520   00:46B0                      
     521   00:46B0                      ;Display page E in screen 5
     522   00:46B0                      _setpage:
     523   00:46B0  7B                  	ld a,e
     524   00:46B1  87                  	add a,a ;x32
     525   00:46B2  87                  	add a,a
     526   00:46B3  87                  	add a,a
     527   00:46B4  87                  	add a,a
     528   00:46B5  87                  	add a,a
     529   00:46B6  C6 1F               	add a,31
     530   00:46B8  F3                  	di
     531   00:46B9  D3 99               	out (0x99),a
     532   00:46BB  3E 82               	ld a,2+128
     533   00:46BD  D3 99               	out (0x99),a
     534   00:46BF  FB                  	ei            
     535   00:46C0  C9                  	ret
     536   00:46C1                      
     537   00:46C1  (00:005F)           chgmod        equ     0x005f      ;change graphic mode
     538   00:46C1  (00:000C)           RDSLT         equ     0x000c      ;read address HL in slot A
     539   00:46C1  (00:0156)           KILBUF        equ     0x0156      ;clear keyboard buffer
     540   00:46C1                      
     541   00:46C1                      _scr:
     542   00:46C1  7B                  	ld  a,e
     543   00:46C2  CD 5F 00            	call	chgmod
     544   00:46C5  C9                  	ret
     545   00:46C6                      
     546   00:46C6                      
     547   00:46C6                      _waitvdp:
     548   00:46C6  F3                  	di
     549   00:46C7  3E 02               	ld a,2
     550   00:46C9  D3 99               	out (0x99),a
     551   00:46CB  3E 8F               	ld a, 0x8f
     552   00:46CD  D3 99               	out (0x99),a
     553   00:46CF                      
     554   00:46CF  DB 99               1:  in a,(0x99)
     555   00:46D1  0F                  	rrca
     556   00:46D2  DA CF 46            	jp c, 1b
     557   00:46D5                      
     558   00:46D5  AF                  	xor a
     559   00:46D6  D3 99               	out (0x99),a
     560   00:46D8  3E 8F               	ld a, 0x8f
     561   00:46DA  D3 99               	out (0x99),a
     562   00:46DC  FB                  	ei
     563   00:46DD  C9                  	ret
     564   00:46DE                      
     565   00:46DE                      _print_probe
     566   00:46DE  3A 87 D4            	ld	a,(_mcprobeb)
     567   00:46E1  5F                  	ld	e,a
     568   00:46E2  16 00               	ld	d,0
     569   00:46E4  21 C0 07            	ld	hl,32*(64-2)
     570   00:46E7  19                  	add	hl,de
     571   00:46E8  EB                  	ex	de,hl
     572   00:46E9  21 C0 05            	ld	hl,2*(23*32+0)
     573   00:46EC  CD A0 45            	call 	plot_foreground
     574   00:46EF                      	
     575   00:46EF  ED 5B 88 D4         	ld	de,(_ticxframe)
     576   00:46F3  16 00               	ld	d,0
     577   00:46F5  01 89 D4            	ld	bc,_buffer
     578   00:46F8  CD 57 47            	call	int2ascii
     579   00:46FB                      	
     580   00:46FB  3A 8B D4            	ld	a,(_buffer+2)
     581   00:46FE  5F                  	ld	e,a
     582   00:46FF  16 00               	ld	d,0
     583   00:4701  21 90 07            	ld	hl,32*(64-2)-'0'
     584   00:4704  19                  	add	hl,de
     585   00:4705  EB                  	ex	de,hl
     586   00:4706  21 80 05            	ld	hl,2*(22*32)
     587   00:4709  CD A0 45            	call 	plot_foreground
     588   00:470C                      
     589   00:470C  3A 8C D4            	ld	a,(_buffer+3)
     590   00:470F  5F                  	ld	e,a
     591   00:4710  16 00               	ld	d,0
     592   00:4712  21 90 07            	ld	hl,32*(64-2)-'0'
     593   00:4715  19                  	add	hl,de
     594   00:4716  EB                  	ex	de,hl
     595   00:4717  21 82 05            	ld	hl,2*(22*32+1)
     596   00:471A  CD A0 45            	call 	plot_foreground
     597   00:471D                      
     598   00:471D  3A 8D D4            	ld	a,(_buffer+4)
     599   00:4720  5F                  	ld	e,a
     600   00:4721  16 00               	ld	d,0
     601   00:4723  21 90 07            	ld	hl,32*(64-2)-'0'
     602   00:4726  19                  	add	hl,de
     603   00:4727  EB                  	ex	de,hl
     604   00:4728  21 84 05            	ld	hl,2*(22*32+2)
     605   00:472B  C3 A0 45            	jp 	plot_foreground
     606   00:472E                      	
     607   00:472E                      	
     608   00:472E                      _print_fps:
     609   00:472E  3A 8C D4            	ld	a,(_buffer+3)
     610   00:4731  5F                  	ld	e,a
     611   00:4732  16 00               	ld	d,0
     612   00:4734  21 90 07            	ld	hl,32*(64-2)-'0'
     613   00:4737  19                  	add	hl,de
     614   00:4738  EB                  	ex	de,hl
     615   00:4739                      	
     616   00:4739  21 FC 05            	ld	hl,2*(23*32+30)
     617   00:473C  CD A0 45            	call 	plot_foreground
     618   00:473F                      
     619   00:473F  3A 8D D4            	ld	a,(_buffer+4)
     620   00:4742  5F                  	ld	e,a
     621   00:4743  16 00               	ld	d,0
     622   00:4745  21 90 07            	ld	hl,32*(64-2)-'0'
     623   00:4748  19                  	add	hl,de
     624   00:4749  EB                  	ex	de,hl
     625   00:474A                      	
     626   00:474A  21 FE 05            	ld	hl,2*(23*32+31)
     627   00:474D  C3 A0 45            	jp 	plot_foreground
     628   00:4750                      	
     629   00:4750                      
     630   00:4750                      ;-------------------------------------
     631   00:4750                      _compute_fps:
     632   00:4750  ED 5B 99 D4         	ld	de,(_fps)
     633   00:4754  01 89 D4            	ld	bc,_buffer
     634   00:4757                      
     635   00:4757                      int2ascii:
     636   00:4757                      	
     637   00:4757                      ; in de input 
     638   00:4757                      ; in bc output
     639   00:4757                      
     640   00:4757  EB                  	ex  de,hl
     641   00:4758  59                  	ld  e,c
     642   00:4759  50                  	ld  d,b
     643   00:475A                      
     644   00:475A                      Num2asc:
     645   00:475A  01 F0 D8            	ld  bc,-10000
     646   00:475D  CD 73 47            	call    Num1
     647   00:4760  01 18 FC            	ld  bc,-1000
     648   00:4763  CD 73 47            	call    Num1
     649   00:4766  01 9C FF            	ld  bc,-100
     650   00:4769  CD 73 47            	call    Num1
     651   00:476C  0E F6               	ld  c,-10
     652   00:476E  CD 73 47            	call    Num1
     653   00:4771  0E FF               	ld  c,-1
     654   00:4773                      
     655   00:4773                      Num1:   
     656   00:4773  3E 2F               	ld  a,'0'-1  ; '0' in the tileset
     657   00:4775                      
     658   00:4775                      Num2:   
     659   00:4775  3C                  	inc a
     660   00:4776  09                  	add hl,bc
     661   00:4777  38 FC               	jr  c,Num2
     662   00:4779  ED 42               	sbc hl,bc
     663   00:477B                      
     664   00:477B  12                  	ld  (de),a
     665   00:477C  13                  	inc de
     666   00:477D  C9                  	ret
     667   00:477E                      	
     668   00:477E                      	
     669   00:477E                      	include enemies.asm
       1.  00:477E                      
       2.  00:477E  (00:0003)           nenemies 	equ	3
       3.  00:477E  (00:0003)           _nenemies 	equ	3
       4.  00:477E  (00:0080)           sprite_size	equ	8*8*2
       5.  00:477E                      
       6.  00:477E                      		struct enemy
       7.  00:477E                    < type 	db
       8.  00:477E                    < state 	db
       9.  00:477E                    < frame 	db
      10.  00:477E                    < x		dw	
      11.  00:477E                    < y		dw
      12.  00:477E                    < mappos	dw
      13.  00:477E                    < dx		dw
      14.  00:477E                    < dy		dw
      15.  00:477E                    < nx		db
      16.  00:477E                    < ny		db
      17.  00:477E                    < buf		ds	sprite_size
      18.  00:477E                    < 	endstruct
      19.  00:477E                      
      20.  00:477E  (0D)                	page 13
      21.  0D:6000                      frames:
      22.  0D:6000  (1400)              	incbin smetaframes.bin
      23.  0D:7400                      
      24.  0D:7400                      int_sprites
      25.  0D:7400  DD 21 C7 D2         	ld	ix,enemylist
      26.  0D:7404                      ; enemy 0
      27.  0D:7404  DD 36 0D 07         	ld	(ix+enemy.nx),7
      28.  0D:7408  DD 36 0E 05         	ld	(ix+enemy.ny),5
      29.  0D:740C                      	
      30.  0D:740C  DD 36 00 00         	ld	(ix+enemy.type),0
      31.  0D:7410  DD 36 01 00         	ld	(ix+enemy.state),0
      32.  0D:7414  DD 36 02 00         	ld	(ix+enemy.frame),0
      33.  0D:7418  DD 36 0B 28         	ld	(ix+enemy.dy),40
      34.  0D:741C                      	
      35.  0D:741C  01 04 86            	ld	bc,_levelmap+(2+mapWidth*3)*2
      36.  0D:741F  DD 71 07            	ld	(ix+enemy.mappos),c
      37.  0D:7422  DD 70 08            	ld	(ix+enemy.mappos+1),b
      38.  0D:7425                      
      39.  0D:7425                      ; enemy 1	
      40.  0D:7425  01 8F 00            	ld	bc,enemy
      41.  0D:7428  DD 09               	add	ix,bc
      42.  0D:742A  DD 36 0D 07         	ld	(ix+enemy.nx),7
      43.  0D:742E  DD 36 0E 05         	ld	(ix+enemy.ny),5
      44.  0D:7432                      	
      45.  0D:7432  DD 36 00 00         	ld	(ix+enemy.type),0
      46.  0D:7436  DD 36 01 00         	ld	(ix+enemy.state),0
      47.  0D:743A  DD 36 02 00         	ld	(ix+enemy.frame),0
      48.  0D:743E  DD 36 0B 4E         	ld	(ix+enemy.dy),78
      49.  0D:7442                      	
      50.  0D:7442  01 1E 82            	ld	bc,_levelmap+(15+mapWidth*1)*2
      51.  0D:7445  DD 71 07            	ld	(ix+enemy.mappos),c
      52.  0D:7448  DD 70 08            	ld	(ix+enemy.mappos+1),b
      53.  0D:744B                      	
      54.  0D:744B                      ; enemy 2
      55.  0D:744B  01 8F 00            	ld	bc,enemy
      56.  0D:744E  DD 09               	add	ix,bc
      57.  0D:7450  DD 36 0D 07         	ld	(ix+enemy.nx),7
      58.  0D:7454  DD 36 0E 05         	ld	(ix+enemy.ny),5
      59.  0D:7458                      	
      60.  0D:7458  DD 36 00 01         	ld	(ix+enemy.type),1
      61.  0D:745C  DD 36 01 00         	ld	(ix+enemy.state),0
      62.  0D:7460  DD 36 02 17         	ld	(ix+enemy.frame),23
      63.  0D:7464  DD 36 0B 00         	ld	(ix+enemy.dy),0
      64.  0D:7468                      	
      65.  0D:7468  01 06 96            	ld	bc,_levelmap+(3+mapWidth*11)*2
      66.  0D:746B  DD 71 07            	ld	(ix+enemy.mappos),c
      67.  0D:746E  DD 70 08            	ld	(ix+enemy.mappos+1),b
      68.  0D:7471                      	
      69.  0D:7471  C9                  	ret
      70.  0D:7472                      
      71.  0D:7472                      move_sprites:
      72.  0D:7472  DD 21 C7 D2         	ld	ix,enemylist
      73.  0D:7476  06 03               	ld	b,_nenemies
      74.  0D:7478  C5                  2:	push	bc
      75.  0D:7479  DD 7E 00            	ld	a,(ix+enemy.type)
      76.  0D:747C  A7                  	and	a
      77.  0D:747D  20 06               	jr	nz,1f
      78.  0D:747F  CD A7 74            	call	sp_type_0
      79.  0D:7482  C3 8E 74            	jp	.nextsp
      80.  0D:7485                      1:
      81.  0D:7485  3D                  	dec	a
      82.  0D:7486  20 06               	jr	nz,1f
      83.  0D:7488  CD 97 74            	call	sp_type_1
      84.  0D:748B  C3 8E 74            	jp	.nextsp
      85.  0D:748E                      1:
      86.  0D:748E                      .nextsp
      87.  0D:748E  01 8F 00            	ld	bc,enemy
      88.  0D:7491  DD 09               	add	ix,bc
      89.  0D:7493  C1                  	pop		bc
      90.  0D:7494  10 E2               	djnz	2b
      91.  0D:7496  C9                  	ret
      92.  0D:7497                      		
      93.  0D:7497                      	
      94.  0D:7497                      sp_type_1:
      95.  0D:7497  DD 7E 02            	ld	a,(ix+enemy.frame)
      96.  0D:749A  3C                  	inc	a
      97.  0D:749B  FE 1B               	cp	27
      98.  0D:749D  DD 77 02            	ld	(ix+enemy.frame),a
      99.  0D:74A0  C0                  	ret	nz
     100.  0D:74A1  3E 17               	ld	a,23
     101.  0D:74A3  DD 77 02            	ld	(ix+enemy.frame),a
     102.  0D:74A6  C9                  	ret
     103.  0D:74A7                      
     104.  0D:74A7                      sp_type_0:
     105.  0D:74A7  DD 7E 01            	ld	a,(ix+enemy.state)
     106.  0D:74AA  A7                  	and	a
     107.  0D:74AB  28 3C               	jr	z,move_sprite_right
     108.  0D:74AD                      	
     109.  0D:74AD                      move_sprite_left:
     110.  0D:74AD  CD D9 74            	call	animate1
     111.  0D:74B0  DD 7E 09            	ld	a,(ix+enemy.dx)
     112.  0D:74B3  3D                  	dec	a
     113.  0D:74B4  E6 03               	and	3
     114.  0D:74B6  DD 77 09            	ld	(ix+enemy.dx),a
     115.  0D:74B9  C0                  	ret	nz
     116.  0D:74BA                      	
     117.  0D:74BA  DD 6E 07            	ld	l,(ix+enemy.mappos)
     118.  0D:74BD  DD 66 08            	ld	h,(ix+enemy.mappos+1)
     119.  0D:74C0  2B 2B               [2]	dec	hl
     120.  0D:74C2  DD 75 07            	ld	(ix+enemy.mappos),l
     121.  0D:74C5  DD 74 08            	ld	(ix+enemy.mappos+1),h
     122.  0D:74C8                      
     123.  0D:74C8  DD 35 0B            	dec	(ix+enemy.dy)
     124.  0D:74CB  C0                  	ret	nz
     125.  0D:74CC  DD 36 01 00         	ld	(ix+enemy.state),0
     126.  0D:74D0  DD 36 02 00         	ld	(ix+enemy.frame),0
     127.  0D:74D4  DD 36 0B 20         	ld	(ix+enemy.dy),32
     128.  0D:74D8  C9                  	ret
     129.  0D:74D9                      	
     130.  0D:74D9                      animate1
     131.  0D:74D9  DD 7E 02            	ld	a,(ix+enemy.frame)
     132.  0D:74DC  3C                  	inc	a
     133.  0D:74DD  FE 10               	cp	10+6
     134.  0D:74DF  DD 77 02            	ld	(ix+enemy.frame),a
     135.  0D:74E2  C0                  	ret	nz
     136.  0D:74E3  3E 0A               	ld	a,10
     137.  0D:74E5  DD 77 02            	ld	(ix+enemy.frame),a
     138.  0D:74E8  C9                  	ret
     139.  0D:74E9                      	
     140.  0D:74E9                      move_sprite_right:
     141.  0D:74E9  CD 15 75            	call	animate0
     142.  0D:74EC  DD 7E 09            	ld	a,(ix+enemy.dx)
     143.  0D:74EF  3D                  	dec	a
     144.  0D:74F0  E6 03               	and	3
     145.  0D:74F2  DD 77 09            	ld	(ix+enemy.dx),a
     146.  0D:74F5  C0                  	ret	nz
     147.  0D:74F6                      	
     148.  0D:74F6  DD 6E 07            	ld	l,(ix+enemy.mappos)
     149.  0D:74F9  DD 66 08            	ld	h,(ix+enemy.mappos+1)
     150.  0D:74FC  23 23               [2]	inc	hl
     151.  0D:74FE  DD 75 07            	ld	(ix+enemy.mappos),l
     152.  0D:7501  DD 74 08            	ld	(ix+enemy.mappos+1),h
     153.  0D:7504                      	
     154.  0D:7504  DD 35 0B            	dec	(ix+enemy.dy)
     155.  0D:7507  C0                  	ret	nz
     156.  0D:7508  DD 36 01 01         	ld	(ix+enemy.state),1
     157.  0D:750C  DD 36 02 0A         	ld	(ix+enemy.frame),10
     158.  0D:7510  DD 36 0B 20         	ld	(ix+enemy.dy),32
     159.  0D:7514  C9                  	ret
     160.  0D:7515                      animate0
     161.  0D:7515  DD 7E 02            	ld	a,(ix+enemy.frame)
     162.  0D:7518  3C                  	inc	a
     163.  0D:7519  FE 06               	cp	6
     164.  0D:751B  DD 77 02            	ld	(ix+enemy.frame),a
     165.  0D:751E  C0                  	ret	nz
     166.  0D:751F  AF                  	xor	a
     167.  0D:7520  DD 77 02            	ld	(ix+enemy.frame),a
     168.  0D:7523  C9                  	ret
     169.  0D:7524                      
     170.  0D:7524                      	; ld	bc,(ix+enemy.y)
     171.  0D:7524                      	; ld	hl,mapWidth
     172.  0D:7524                      	; call	bcxhl
     173.  0D:7524                      	; ld	bc,(ix+enemy.y)
     174.  0D:7524                      	; add	hl,bc
     175.  0D:7524                      	; ld	bc,_levelmap
     176.  0D:7524                      	; add	hl,bc	
     177.  0D:7524                      
     178.  0D:7524                      ;;;;;;;;;;;;;;;;;;;;;;;;
     179.  0D:7524                      ; save_background
     180.  0D:7524                      ; in  
     181.  0D:7524                      ;  ix destination in enemylist
     182.  0D:7524                      ;;;;;;;;;;;;;;;;;;;;;;;;
     183.  0D:7524                      
     184.  0D:7524                      save_background:
     185.  0D:7524  DD 21 C7 D2         	ld	ix,enemylist
     186.  0D:7528  06 03               	ld	b,_nenemies
     187.  0D:752A  C5                  2:	push	bc
     188.  0D:752B  CD 37 75            	call	save_background_1f
     189.  0D:752E  01 8F 00            	ld	bc,enemy
     190.  0D:7531  DD 09               	add	ix,bc
     191.  0D:7533  C1                  	pop		bc
     192.  0D:7534  10 F4               	djnz	2b
     193.  0D:7536  C9                  	ret
     194.  0D:7537                      
     195.  0D:7537                      save_background_1f:
     196.  0D:7537  DD 5E 07            	ld	e,(ix+enemy.mappos)
     197.  0D:753A  DD 56 08            	ld	d,(ix+enemy.mappos+1)
     198.  0D:753D                      	
     199.  0D:753D  DD E5               	push	ix
     200.  0D:753F  E1                  	pop		hl
     201.  0D:7540  01 0F 00            	ld	bc,enemy.buf
     202.  0D:7543  09                  	add	hl,bc
     203.  0D:7544  EB                  	ex	de,hl
     204.  0D:7545                      	
     205.  0D:7545  DD 7E 0E            	ld	a,(ix+enemy.ny)
     206.  0D:7548                      
     207.  0D:7548  06 00               	ld	b,0
     208.  0D:754A                      	
     209.  0D:754A  DD 4E 0D            2:	ld	c,(ix+enemy.nx)
     210.  0D:754D  CB 21               	sla	c
     211.  0D:754F  E5                  	push	hl
     212.  0D:7550  ED B0               	ldir
     213.  0D:7552  E1                  	pop	hl
     214.  0D:7553                      	
     215.  0D:7553  24 24               [2]	inc h	; only if (mapWidth=256)
     216.  0D:7555                      	
     217.  0D:7555  3D                  	dec	a
     218.  0D:7556  C2 4A 75            	jp	nz,2b
     219.  0D:7559  C9                  	ret
     220.  0D:755A                      	
     221.  0D:755A                      ;;;;;;;;;;;;;;;;;;;;;;;;
     222.  0D:755A                      ; plot_sprite
     223.  0D:755A                      ; in 
     224.  0D:755A                      ;  ix destination in enemylist
     225.  0D:755A                      ;;;;;;;;;;;;;;;;;;;;;;;;
     226.  0D:755A                      
     227.  0D:755A                      plot_sprite:
     228.  0D:755A  DD 21 C7 D2         	ld	ix,enemylist
     229.  0D:755E  06 03               	ld	b,_nenemies
     230.  0D:7560  C5                  2:	push	bc
     231.  0D:7561  CD 6D 75            	call	plot_sprite_1f
     232.  0D:7564  01 8F 00            	ld	bc,enemy
     233.  0D:7567  DD 09               	add	ix,bc
     234.  0D:7569  C1                  	pop		bc
     235.  0D:756A  10 F4               	djnz	2b
     236.  0D:756C  C9                  	ret
     237.  0D:756D                      	
     238.  0D:756D                      plot_sprite_1f:
     239.  0D:756D  DD 6E 02            	ld	l,(ix+enemy.frame)
     240.  0D:7570  26 00               	ld	h,0
     241.  0D:7572                      [7]	add	hl,hl		; sprite_size = 64*2
     241.  0D:7572  29 29 29 29 29 29 29 
     242.  0D:7579                      
     243.  0D:7579  01 00 60            	ld	bc,frames
     244.  0D:757C  09                  	add	hl,bc		; hl aims to the current frame to be plotted
     245.  0D:757D                      
     246.  0D:757D  C3 9A 75            	jp	plot_sprtite_frame
     247.  0D:7580                      	
     248.  0D:7580                      ;;;;;;;;;;;;;;;;;;;;;;;;
     249.  0D:7580                      ; restore_background
     250.  0D:7580                      ; in 
     251.  0D:7580                      ;  ix source in enemylist
     252.  0D:7580                      ;;;;;;;;;;;;;;;;;;;;;;;;
     253.  0D:7580                      
     254.  0D:7580                      restore_background:
     255.  0D:7580  DD 21 C7 D2         	ld	ix,enemylist
     256.  0D:7584  06 03               	ld	b,_nenemies
     257.  0D:7586  C5                  2:	push	bc
     258.  0D:7587  CD 93 75            	call	restore_background_1f
     259.  0D:758A  01 8F 00            	ld	bc,enemy
     260.  0D:758D  DD 09               	add	ix,bc
     261.  0D:758F  C1                  	pop		bc
     262.  0D:7590  10 F4               	djnz	2b
     263.  0D:7592  C9                  	ret
     264.  0D:7593                      	
     265.  0D:7593                      restore_background_1f:
     266.  0D:7593  DD E5               	push	ix
     267.  0D:7595  E1                  	pop		hl
     268.  0D:7596  01 0F 00            	ld	bc,enemy.buf
     269.  0D:7599  09                  	add	hl,bc			
     270.  0D:759A                      
     271.  0D:759A                      plot_sprtite_frame:
     272.  0D:759A  DD 5E 07            	ld	e,(ix+enemy.mappos)
     273.  0D:759D  DD 56 08            	ld	d,(ix+enemy.mappos+1)	; hl->buffer, de->_levelmap
     274.  0D:75A0                      	
     275.  0D:75A0  DD 7E 0E            	ld	a,(ix+enemy.ny)
     276.  0D:75A3  06 00               	ld	b,0
     277.  0D:75A5                      	
     278.  0D:75A5  DD 4E 0D            2:	ld	c,(ix+enemy.nx)
     279.  0D:75A8  CB 21               	sla	c
     280.  0D:75AA  D5                  	push	de
     281.  0D:75AB  ED B0               	ldir
     282.  0D:75AD  D1                  	pop	de
     283.  0D:75AE                      
     284.  0D:75AE  14 14               [2]	inc d	; only if (mapWidth=256)
     285.  0D:75B0                      
     286.  0D:75B0  3D                  	dec	a
     287.  0D:75B1  C2 A5 75            	jp	nz,2b
     288.  0D:75B4  C9                  	ret
     289.  0D:75B5                      	
     290.  0D:75B5                      	
     291.  0D:75B5                      	
     670   0D:75B5                      	
     671   0D:75B5                      	page 0,1	
     672   00:477E                      _metatable:
     673   00:477E  (1180)              	incbin 	metatable.bin
     674   00:58FE                      	
     675   00:58FE  (01)                	page 1
     676   01:6000                      _backmap:
     677   01:6000  (0400)              	incbin	backmap.bin
     678   01:6400                      
     679   01:6400                      	include hwsprites.asm
       1.  01:6400                      
       2.  01:6400                      ; SGT = 0x7800 ->#R6 = 0x0F
       3.  01:6400                      ; SAT = 0x7600 ->#R5 = 0xEF #R11=0
       4.  01:6400                      
       5.  01:6400                      _hw_sprite_init:
       6.  01:6400                      
       7.  01:6400  F3                  		di
       8.  01:6401                      		; SGT = 0x7800 ->#R6 = 0x0F
       9.  01:6401  3E 0F               		ld		a,0x0F
      10.  01:6403  D3 99               		out		(0x99),a
      11.  01:6405  3E 86               		ld		a,128+6
      12.  01:6407  D3 99               		out		(0x99),a
      13.  01:6409                      		
      14.  01:6409                      		; SAT = 0x7600 ->#R5 = 0xEF #R11=0
      15.  01:6409  3E EF               		ld		a,0xEF
      16.  01:640B  D3 99               		out		(0x99),a
      17.  01:640D  3E 85               		ld		a,128+5
      18.  01:640F  D3 99               		out		(0x99),a
      19.  01:6411                      		
      20.  01:6411  AF                  		xor	a
      21.  01:6412  D3 99               		out		(0x99),a
      22.  01:6414  3E 8B               		ld		a,128+11
      23.  01:6416  D3 99               		out		(0x99),a
      24.  01:6418  FB                  		ei
      25.  01:6419                      		
      26.  01:6419                      		; unpack level map (meta_tiles)
      27.  01:6419  3E 0A               		ld	a, :sprtdata.SPRITES
      28.  01:641B                      		setpage_a
      28.  01:641B  32 00 90          >   ld (_kBank3),a
      28.  01:641E  3C                >   inc a
      28.  01:641F  32 00 B0          >   ld (_kBank4),a
      29.  01:6422                      		
      30.  01:6422  21 00 80            		ld		hl,	sprtdata.SPRITES
      31.  01:6425  0E 00               		ld		c,0
      32.  01:6427  11 00 78            		ld		de,0x7800
      33.  01:642A  CD 7C 46            		call	_vdpsetvramwr
      34.  01:642D                      		
      35.  01:642D  01 98 00            		ld		bc,0x98
      36.  01:6430                      [8]		otir	; 2K
      36.  01:6430  ED B3 ED B3 ED B3 ED B3 ED B3 ED B3 ED B3 ED B3 
      37.  01:6440                      
      38.  01:6440  21 40 82            		ld		hl,	sprtdata.ATRIBUTOS
      39.  01:6443  0E 00               		ld		c,0
      40.  01:6445  11 00 74            		ld		de,0x7600-512
      41.  01:6448  CD 7C 46            		call	_vdpsetvramwr
      42.  01:644B                      
      43.  01:644B  01 98 00            		ld		bc,0x98
      44.  01:644E  ED B3 ED B3         [2]		otir	; 512
      45.  01:6452                      
      46.  01:6452                      
      47.  01:6452  0E 00               		ld		c,0
      48.  01:6454  11 00 76            		ld		de,0x7600
      49.  01:6457  CD 7C 46            		call	_vdpsetvramwr
      50.  01:645A                      		
      51.  01:645A  21 63 64            		ld		hl,hwsprt_test		
      52.  01:645D  01 98 80            		ld		bc,0x8098
      53.  01:6460  ED B3               		otir			
      54.  01:6462  C9                  		ret
      55.  01:6463                      		
      56.  01:6463                      hwsprt_test
      57.  01:6463  D8                  		db	0xd8
      58.  01:6464  40 80 00 0F         		db	64,128,0,15
      59.  01:6468  40 80 04 0F         		db	64,128,4,15
      60.  01:646C  40 80 08 0F         		db	64,128,8,15
      61.  01:6470                      		
      62.  01:6470  20 80 0C 0F         		db	32,128,12,15
      63.  01:6474  20 80 10 0F         		db	32,128,16,15
      64.  01:6478  20 80 14 0F         		db	32,128,20,15
      65.  01:647C  D8                  		db	0xd8
     680   01:647D                      	
     681   01:647D                      	include mainhero_LMMM.asm
       1.  01:647D                      
       2.  01:647D                      up:		
       3.  01:647D  21 FE FF            		ld		hl,-2
       4.  01:6480  22 84 D4            		ld		(_mcdy),hl
       5.  01:6483                      		
       6.  01:6483  3E 02               		ld	a,2
       7.  01:6485  32 81 D4            		ld	(_mcstate),a
       8.  01:6488  C9                  		ret
       9.  01:6489                      sup		
      10.  01:6489  3A 9F D4            		ld		a,(_ymappos)
      11.  01:648C  47                  		ld		b,a
      12.  01:648D  3A 88 D4            		ld		a,(_ticxframe)
      13.  01:6490  ED 44               		neg
      14.  01:6492  80                  		add		a,b
      15.  01:6493  32 9F D4            		ld		(_ymappos),a
      16.  01:6496  C9                  		ret
      17.  01:6497                      
      18.  01:6497                      dwn:	
      19.  01:6497  21 02 00            		ld		hl,2
      20.  01:649A  22 84 D4            		ld		(_mcdy),hl
      21.  01:649D                      		
      22.  01:649D  3E 03               		ld	a,3
      23.  01:649F  32 81 D4            		ld	(_mcstate),a
      24.  01:64A2  C9                  		ret
      25.  01:64A3                      sdwn		
      26.  01:64A3  3A 9F D4            		ld		a,(_ymappos)
      27.  01:64A6  47                  		ld		b,a
      28.  01:64A7  3A 88 D4            		ld		a,(_ticxframe)
      29.  01:64AA  80                  		add		a,b
      30.  01:64AB  32 9F D4            		ld		(_ymappos),a
      31.  01:64AE  C9                  		ret
      32.  01:64AF                      		
      33.  01:64AF                      right:	
      34.  01:64AF  21 02 00            		ld		hl,2
      35.  01:64B2  22 82 D4            		ld		(_mcdx),hl
      36.  01:64B5                      
      37.  01:64B5  3E 01               		ld	a,1
      38.  01:64B7  32 81 D4            		ld	(_mcstate),a
      39.  01:64BA  C9                  		ret
      40.  01:64BB                      sright:
      41.  01:64BB  3A 88 D4            		ld		a,(_ticxframe)
      42.  01:64BE  4F                  		ld		c,a
      43.  01:64BF  06 00               		ld		b,0
      44.  01:64C1  2A A0 D4            		ld		hl,(_xmappos)
      45.  01:64C4  09                  		add		hl,bc
      46.  01:64C5  22 A0 D4            		ld		(_xmappos),hl
      47.  01:64C8  C9                  		ret
      48.  01:64C9                      
      49.  01:64C9                      left:	
      50.  01:64C9  21 FE FF            		ld		hl,-2
      51.  01:64CC  22 82 D4            		ld		(_mcdx),hl
      52.  01:64CF                      
      53.  01:64CF  AF                  		xor	a
      54.  01:64D0  32 81 D4            		ld	(_mcstate),a
      55.  01:64D3  C9                  		ret
      56.  01:64D4                      sleft:	
      57.  01:64D4  3A 88 D4            		ld		a,(_ticxframe)
      58.  01:64D7  ED 44               		neg
      59.  01:64D9  4F                  		ld		c,a
      60.  01:64DA  06 FF               		ld		b,-1
      61.  01:64DC  2A A0 D4            		ld		hl,(_xmappos)
      62.  01:64DF  09                  		add		hl,bc
      63.  01:64E0  22 A0 D4            		ld		(_xmappos),hl
      64.  01:64E3  C9                  		ret
      65.  01:64E4                      
      66.  01:64E4                      ;-------------------------------------
      67.  01:64E4                      
      68.  01:64E4                      manage_hero:
      69.  01:64E4                      
      70.  01:64E4  01 10 00            	ld	bc,16
      71.  01:64E7  ED 5B A0 D4         	ld	de,(_xmappos)
      72.  01:64EB  2A 7C D4            	ld	hl,(_mclx)
      73.  01:64EE  A7                  	and	a
      74.  01:64EF  ED 52               	sbc	hl,de
      75.  01:64F1  09                  	add	hl,bc
      76.  01:64F2  22 78 D4            	ld	(_mcx),hl
      77.  01:64F5  11 B3 00            	ld	de,256-80+3
      78.  01:64F8  A7                  	and	a
      79.  01:64F9  ED 52               	sbc	hl,de
      80.  01:64FB  D4 BB 64            	call	nc,sright
      81.  01:64FE  2A 78 D4            	ld	hl,(_mcx)
      82.  01:6501  11 40 00            	ld	de,64
      83.  01:6504  A7                  	and	a
      84.  01:6505  ED 52               	sbc	hl,de
      85.  01:6507  DC D4 64            	call	c,sleft
      86.  01:650A                      	
      87.  01:650A  01 10 00            	ld	bc,16
      88.  01:650D  ED 5B 9F D4         	ld	de,(_ymappos)
      89.  01:6511  16 00               	ld	d,0
      90.  01:6513  2A 7E D4            	ld	hl,(_mcly)
      91.  01:6516  A7                  	and	a
      92.  01:6517  ED 52               	sbc	hl,de
      93.  01:6519  09                  	add	hl,bc
      94.  01:651A  22 7A D4            	ld	(_mcy),hl
      95.  01:651D  11 73 00            	ld	de,160-48+3
      96.  01:6520  A7                  	and	a
      97.  01:6521  ED 52               	sbc	hl,de
      98.  01:6523  D4 A3 64            	call	nc,sdwn
      99.  01:6526  2A 7A D4            	ld	hl,(_mcy)
     100.  01:6529  11 20 00            	ld	de,32
     101.  01:652C  A7                  	and	a
     102.  01:652D  ED 52               	sbc	hl,de
     103.  01:652F  DC 89 64            	call	c,sup
     104.  01:6532                      
     105.  01:6532  ED 5B 7C D4         	ld	de,(_mclx)
     106.  01:6536  2A 82 D4            	ld	hl,(_mcdx)
     107.  01:6539  19                  	add	hl,de
     108.  01:653A  22 7C D4            	ld	(_mclx),hl
     109.  01:653D                      
     110.  01:653D  ED 5B 7E D4         	ld	de,(_mcly)
     111.  01:6541  2A 84 D4            	ld	hl,(_mcdy)
     112.  01:6544  19                  	add	hl,de
     113.  01:6545  22 7E D4            	ld	(_mcly),hl
     114.  01:6548                      
     115.  01:6548                      	
     116.  01:6548  CD C5 66            	call	probe_level
     117.  01:654B                      	
     118.  01:654B  CD 6D 66            	call	_cursors
     119.  01:654E                      
     120.  01:654E  DD CB 00 46         	bit		0,(ix)
     121.  01:6552  CC 7D 64            	call	z,up
     122.  01:6555  DD CB 00 4E         	bit		1,(ix)
     123.  01:6559  CC 97 64            	call	z,dwn
     124.  01:655C  DD CB 00 5E         	bit		3,(ix)
     125.  01:6560  CC AF 64            	call	z,right
     126.  01:6563  DD CB 00 56         	bit		2,(ix)
     127.  01:6567  CC C9 64            	call	z,left
     128.  01:656A  DD 7E 00            	ld		a,(ix)
     129.  01:656D  E6 0F               	and		15
     130.  01:656F  FE 0F               	cp		15
     131.  01:6571  20 0F               	jr		nz,1f
     132.  01:6573  3E FF               	ld		a,-1
     133.  01:6575  32 80 D4            	ld		(_mcframe),a
     134.  01:6578  21 00 00            	ld		hl,0
     135.  01:657B  22 82 D4            	ld		(_mcdx),hl
     136.  01:657E  22 84 D4            	ld		(_mcdy),hl
     137.  01:6581  C9                  	ret
     138.  01:6582  E6 03               1:	and		00000011B
     139.  01:6584  FE 03               	cp		00000011B
     140.  01:6586  20 07               	jr		nz,1f
     141.  01:6588  21 00 00            	ld		hl,0
     142.  01:658B  22 84 D4            	ld		(_mcdy),hl
     143.  01:658E  C9                  	ret
     144.  01:658F  DD 7E 00            1:	ld		a,(ix)
     145.  01:6592  E6 0C               	and		00001100B
     146.  01:6594  FE 0C               	cp		00001100B
     147.  01:6596  C0                  	ret		nz
     148.  01:6597  21 00 00            	ld		hl,0
     149.  01:659A  22 82 D4            	ld		(_mcdx),hl
     150.  01:659D  C9                  	ret
     151.  01:659E                      ;-------------------------------------
     152.  01:659E                      	
     153.  01:659E                      init_hero
     154.  01:659E  21 78 00            	ld	hl,120
     155.  01:65A1  22 78 D4            	ld	(_mcx),hl
     156.  01:65A4  22 7C D4            	ld	(_mclx),hl
     157.  01:65A7  21 50 00            	ld	hl,16+64
     158.  01:65AA  22 7A D4            	ld	(_mcy),hl
     159.  01:65AD  22 7E D4            	ld	(_mcly),hl
     160.  01:65B0  AF                  	xor		a
     161.  01:65B1  32 80 D4            	ld		(_mcframe),a
     162.  01:65B4  3E 01               	ld	a,1
     163.  01:65B6  32 81 D4            	ld	(_mcstate),a
     164.  01:65B9  C9                  	ret
     165.  01:65BA                      
     166.  01:65BA                      ;-------------------------------------
     167.  01:65BA                      
     168.  01:65BA                      plot_hero:
     169.  01:65BA  2A 7A D4            	ld	hl,(_mcy)	; relative with in the frame on the screen
     170.  01:65BD  7D                  	ld	a,l
     171.  01:65BE  E6 F8               	and	11111000B
     172.  01:65C0  6F                  	ld	l,a
     173.  01:65C1  29 29 29            [3]	add	hl,hl
     174.  01:65C4  EB                  	ex	de,hl
     175.  01:65C5  2A 78 D4            	ld	hl,(_mcx)	; relative with in the frame on the screen
     176.  01:65C8  7D                  	ld	a,l
     177.  01:65C9  E6 F8               	and	11111000B
     178.  01:65CB  0F 0F               [2]	rrca
     179.  01:65CD  6F                  	ld	l,a
     180.  01:65CE  19                  	add	hl,de
     181.  01:65CF                      
     182.  01:65CF  ED 5B A2 D4         	ld		de,(_shadowbuff)
     183.  01:65D3  19                  	add		hl,de		; HL = pointer to the shadow map
     184.  01:65D4                      	
     185.  01:65D4                      	repeat	3
     186.  01:65D4                    < 	inc		hl
     187.  01:65D4                    < 	ld	(hl),0x08
     188.  01:65D4                    < 	inc		hl
     189.  01:65D4                    < 	endrepeat
     189.  01:65D4  23 36 08 23 23 36 08 23 23 36 08 23 
     190.  01:65E0                      	
     191.  01:65E0  11 3A 00            	ld		de,2*32-6
     192.  01:65E3  19                  	add		hl,de		; HL = pointer to the shadow map
     193.  01:65E4                      	
     194.  01:65E4                      	repeat	3
     195.  01:65E4                    < 	inc		hl
     196.  01:65E4                    < 	ld	(hl),0x08
     197.  01:65E4                    < 	inc		hl
     198.  01:65E4                    < 	endrepeat
     198.  01:65E4  23 36 08 23 23 36 08 23 23 36 08 23 
     199.  01:65F0                      	
     200.  01:65F0  11 3A 00            	ld		de,2*32-6
     201.  01:65F3  19                  	add		hl,de		; HL = pointer to the shadow map
     202.  01:65F4                      	
     203.  01:65F4                      	repeat	3
     204.  01:65F4                    < 	inc		hl
     205.  01:65F4                    < 	ld	(hl),0x08
     206.  01:65F4                    < 	inc		hl
     207.  01:65F4                    < 	endrepeat
     207.  01:65F4  23 36 08 23 23 36 08 23 23 36 08 23 
     208.  01:6600                      	
     209.  01:6600  F3                  	di
     210.  01:6601  3E 20               	ld 		a, 32
     211.  01:6603  D3 99               	out 	(0x99),a
     212.  01:6605  3E 91               	ld 		a, 17+128
     213.  01:6607  D3 99               	out 	(0x99),a
     214.  01:6609  FB                  	ei
     215.  01:660A                      
     216.  01:660A  0E 9B               	ld 		c, 0x9B
     217.  01:660C                      	
     218.  01:660C  CD C6 46            	call _waitvdp;
     219.  01:660F                      
     220.  01:660F  3A 81 D4            	ld	a,(_mcstate)
     221.  01:6612  87 87               [2]	add	a,a
     222.  01:6614  5F                  	ld	e,a
     223.  01:6615  16 00               	ld	d,0
     224.  01:6617  21 5D 66            	ld	hl,state0
     225.  01:661A  19                  	add	hl,de
     226.  01:661B                      	
     227.  01:661B  3A 80 D4            	ld	a,(_mcframe)
     228.  01:661E  3C                  	inc	a
     229.  01:661F  E6 03               	and	3
     230.  01:6621  32 80 D4            	ld	(_mcframe),a
     231.  01:6624  5F                  	ld	e,a
     232.  01:6625  16 00               	ld	d,0
     233.  01:6627  19                  	add	hl,de
     234.  01:6628  6E                  	ld	l,(hl)
     235.  01:6629                      
     236.  01:6629  26 C0               	ld		h,192
     237.  01:662B  ED 69               	out		(c), l 		; sx
     238.  01:662D  AF                  	xor a
     239.  01:662E  D3 9B               	out		(0x9B), a 	; sx (high)
     240.  01:6630                      	
     241.  01:6630  ED 61               	out		(c), h 		; sy
     242.  01:6632  3E 01               	ld		a,1			; source page for sprites
     243.  01:6634  D3 9B               	out 	(0x9B), a 	; sy (high-> page 3)
     244.  01:6636                      	
     245.  01:6636  3A 78 D4            	ld		a,(_mcx)
     246.  01:6639  D3 9B               	out 	(0x9B), a 	; dx
     247.  01:663B  AF                  	xor a
     248.  01:663C  D3 9B               	out 	(0x9B), a	; dx (high)
     249.  01:663E                      	
     250.  01:663E  3A 7A D4            	ld		a,(_mcy)
     251.  01:6641  D3 9B               	out 	(0x9B), a	; dy
     252.  01:6643  3A A4 D4            	ld 		a,(_currentpage)	; destination page
     253.  01:6646  D3 9B               	out 	(0x9B), a	; dy (high-> page 0 or 1)
     254.  01:6648                      
     255.  01:6648  21 10 10            	ld 		hl,16*257 	; block size
     256.  01:664B                      
     257.  01:664B  ED 69               	out 	(c), l
     258.  01:664D  AF                  	xor a
     259.  01:664E  D3 9B               	out 	(0x9B), a
     260.  01:6650  ED 61               	out 	(c), h
     261.  01:6652  D3 9B               	out 	(0x9B), a
     262.  01:6654  D3 9B               	out 	(0x9B), a
     263.  01:6656  D3 9B               	out 	(0x9B), a
     264.  01:6658                      
     265.  01:6658  3E 98               	ld		a,10011000B
     266.  01:665A  D3 9B               	out 	(0x9B), a		; command LMMM
     267.  01:665C  C9                  	ret
     268.  01:665D                      
     269.  01:665D  00 10 00 20         state0		db	0*16,1*16,0*16,2*16
     270.  01:6661  30 40 30 50         state1		db	3*16,4*16,3*16,5*16
     271.  01:6665  60 70 60 70         state2		db	6*16,7*16,6*16,7*16
     272.  01:6669  60 70 60 70         state3		db	6*16,7*16,6*16,7*16
     273.  01:666D                      
     274.  01:666D                      
     275.  01:666D                      ;-------------------------------------
     276.  01:666D                      
     277.  01:666D                      
     278.  01:666D  (01:00D5)           GTSTCK      equ 0x00D5      ;Returns the joystick status
     279.  01:666D  (01:00D8)           GTTRIG      equ 0x00D8      ;Returns current trigger status
     280.  01:666D                      
     281.  01:666D                      
     282.  01:666D                      _cursors:
     283.  01:666D                      	
     284.  01:666D                      ; PSG I/O port A (r#14)  read-only
     285.  01:666D                      ; Bit	Description	Comment
     286.  01:666D                      ; 0	Input joystick pin 1	(up)
     287.  01:666D                      ; 1	Input joystick pin 2	(down)
     288.  01:666D                      ; 2	Input joystick pin 3	(left)
     289.  01:666D                      ; 3	Input joystick pin 4	(right)
     290.  01:666D                      ; 4	Input joystick pin 6	(trigger A)
     291.  01:666D                      ; 5	Input joystick pin 7	(trigger B)
     292.  01:666D                      ; 6	Japanese keyboard layout bit	(1=JIS, 0=ANSI)
     293.  01:666D                      ; 7	Cassette input signal	
     294.  01:666D                      
     295.  01:666D                      .rd_joy:
     296.  01:666D  3E 0F               	ld	a,#0f
     297.  01:666F  D3 A0               	out	(#a0),a
     298.  01:6671  3E 8F               	ld	a,0x8F
     299.  01:6673  D3 A1               	out	(#a1),a		; select port A
     300.  01:6675  3E 0E               	ld	a,#0e
     301.  01:6677  D3 A0               	out	(#a0),a
     302.  01:6679  DB A2               	in	a,(#a2)
     303.  01:667B                      .rd_key:	
     304.  01:667B  DD 21 77 D4         	ld	ix,joystick
     305.  01:667F  DD 77 00            	ld	(ix),a
     306.  01:6682                      	
     307.  01:6682  1E 08               	ld  e,8
     308.  01:6684  CD 9B 41                call    checkkbd
     309.  01:6687  CB 47               	bit	0,a				; space
     310.  01:6689  20 04               	jr	nz,1f
     311.  01:668B  DD CB 00 A6         	res	4,(ix)			; (trigger A)
     312.  01:668F                      1:
     313.  01:668F  CB 7F               	bit	7,a				; RIGHT
     314.  01:6691  20 04               	jr	nz,1f
     315.  01:6693  DD CB 00 9E         	res	3,(ix)			; (right joy)
     316.  01:6697                      1:
     317.  01:6697  CB 77               	bit	6,a				; DOWN
     318.  01:6699  20 04               	jr	nz,1f
     319.  01:669B  DD CB 00 8E         	res	1,(ix)			; (down joy)
     320.  01:669F                      1:
     321.  01:669F  CB 6F               	bit	5,a				; UP
     322.  01:66A1  20 04               	jr	nz,1f
     323.  01:66A3  DD CB 00 86         	res	0,(ix)			; (up joy)
     324.  01:66A7                      1:
     325.  01:66A7  CB 67               	bit	4,a				; LEFT
     326.  01:66A9  20 04               	jr	nz,1f
     327.  01:66AB  DD CB 00 96         	res	2,(ix)			; (left joy)
     328.  01:66AF                      1:
     329.  01:66AF  1E 05               	ld  e,5
     330.  01:66B1  CD 9B 41                call    checkkbd
     331.  01:66B4  CB 6F               	bit	5,a				; X
     332.  01:66B6  20 04               	jr	nz,1f
     333.  01:66B8  DD CB 00 AE         	res	5,(ix)			; (trigger B)
     334.  01:66BC                      1:
     335.  01:66BC  CB 7F               	bit	7,a				; Z
     336.  01:66BE  20 04               	jr	nz,1f
     337.  01:66C0  DD CB 00 A6         	res	4,(ix)			; (trigger A)
     338.  01:66C4                      1:
     339.  01:66C4  C9                  	ret
     682   01:66C5                      	include probe_level.asm
       1.  01:66C5                      
       2.  01:66C5                      
       3.  01:66C5                      probe_level:
       4.  01:66C5                      	
       5.  01:66C5                      	
       6.  01:66C5  2A 7E D4            	ld	hl,(_mcly)	; ONLY IF mapWidth=256
       7.  01:66C8  7D                  	ld	a,l
       8.  01:66C9  E6 FC               	and	11111100B
       9.  01:66CB  6F                  	ld	l,a
      10.  01:66CC  29 29 29 29         [4]	add	hl,hl
      11.  01:66D0                      	
      12.  01:66D0  EB                  	ex	de,hl
      13.  01:66D1                      
      14.  01:66D1  2A 7C D4            	ld	hl,(_mclx)	; ONLY IF mapWidth=256
      15.  01:66D4  29 29 29            [3]	add	hl,hl	
      16.  01:66D7  6C                  	ld	l,h
      17.  01:66D8  26 00               	ld	h,0
      18.  01:66DA                      	
      19.  01:66DA  19                  	add	hl,de
      20.  01:66DB                      	
      21.  01:66DB  11 C7 C2            	ld	de,_cur_level_bf
      22.  01:66DE  19                  	add	hl,de
      23.  01:66DF                      	
      24.  01:66DF  3A 7C D4            	ld	a,(_mclx)
      25.  01:66E2  1F 1F               [2]	rra			; x/4
      26.  01:66E4  E6 07               	and	7
      27.  01:66E6  47                  	ld	b,a
      28.  01:66E7  7E                  	ld	a,(hl)
      29.  01:66E8  32 86 D4            	ld	(_mcprobe),a
      30.  01:66EB  28 03               	jr	z,2f
      31.  01:66ED  1F                  1:	rra
      32.  01:66EE  10 FD               	djnz	1b
      33.  01:66F0  E6 01               2:	and	1
      34.  01:66F2                      
      35.  01:66F2  32 87 D4            	ld	(_mcprobeb),a
      36.  01:66F5  C9                  	ret
      37.  01:66F6                      	
     683   01:66F6                      
     684   01:66F6                      
     685   01:66F6                      	page 2,3
     686   02:8000                      _frame:
     687   02:8000  (0951)              	incbin "_frame.bin"
     688   02:8951                      _mc_sprites:	
     689   02:8951  (09E7)              	incbin "_sprites.bin"			
     690   02:9338                      	
     691   02:9338  (04)                	page 4
     692   04:8000                      _tiles0:
     693   04:8000  (2000)              	incbin "_tiles0.bin",,0x2000
     694   04:A000  (05)                	page 5
     695   05:A000  (0F62)              	incbin "_tiles0.bin",0x2000
     696   05:AF62                      	
     697   05:AF62  (06)                	page 6
     698   06:8000                      _tiles1:
     699   06:8000  (2000)              	incbin "_tiles1.bin",,0x2000
     700   06:A000  (07)                	page 7
     701   07:A000  (1A1B)              	incbin "_tiles1.bin",0x2000
     702   07:BA1B                      
     703   07:BA1B                      	page 8,9
     704   08:8000                      _level:
     705   08:8000  (0452)              	incbin "_metamap.bin"
     706   08:8452                      _level_bf:	
     707   08:8452  (1000)              	incbin "BitField.bin"	
     708   08:9452                      	
     709   08:9452                      	page 10,11
     710   0A:8000                      sprtdata
     711   0A:8000                      	include 	SPROL.ASM
       1.  0A:8000                      .SPRITES
       2.  0A:8000                      ; --- Slot 0
       3.  0A:8000                      ; mask 00
       4.  0A:8000                       DB $01,$00,$07,$00,$00,$00,$01,$01
       4.  0A:8000  01 00 07 00 00 00 01 01 
       5.  0A:8008                       DB $00,$04,$10,$18,$18,$04,$00,$06
       5.  0A:8008  00 04 10 18 18 04 00 06 
       6.  0A:8010                       DB $20,$80,$F8,$20,$20,$70,$20,$E8
       6.  0A:8010  20 80 F8 20 20 70 20 E8 
       7.  0A:8018                       DB $48,$00,$20,$00,$00,$08,$20,$18
       7.  0A:8018  48 00 20 00 00 08 20 18 
       8.  0A:8020                      ; mask 01
       9.  0A:8020                       DB $03,$07,$00,$07,$00,$05,$04,$02
       9.  0A:8020  03 07 00 07 00 05 04 02 
      10.  0A:8028                       DB $00,$07,$0D,$02,$1C,$02,$06,$00
      10.  0A:8028  00 07 0D 02 1C 02 06 00 
      11.  0A:8030                       DB $20,$F0,$00,$F8,$10,$00,$80,$14
      11.  0A:8030  20 F0 00 F8 10 00 80 14 
      12.  0A:8038                       DB $A4,$48,$C8,$70,$80,$70,$18,$00
      12.  0A:8038  A4 48 C8 70 80 70 18 00 
      13.  0A:8040                      ; mask 02
      14.  0A:8040                       DB $05,$00,$00,$00,$0F,$0F,$06,$06
      14.  0A:8040  05 00 00 00 0F 0F 06 06 
      15.  0A:8048                       DB $07,$08,$02,$05,$1B,$01,$09,$00
      15.  0A:8048  07 08 02 05 1B 01 09 00 
      16.  0A:8050                       DB $E0,$00,$00,$00,$D8,$80,$D0,$14
      16.  0A:8050  E0 00 00 00 D8 80 D0 14 
      17.  0A:8058                       DB $B4,$B4,$14,$88,$70,$80,$C4,$00
      17.  0A:8058  B4 B4 14 88 70 80 C4 00 
      18.  0A:8060                      
      19.  0A:8060                      ;
      20.  0A:8060                      ; --- Slot 1
      21.  0A:8060                      ; mask 10
      22.  0A:8060                       DB $01,$00,$07,$00,$00,$00,$01,$01
      22.  0A:8060  01 00 07 00 00 00 01 01 
      23.  0A:8068                       DB $00,$00,$00,$02,$04,$02,$00,$03
      23.  0A:8068  00 00 00 02 04 02 00 03 
      24.  0A:8070                       DB $20,$80,$F8,$20,$20,$70,$20,$E0
      24.  0A:8070  20 80 F8 20 20 70 20 E0 
      25.  0A:8078                       DB $A0,$60,$60,$E0,$08,$00,$08,$38
      25.  0A:8078  A0 60 60 E0 08 00 08 38 
      26.  0A:8080                      ; mask 11
      27.  0A:8080                       DB $03,$00,$00,$0F,$00,$05,$04,$02
      27.  0A:8080  03 00 00 0F 00 05 04 02 
      28.  0A:8088                       DB $02,$02,$01,$05,$03,$01,$03,$00
      28.  0A:8088  02 02 01 05 03 01 03 00 
      29.  0A:8090                       DB $30,$88,$00,$F8,$10,$00,$80,$10
      29.  0A:8090  30 88 00 F8 10 00 80 10 
      30.  0A:8098                       DB $A0,$60,$60,$10,$F0,$90,$34,$00
      30.  0A:8098  A0 60 60 10 F0 90 34 00 
      31.  0A:80A0                      ; mask 12
      32.  0A:80A0                       DB $05,$07,$00,$00,$0F,$0F,$06,$06
      32.  0A:80A0  05 07 00 00 0F 0F 06 06 
      33.  0A:80A8                       DB $05,$07,$06,$00,$00,$04,$04,$00
      33.  0A:80A8  05 07 06 00 00 04 04 00 
      34.  0A:80B0                       DB $E0,$F0,$00,$00,$D8,$80,$D0,$10
      34.  0A:80B0  E0 F0 00 00 D8 80 D0 10 
      35.  0A:80B8                       DB $F0,$90,$F0,$00,$00,$68,$C0,$00
      35.  0A:80B8  F0 90 F0 00 00 68 C0 00 
      36.  0A:80C0                      
      37.  0A:80C0                      ;
      38.  0A:80C0                      ; --- Slot 2
      39.  0A:80C0                      ; mask 20
      40.  0A:80C0                       DB $01,$00,$07,$00,$00,$00,$01,$01
      40.  0A:80C0  01 00 07 00 00 00 01 01 
      41.  0A:80C8                       DB $00,$04,$00,$01,$01,$04,$00,$07
      41.  0A:80C8  00 04 00 01 01 04 00 07 
      42.  0A:80D0                       DB $20,$80,$F8,$20,$20,$70,$20,$E0
      42.  0A:80D0  20 80 F8 20 20 70 20 E0 
      43.  0A:80D8                       DB $40,$00,$20,$88,$88,$60,$90,$F0
      43.  0A:80D8  40 00 20 88 88 60 90 F0 
      44.  0A:80E0                      ; mask 21
      45.  0A:80E0                       DB $03,$00,$00,$0F,$00,$05,$04,$02
      45.  0A:80E0  03 00 00 0F 00 05 04 02 
      46.  0A:80E8                       DB $00,$07,$01,$02,$07,$03,$03,$00
      46.  0A:80E8  00 07 01 02 07 03 03 00 
      47.  0A:80F0                       DB $30,$88,$00,$F8,$10,$00,$80,$10
      47.  0A:80F0  30 88 00 F8 10 00 80 10 
      48.  0A:80F8                       DB $A0,$40,$C0,$60,$F8,$90,$28,$00
      48.  0A:80F8  A0 40 C0 60 F8 90 28 00 
      49.  0A:8100                      ; mask 22
      50.  0A:8100                       DB $05,$07,$00,$00,$0F,$0F,$06,$06
      50.  0A:8100  05 07 00 00 0F 0F 06 06 
      51.  0A:8108                       DB $07,$00,$06,$04,$00,$00,$04,$00
      51.  0A:8108  07 00 06 04 00 00 04 00 
      52.  0A:8110                       DB $E0,$F0,$00,$00,$D8,$80,$D0,$10
      52.  0A:8110  E0 F0 00 00 D8 80 D0 10 
      53.  0A:8118                       DB $B0,$B0,$10,$10,$00,$00,$40,$00
      53.  0A:8118  B0 B0 10 10 00 00 40 00 
      54.  0A:8120                      
      55.  0A:8120                      ;
      56.  0A:8120                      ; --- Slot 3
      57.  0A:8120                      ; mask 30
      58.  0A:8120                       DB $04,$01,$1F,$04,$04,$0E,$04,$17
      58.  0A:8120  04 01 1F 04 04 0E 04 17 
      59.  0A:8128                       DB $12,$00,$04,$00,$00,$10,$04,$18
      59.  0A:8128  12 00 04 00 00 10 04 18 
      60.  0A:8130                       DB $80,$00,$E0,$00,$00,$00,$80,$80
      60.  0A:8130  80 00 E0 00 00 00 80 80 
      61.  0A:8138                       DB $00,$20,$08,$18,$18,$20,$00,$60
      61.  0A:8138  00 20 08 18 18 20 00 60 
      62.  0A:8140                      ; mask 31
      63.  0A:8140                       DB $04,$0F,$00,$1F,$08,$00,$01,$28
      63.  0A:8140  04 0F 00 1F 08 00 01 28 
      64.  0A:8148                       DB $25,$12,$13,$0E,$01,$0E,$18,$00
      64.  0A:8148  25 12 13 0E 01 0E 18 00 
      65.  0A:8150                       DB $C0,$E0,$00,$E0,$00,$A0,$20,$40
      65.  0A:8150  C0 E0 00 E0 00 A0 20 40 
      66.  0A:8158                       DB $00,$E0,$B0,$40,$38,$40,$60,$00
      66.  0A:8158  00 E0 B0 40 38 40 60 00 
      67.  0A:8160                      ; mask 32
      68.  0A:8160                       DB $07,$00,$00,$00,$1B,$01,$0B,$28
      68.  0A:8160  07 00 00 00 1B 01 0B 28 
      69.  0A:8168                       DB $2D,$2D,$28,$11,$0E,$01,$23,$00
      69.  0A:8168  2D 2D 28 11 0E 01 23 00 
      70.  0A:8170                       DB $A0,$00,$00,$00,$F0,$F0,$60,$60
      70.  0A:8170  A0 00 00 00 F0 F0 60 60 
      71.  0A:8178                       DB $E0,$10,$40,$A0,$D8,$80,$90,$00
      71.  0A:8178  E0 10 40 A0 D8 80 90 00 
      72.  0A:8180                      
      73.  0A:8180                      ;
      74.  0A:8180                      ; --- Slot 4
      75.  0A:8180                      ; mask 40
      76.  0A:8180                       DB $04,$01,$1F,$04,$04,$0E,$04,$07
      76.  0A:8180  04 01 1F 04 04 0E 04 07 
      77.  0A:8188                       DB $05,$06,$06,$07,$10,$00,$10,$1C
      77.  0A:8188  05 06 06 07 10 00 10 1C 
      78.  0A:8190                       DB $80,$00,$E0,$00,$00,$00,$80,$80
      78.  0A:8190  80 00 E0 00 00 00 80 80 
      79.  0A:8198                       DB $00,$00,$00,$40,$20,$40,$00,$C0
      79.  0A:8198  00 00 00 40 20 40 00 C0 
      80.  0A:81A0                      ; mask 41
      81.  0A:81A0                       DB $0C,$11,$00,$1F,$08,$00,$01,$08
      81.  0A:81A0  0C 11 00 1F 08 00 01 08 
      82.  0A:81A8                       DB $05,$06,$06,$08,$0F,$09,$2C,$00
      82.  0A:81A8  05 06 06 08 0F 09 2C 00 
      83.  0A:81B0                       DB $C0,$00,$00,$F0,$00,$A0,$20,$40
      83.  0A:81B0  C0 00 00 F0 00 A0 20 40 
      84.  0A:81B8                       DB $40,$40,$80,$A0,$C0,$80,$C0,$00
      84.  0A:81B8  40 40 80 A0 C0 80 C0 00 
      85.  0A:81C0                      ; mask 42
      86.  0A:81C0                       DB $07,$0F,$00,$00,$1B,$01,$0B,$08
      86.  0A:81C0  07 0F 00 00 1B 01 0B 08 
      87.  0A:81C8                       DB $0F,$09,$0F,$00,$00,$16,$03,$00
      87.  0A:81C8  0F 09 0F 00 00 16 03 00 
      88.  0A:81D0                       DB $A0,$E0,$00,$00,$F0,$F0,$60,$60
      88.  0A:81D0  A0 E0 00 00 F0 F0 60 60 
      89.  0A:81D8                       DB $A0,$E0,$60,$00,$00,$20,$20,$00
      89.  0A:81D8  A0 E0 60 00 00 20 20 00 
      90.  0A:81E0                      
      91.  0A:81E0                      ;
      92.  0A:81E0                      ; --- Slot 5
      93.  0A:81E0                      ; mask 50
      94.  0A:81E0                       DB $04,$01,$1F,$04,$04,$0E,$04,$07
      94.  0A:81E0  04 01 1F 04 04 0E 04 07 
      95.  0A:81E8                       DB $02,$00,$04,$11,$11,$06,$09,$0F
      95.  0A:81E8  02 00 04 11 11 06 09 0F 
      96.  0A:81F0                       DB $80,$00,$E0,$00,$00,$00,$80,$80
      96.  0A:81F0  80 00 E0 00 00 00 80 80 
      97.  0A:81F8                       DB $00,$20,$00,$80,$80,$20,$00,$E0
      97.  0A:81F8  00 20 00 80 80 20 00 E0 
      98.  0A:8200                      ; mask 51
      99.  0A:8200                       DB $0C,$11,$00,$1F,$08,$00,$01,$08
      99.  0A:8200  0C 11 00 1F 08 00 01 08 
     100.  0A:8208                       DB $05,$02,$03,$06,$1F,$09,$14,$00
     100.  0A:8208  05 02 03 06 1F 09 14 00 
     101.  0A:8210                       DB $C0,$00,$00,$F0,$00,$A0,$20,$40
     101.  0A:8210  C0 00 00 F0 00 A0 20 40 
     102.  0A:8218                       DB $00,$E0,$80,$40,$E0,$C0,$C0,$00
     102.  0A:8218  00 E0 80 40 E0 C0 C0 00 
     103.  0A:8220                      ; mask 52
     104.  0A:8220                       DB $07,$0F,$00,$00,$1B,$01,$0B,$08
     104.  0A:8220  07 0F 00 00 1B 01 0B 08 
     105.  0A:8228                       DB $0D,$0D,$08,$08,$00,$00,$02,$00
     105.  0A:8228  0D 0D 08 08 00 00 02 00 
     106.  0A:8230                       DB $A0,$E0,$00,$00,$F0,$F0,$60,$60
     106.  0A:8230  A0 E0 00 00 F0 F0 60 60 
     107.  0A:8238                       DB $E0,$00,$60,$20,$00,$00,$20,$00
     107.  0A:8238  E0 00 60 20 00 00 20 00 
     108.  0A:8240                      
     109.  0A:8240                      .ATRIBUTOS
     110.  0A:8240                      ; attr 00
     111.  0A:8240                       DB $0C,$0E,$01,$0A,$0C,$0C,$0C,$0C
     111.  0A:8240  0C 0E 01 0A 0C 0C 0C 0C 
     112.  0A:8248                       DB $0C,$04,$04,$0C,$08,$04,$04,$01
     112.  0A:8248  0C 04 04 0C 08 04 04 01 
     113.  0A:8250                      ; attr 01
     114.  0A:8250                       DB $42,$41,$00,$41,$4A,$4A,$4A,$4A
     114.  0A:8250  42 41 00 41 4A 4A 4A 4A 
     115.  0A:8258                       DB $4A,$42,$42,$42,$42,$42,$42,$00
     115.  0A:8258  4A 42 42 42 42 42 42 00 
     116.  0A:8260                      ; attr 02
     117.  0A:8260                       DB $41,$00,$00,$00,$41,$41,$41,$41
     117.  0A:8260  41 00 00 00 41 41 41 41 
     118.  0A:8268                       DB $41,$41,$41,$41,$41,$41,$41,$00
     118.  0A:8268  41 41 41 41 41 41 41 00 
     119.  0A:8270                      ; attr 10
     120.  0A:8270                       DB $0C,$0C,$01,$0A,$0C,$0C,$0C,$0C
     120.  0A:8270  0C 0C 01 0A 0C 0C 0C 0C 
     121.  0A:8278                       DB $08,$08,$08,$02,$02,$04,$04,$01
     121.  0A:8278  08 08 08 02 02 04 04 01 
     122.  0A:8280                      ; attr 11
     123.  0A:8280                       DB $42,$42,$00,$41,$4A,$4A,$4A,$4A
     123.  0A:8280  42 42 00 41 4A 4A 4A 4A 
     124.  0A:8288                       DB $42,$44,$42,$41,$41,$42,$42,$00
     124.  0A:8288  42 44 42 41 41 42 42 00 
     125.  0A:8290                      ; attr 12
     126.  0A:8290                       DB $41,$41,$00,$00,$41,$41,$41,$41
     126.  0A:8290  41 41 00 00 41 41 41 41 
     127.  0A:8298                       DB $41,$42,$41,$00,$00,$41,$41,$00
     127.  0A:8298  41 42 41 00 00 41 41 00 
     128.  0A:82A0                      ; attr 20
     129.  0A:82A0                       DB $0C,$0C,$01,$0A,$0C,$0C,$0C,$0C
     129.  0A:82A0  0C 0C 01 0A 0C 0C 0C 0C 
     130.  0A:82A8                       DB $0C,$04,$04,$0C,$0A,$02,$04,$01
     130.  0A:82A8  0C 04 04 0C 0A 02 04 01 
     131.  0A:82B0                      ; attr 21
     132.  0A:82B0                       DB $42,$42,$00,$41,$4A,$4A,$4A,$4A
     132.  0A:82B0  42 42 00 41 4A 4A 4A 4A 
     133.  0A:82B8                       DB $4A,$42,$42,$42,$41,$41,$42,$00
     133.  0A:82B8  4A 42 42 42 41 41 42 00 
     134.  0A:82C0                      ; attr 22
     135.  0A:82C0                       DB $41,$41,$00,$00,$41,$41,$41,$41
     135.  0A:82C0  41 41 00 00 41 41 41 41 
     136.  0A:82C8                       DB $41,$41,$41,$41,$00,$00,$41,$00
     136.  0A:82C8  41 41 41 41 00 00 41 00 
     137.  0A:82D0                      ; attr 30
     138.  0A:82D0                       DB $0C,$0E,$01,$0A,$0C,$0C,$0C,$0C
     138.  0A:82D0  0C 0E 01 0A 0C 0C 0C 0C 
     139.  0A:82D8                       DB $0C,$04,$04,$0C,$08,$04,$04,$01
     139.  0A:82D8  0C 04 04 0C 08 04 04 01 
     140.  0A:82E0                      ; attr 31
     141.  0A:82E0                       DB $42,$41,$00,$41,$4A,$4A,$4A,$4A
     141.  0A:82E0  42 41 00 41 4A 4A 4A 4A 
     142.  0A:82E8                       DB $4A,$42,$42,$42,$42,$42,$42,$00
     142.  0A:82E8  4A 42 42 42 42 42 42 00 
     143.  0A:82F0                      ; attr 32
     144.  0A:82F0                       DB $41,$00,$00,$00,$41,$41,$41,$41
     144.  0A:82F0  41 00 00 00 41 41 41 41 
     145.  0A:82F8                       DB $41,$41,$41,$41,$41,$41,$41,$00
     145.  0A:82F8  41 41 41 41 41 41 41 00 
     146.  0A:8300                      ; attr 40
     147.  0A:8300                       DB $0C,$0C,$01,$0A,$0C,$0C,$0C,$0C
     147.  0A:8300  0C 0C 01 0A 0C 0C 0C 0C 
     148.  0A:8308                       DB $08,$08,$08,$02,$02,$04,$04,$01
     148.  0A:8308  08 08 08 02 02 04 04 01 
     149.  0A:8310                      ; attr 41
     150.  0A:8310                       DB $42,$42,$00,$41,$4A,$4A,$4A,$4A
     150.  0A:8310  42 42 00 41 4A 4A 4A 4A 
     151.  0A:8318                       DB $42,$44,$42,$41,$41,$42,$42,$00
     151.  0A:8318  42 44 42 41 41 42 42 00 
     152.  0A:8320                      ; attr 42
     153.  0A:8320                       DB $41,$41,$00,$00,$41,$41,$41,$41
     153.  0A:8320  41 41 00 00 41 41 41 41 
     154.  0A:8328                       DB $41,$42,$41,$00,$00,$41,$41,$00
     154.  0A:8328  41 42 41 00 00 41 41 00 
     155.  0A:8330                      ; attr 50
     156.  0A:8330                       DB $0C,$0C,$01,$0A,$0C,$0C,$0C,$0C
     156.  0A:8330  0C 0C 01 0A 0C 0C 0C 0C 
     157.  0A:8338                       DB $0C,$04,$04,$0C,$0A,$02,$04,$01
     157.  0A:8338  0C 04 04 0C 0A 02 04 01 
     158.  0A:8340                      ; attr 51
     159.  0A:8340                       DB $42,$42,$00,$41,$4A,$4A,$4A,$4A
     159.  0A:8340  42 42 00 41 4A 4A 4A 4A 
     160.  0A:8348                       DB $4A,$42,$42,$42,$41,$41,$42,$00
     160.  0A:8348  4A 42 42 42 41 41 42 00 
     161.  0A:8350                      ; attr 52
     162.  0A:8350                       DB $41,$41,$00,$00,$41,$41,$41,$41
     162.  0A:8350  41 41 00 00 41 41 41 41 
     163.  0A:8358                       DB $41,$41,$41,$41,$00,$00,$41,$00
     163.  0A:8358  41 41 41 41 00 00 41 00 
     164.  0A:8360                      
     165.  0A:8360                      	
     712   0A:8360                      	
     713   0A:8360  (0E)                	page 14
     714   0E:8000                      demo_song:
     715   0E:8000                      	include	".\demosong.asm"
       1.  0E:8000                      ; Compiled using tt_compile.exe V0.1 [02-03-2015]
       2.  0E:8000                      ; Copyright 2015 Richard Cornelisse
       3.  0E:8000                      
       4.  0E:8000                      ; Song: Usas Stage1        - Konami     
       5.  0E:8000                      ; By:   Arr. by Gryzor87        (c) 2013
       6.  0E:8000                      
       7.  0E:8000                      ;	org $c000
       8.  0E:8000                      
       9.  0E:8000                      ; [ Song start data ]
      10.  0E:8000  09                  	db $09				; Initial song speed.
      11.  0E:8001  79 80               	dw .waveform_start 			; Start of the waveform data.
      12.  0E:8003  99 82               	dw .instrument_start 			; Start of the instrument data.
      13.  0E:8005                      
      14.  0E:8005                      ; [ Song order pointer list ]
      15.  0E:8005                      .restart:
      16.  0E:8005                      		dw .track_0,.track_1,.track_2,.track_3,.track_4,.track_5,.track_6,.track_7		; Sequence step 0 /pattern 0
      16.  0E:8005  61 85 C1 85 FA 85 28 86 5A 86 96 86 D8 86 32 87 
      17.  0E:8015                      		dw .track_8,.track_9,.track_10,.track_11,.track_12,.track_13,.track_14,.track_15		; Sequence step 1 /pattern 1
      17.  0E:8015  63 87 C4 87 F8 87 21 88 4D 88 84 88 B7 88 19 89 
      18.  0E:8025                      		dw .track_16,.track_17,.track_18,.track_19,.track_20,.track_21,.track_22,.track_23		; Sequence step 2 /pattern 2
      18.  0E:8025  51 89 BD 89 F9 89 3B 8A 77 8A BD 8A F7 8A 52 8B 
      19.  0E:8035                      		dw .track_16,.track_24,.track_25,.track_26,.track_27,.track_28,.track_29,.track_30		; Sequence step 3 /pattern 3
      19.  0E:8035  51 89 97 8B CC 8B 07 8C 3C 8C 7D 8C BC 8C 23 8D 
      20.  0E:8045                      		dw .track_8,.track_31,.track_32,.track_33,.track_34,.track_35,.track_36,.track_37		; Sequence step 4 /pattern 4
      20.  0E:8045  63 87 5B 8D 8A 8D BB 8D EA 8D 26 8E 65 8E B7 8E 
      21.  0E:8055                      		dw .track_38,.track_39,.track_40,.track_41,.track_42,.track_43,.track_44,.track_45		; Sequence step 5 /pattern 5
      21.  0E:8055  EB 8E 47 8F 7E 8F A5 8F D9 8F 0D 90 51 90 9F 90 
      22.  0E:8065                      		dw .track_8,.track_31,.track_32,.track_33,.track_34,.track_35,.track_36,.track_37		; Sequence step 6 /pattern 4
      22.  0E:8065  63 87 5B 8D 8A 8D BB 8D EA 8D 26 8E 65 8E B7 8E 
      23.  0E:8075  00 00 05 80         		dw 0x0000, .restart			; End of sequence delimiter + restart address.
      24.  0E:8079                      
      25.  0E:8079                      .waveform_start:
      26.  0E:8079                      	db $00,$00,$00,$00,$00,$00,$00,$00,$00,$00,$00,$00,$00,$00,$00,$00,$00,$00,$00,$00,$00,$00,$00,$00,$00,$00,$00,$00,$00,$00,$00,$00	; Waveform 0
      26.  0E:8079  00 00 00 00 00 00 00 00 00 00 00 00 00 00 00 00 
      26.  0E:8089  00 00 00 00 00 00 00 00 00 00 00 00 00 00 00 00 
      27.  0E:8099                      	db $80,$B0,$C0,$10,$1A,$2A,$2C,$1A,$00,$E0,$D0,$E0,$22,$53,$70,$75,$70,$31,$EA,$80,$88,$8A,$8C,$8E,$00,$7F,$75,$73,$62,$00,$C0,$90	; Waveform 1
      27.  0E:8099  80 B0 C0 10 1A 2A 2C 1A 00 E0 D0 E0 22 53 70 75 
      27.  0E:80A9  70 31 EA 80 88 8A 8C 8E 00 7F 75 73 62 00 C0 90 
      28.  0E:80B9                      	db $30,$50,$50,$30,$00,$00,$10,$40,$60,$70,$60,$30,$F0,$E0,$E0,$00,$20,$20,$10,$C0,$A0,$90,$A0,$C0,$00,$00,$D0,$B0,$B0,$D0,$00,$00	; Waveform 2
      28.  0E:80B9  30 50 50 30 00 00 10 40 60 70 60 30 F0 E0 E0 00 
      28.  0E:80C9  20 20 10 C0 A0 90 A0 C0 00 00 D0 B0 B0 D0 00 00 
      29.  0E:80D9                      	db $AA,$AA,$AA,$AA,$EE,$EE,$EE,$EE,$EE,$FF,$FF,$FF,$FF,$CC,$CC,$CC,$CC,$C5,$55,$55,$55,$77,$77,$77,$77,$88,$88,$88,$88,$88,$88,$88	; Waveform 3
      29.  0E:80D9  AA AA AA AA EE EE EE EE EE FF FF FF FF CC CC CC 
      29.  0E:80E9  CC C5 55 55 55 77 77 77 77 88 88 88 88 88 88 88 
      30.  0E:80F9                      	db $17,$77,$47,$5F,$27,$E7,$A7,$2F,$6F,$B7,$FF,$E7,$1F,$0F,$4F,$DF,$EF,$F7,$E7,$CF,$E7,$67,$47,$DF,$17,$97,$B7,$EF,$DF,$D7,$E7,$FF	; Waveform 4
      30.  0E:80F9  17 77 47 5F 27 E7 A7 2F 6F B7 FF E7 1F 0F 4F DF 
      30.  0E:8109  EF F7 E7 CF E7 67 47 DF 17 97 B7 EF DF D7 E7 FF 
      31.  0E:8119                      	db $00,$40,$7F,$40,$01,$C0,$81,$C0,$01,$40,$7F,$40,$01,$C0,$01,$40,$01,$E0,$01,$20,$01,$F0,$01,$10,$01,$FF,$FF,$FF,$FF,$40,$40,$40	; Waveform 5
      31.  0E:8119  00 40 7F 40 01 C0 81 C0 01 40 7F 40 01 C0 01 40 
      31.  0E:8129  01 E0 01 20 01 F0 01 10 01 FF FF FF FF 40 40 40 
      32.  0E:8139                      	db $00,$19,$31,$47,$5A,$6A,$75,$7D,$7F,$7D,$75,$6A,$5A,$47,$31,$19,$00,$E0,$C0,$A0,$80,$A0,$C0,$E0,$00,$20,$40,$60,$7F,$60,$40,$20	; Waveform 6
      32.  0E:8139  00 19 31 47 5A 6A 75 7D 7F 7D 75 6A 5A 47 31 19 
      32.  0E:8149  00 E0 C0 A0 80 A0 C0 E0 00 20 40 60 7F 60 40 20 
      33.  0E:8159                      	db $00,$4E,$62,$6D,$75,$7A,$7D,$7E,$7F,$7E,$7D,$7A,$75,$6D,$62,$4E,$00,$B1,$9D,$92,$8A,$85,$82,$81,$80,$81,$82,$85,$8A,$92,$9D,$B1	; Waveform 7
      33.  0E:8159  00 4E 62 6D 75 7A 7D 7E 7F 7E 7D 7A 75 6D 62 4E 
      33.  0E:8169  00 B1 9D 92 8A 85 82 81 80 81 82 85 8A 92 9D B1 
      34.  0E:8179                      	db $00,$19,$31,$47,$5A,$6A,$75,$7D,$7F,$7D,$75,$6A,$5A,$47,$31,$19,$80,$90,$A0,$B0,$C0,$D0,$E0,$F0,$00,$10,$20,$30,$40,$50,$60,$70	; Waveform 8
      34.  0E:8179  00 19 31 47 5A 6A 75 7D 7F 7D 75 6A 5A 47 31 19 
      34.  0E:8189  80 90 A0 B0 C0 D0 E0 F0 00 10 20 30 40 50 60 70 
      35.  0E:8199                      	db $00,$F8,$F0,$E8,$E0,$D8,$D0,$C8,$C0,$B8,$B0,$A8,$A0,$98,$90,$88,$80,$7F,$70,$68,$60,$58,$50,$48,$40,$38,$30,$28,$20,$18,$10,$08	; Waveform 9
      35.  0E:8199  00 F8 F0 E8 E0 D8 D0 C8 C0 B8 B0 A8 A0 98 90 88 
      35.  0E:81A9  80 7F 70 68 60 58 50 48 40 38 30 28 20 18 10 08 
      36.  0E:81B9                      	db $00,$F0,$E0,$D0,$C0,$B0,$A0,$90,$80,$80,$80,$80,$80,$80,$80,$80,$80,$80,$80,$80,$80,$80,$80,$80,$7F,$70,$60,$50,$40,$30,$20,$10	; Waveform 10
      36.  0E:81B9  00 F0 E0 D0 C0 B0 A0 90 80 80 80 80 80 80 80 80 
      36.  0E:81C9  80 80 80 80 80 80 80 80 7F 70 60 50 40 30 20 10 
      37.  0E:81D9                      	db $01,$2A,$40,$50,$5C,$68,$70,$78,$7F,$78,$70,$68,$5C,$50,$40,$2A,$FF,$D6,$C0,$B0,$A4,$98,$90,$88,$81,$88,$90,$98,$A4,$B0,$C0,$D6	; Waveform 11
      37.  0E:81D9  01 2A 40 50 5C 68 70 78 7F 78 70 68 5C 50 40 2A 
      37.  0E:81E9  FF D6 C0 B0 A4 98 90 88 81 88 90 98 A4 B0 C0 D6 
      38.  0E:81F9                      	db $4F,$5F,$67,$6F,$77,$77,$77,$77,$77,$6F,$5F,$4F,$3F,$27,$17,$07,$F7,$E7,$D7,$C7,$AF,$97,$87,$87,$87,$87,$87,$87,$8F,$97,$9F,$AF	; Waveform 12
      38.  0E:81F9  4F 5F 67 6F 77 77 77 77 77 6F 5F 4F 3F 27 17 07 
      38.  0E:8209  F7 E7 D7 C7 AF 97 87 87 87 87 87 87 8F 97 9F AF 
      39.  0E:8219                      	db $00,$19,$31,$47,$5A,$6A,$75,$7D,$7F,$7D,$75,$6A,$5A,$47,$31,$19,$80,$90,$A0,$B0,$C0,$D0,$E0,$F0,$00,$10,$20,$30,$40,$50,$60,$70	; Waveform 13
      39.  0E:8219  00 19 31 47 5A 6A 75 7D 7F 7D 75 6A 5A 47 31 19 
      39.  0E:8229  80 90 A0 B0 C0 D0 E0 F0 00 10 20 30 40 50 60 70 
      40.  0E:8239                      	db $00,$F0,$E0,$D0,$C0,$B0,$A0,$90,$80,$70,$60,$50,$40,$30,$20,$10,$00,$F0,$E0,$D0,$C0,$B0,$A0,$90,$80,$70,$60,$50,$40,$30,$20,$10	; Waveform 14
      40.  0E:8239  00 F0 E0 D0 C0 B0 A0 90 80 70 60 50 40 30 20 10 
      40.  0E:8249  00 F0 E0 D0 C0 B0 A0 90 80 70 60 50 40 30 20 10 
      41.  0E:8259                      	db $80,$C8,$20,$7F,$30,$C8,$80,$90,$A8,$C0,$E0,$00,$20,$38,$50,$60,$70,$78,$7C,$7F,$7C,$78,$70,$60,$50,$38,$20,$00,$E0,$C0,$A8,$90	; Waveform 15
      41.  0E:8259  80 C8 20 7F 30 C8 80 90 A8 C0 E0 00 20 38 50 60 
      41.  0E:8269  70 78 7C 7F 7C 78 70 60 50 38 20 00 E0 C0 A8 90 
      42.  0E:8279                      	db $00,$F8,$F0,$E8,$E0,$D8,$D0,$C8,$C0,$B8,$B0,$A8,$A0,$98,$90,$20,$00,$E0,$C0,$A0,$80,$A0,$C0,$E0,$00,$20,$40,$60,$7F,$60,$40,$20	; Waveform 16
      42.  0E:8279  00 F8 F0 E8 E0 D8 D0 C8 C0 B8 B0 A8 A0 98 90 20 
      42.  0E:8289  00 E0 C0 A0 80 A0 C0 E0 00 20 40 60 7F 60 40 20 
      43.  0E:8299                      
      44.  0E:8299                      .instrument_start:
      45.  0E:8299                      	dw .ins_1,.ins_2,.ins_3,.ins_4,.ins_5,.ins_6,.ins_7,.ins_8,.ins_9,.ins_10,.ins_11,.ins_12,.ins_13,.ins_14,.ins_15,.ins_16,.ins_17,.ins_18,.ins_19,.ins_20,.ins_21,.ins_22,.ins_23,.ins_24,.ins_25,.ins_26,.ins_27,.ins_28,.ins_29,.ins_30,.ins_31
      45.  0E:8299  D7 82 DD 82 0D 83 15 83 1E 83 1E 83 2E 83 4A 83 
      45.  0E:82A9  5E 83 AC 83 D6 83 00 84 14 84 30 84 44 84 6E 84 
      45.  0E:82B9  82 84 82 84 98 84 98 84 AC 84 BC 84 BC 84 BC 84 
      45.  0E:82C9  12 85 12 85 3C 85 51 85 51 85 51 85 51 85 
      46.  0E:82D7                      .ins_1:
      47.  0E:82D7  00                  		db 0					; Waveform
      48.  0E:82D8  02                  		db .rst_i1-(.ins_1 +2)		; Restart
      49.  0E:82D9  11 0F               		db $11,$0F
      50.  0E:82DB                      .rst_i1:
      51.  0E:82DB  89 00               		db $89,$00
      52.  0E:82DD                      .ins_2:
      53.  0E:82DD  00                  		db 0					; Waveform
      54.  0E:82DE  2C                  		db .rst_i2-(.ins_2 +2)		; Restart
      55.  0E:82DF  11 0F               		db $11,$0F
      56.  0E:82E1  85 0F FF FF         		db $85,$0F,$FF,$FF
      57.  0E:82E5  A5 0E 07 FF FF      		db $A5,$0E,$07,$FF,$FF
      58.  0E:82EA  85 0D FF FF         		db $85,$0D,$FF,$FF
      59.  0E:82EE  A5 0D 09 FF FF      		db $A5,$0D,$09,$FF,$FF
      60.  0E:82F3  85 0C FF FF         		db $85,$0C,$FF,$FF
      61.  0E:82F7  85 0C FF FF         		db $85,$0C,$FF,$FF
      62.  0E:82FB  85 0B 07 00         		db $85,$0B,$07,$00
      63.  0E:82FF  81 0B               		db $81,$0B
      64.  0E:8301  81 0A               		db $81,$0A
      65.  0E:8303  81 0A               		db $81,$0A
      66.  0E:8305  81 08               		db $81,$08
      67.  0E:8307  81 06               		db $81,$06
      68.  0E:8309  81 05               		db $81,$05
      69.  0E:830B                      .rst_i2:
      70.  0E:830B  89 02               		db $89,$02
      71.  0E:830D                      .ins_3:
      72.  0E:830D  00                  		db 0					; Waveform
      73.  0E:830E  04                  		db .rst_i3-(.ins_3 +2)		; Restart
      74.  0E:830F  91 0E               		db $91,$0E
      75.  0E:8311  91 06               		db $91,$06
      76.  0E:8313                      .rst_i3:
      77.  0E:8313  99 00               		db $99,$00
      78.  0E:8315                      .ins_4:
      79.  0E:8315  00                  		db 0					; Waveform
      80.  0E:8316  06                  		db .rst_i4-(.ins_4 +2)		; Restart
      81.  0E:8317  91 0E               		db $91,$0E
      82.  0E:8319  91 0E               		db $91,$0E
      83.  0E:831B  91 0C               		db $91,$0C
      84.  0E:831D                      .rst_i4:
      85.  0E:831D  98                  		db $98
      86.  0E:831E                      .ins_5:
      87.  0E:831E                      .ins_6:
      88.  0E:831E  00                  		db 0					; Waveform
      89.  0E:831F  08                  		db .rst_i6-(.ins_6 +2)		; Restart
      90.  0E:8320  15 0F 2F 00         		db $15,$0F,$2F,$00
      91.  0E:8324  15 0E 2F 00         		db $15,$0E,$2F,$00
      92.  0E:8328                      .rst_i6:
      93.  0E:8328  14 2F 00            		db $14,$2F,$00
      94.  0E:832B  1C 2F 00            		db $1C,$2F,$00
      95.  0E:832E                      .ins_7:
      96.  0E:832E  00                  		db 0					; Waveform
      97.  0E:832F  10                  		db .rst_i7-(.ins_7 +2)		; Restart
      98.  0E:8330  11 0E               		db $11,$0E
      99.  0E:8332  11 0C               		db $11,$0C
     100.  0E:8334  11 0C               		db $11,$0C
     101.  0E:8336  11 0C               		db $11,$0C
     102.  0E:8338  11 0C               		db $11,$0C
     103.  0E:833A  11 0C               		db $11,$0C
     104.  0E:833C  11 0C               		db $11,$0C
     105.  0E:833E  11 0A               		db $11,$0A
     106.  0E:8340                      .rst_i7:
     107.  0E:8340  11 09               		db $11,$09
     108.  0E:8342  11 0A               		db $11,$0A
     109.  0E:8344  11 0A               		db $11,$0A
     110.  0E:8346  11 0A               		db $11,$0A
     111.  0E:8348  19 0A               		db $19,$0A
     112.  0E:834A                      .ins_8:
     113.  0E:834A  00                  		db 0					; Waveform
     114.  0E:834B  10                  		db .rst_i8-(.ins_8 +2)		; Restart
     115.  0E:834C  11 0A               		db $11,$0A
     116.  0E:834E  11 0B               		db $11,$0B
     117.  0E:8350  11 0C               		db $11,$0C
     118.  0E:8352  11 0D               		db $11,$0D
     119.  0E:8354  11 0E               		db $11,$0E
     120.  0E:8356  11 0F               		db $11,$0F
     121.  0E:8358  11 0F               		db $11,$0F
     122.  0E:835A  11 0F               		db $11,$0F
     123.  0E:835C                      .rst_i8:
     124.  0E:835C  19 0F               		db $19,$0F
     125.  0E:835E                      .ins_9:
     126.  0E:835E  00                  		db 0					; Waveform
     127.  0E:835F  28                  		db .rst_i9-(.ins_9 +2)		; Restart
     128.  0E:8360  11 0A               		db $11,$0A
     129.  0E:8362  11 0B               		db $11,$0B
     130.  0E:8364  11 0C               		db $11,$0C
     131.  0E:8366  11 0D               		db $11,$0D
     132.  0E:8368  11 0E               		db $11,$0E
     133.  0E:836A  11 0F               		db $11,$0F
     134.  0E:836C  11 0F               		db $11,$0F
     135.  0E:836E  11 0F               		db $11,$0F
     136.  0E:8370  11 0F               		db $11,$0F
     137.  0E:8372  11 0F               		db $11,$0F
     138.  0E:8374  11 0F               		db $11,$0F
     139.  0E:8376  11 0F               		db $11,$0F
     140.  0E:8378  11 0E               		db $11,$0E
     141.  0E:837A  11 0E               		db $11,$0E
     142.  0E:837C  11 0E               		db $11,$0E
     143.  0E:837E  11 0E               		db $11,$0E
     144.  0E:8380  11 0E               		db $11,$0E
     145.  0E:8382  11 0D               		db $11,$0D
     146.  0E:8384  11 0D               		db $11,$0D
     147.  0E:8386  11 0D               		db $11,$0D
     148.  0E:8388                      .rst_i9:
     149.  0E:8388  15 0D 01 00         		db $15,$0D,$01,$00
     150.  0E:838C  11 0D               		db $11,$0D
     151.  0E:838E  15 0D 01 00         		db $15,$0D,$01,$00
     152.  0E:8392  11 0D               		db $11,$0D
     153.  0E:8394  15 0D 01 00         		db $15,$0D,$01,$00
     154.  0E:8398  11 0D               		db $11,$0D
     155.  0E:839A  15 0D FF FF         		db $15,$0D,$FF,$FF
     156.  0E:839E  11 0D               		db $11,$0D
     157.  0E:83A0  15 0D FF FF         		db $15,$0D,$FF,$FF
     158.  0E:83A4  11 0D               		db $11,$0D
     159.  0E:83A6  15 0D FF FF         		db $15,$0D,$FF,$FF
     160.  0E:83AA  19 0D               		db $19,$0D
     161.  0E:83AC                      .ins_10:
     162.  0E:83AC  01                  		db 1					; Waveform
     163.  0E:83AD  26                  		db .rst_i10-(.ins_10 +2)		; Restart
     164.  0E:83AE  11 0F               		db $11,$0F
     165.  0E:83B0  11 0A               		db $11,$0A
     166.  0E:83B2  11 0A               		db $11,$0A
     167.  0E:83B4  11 0A               		db $11,$0A
     168.  0E:83B6  11 0A               		db $11,$0A
     169.  0E:83B8  11 0A               		db $11,$0A
     170.  0E:83BA  11 0A               		db $11,$0A
     171.  0E:83BC  11 0A               		db $11,$0A
     172.  0E:83BE  11 0A               		db $11,$0A
     173.  0E:83C0  11 0A               		db $11,$0A
     174.  0E:83C2  11 0A               		db $11,$0A
     175.  0E:83C4  11 07               		db $11,$07
     176.  0E:83C6  11 07               		db $11,$07
     177.  0E:83C8  11 07               		db $11,$07
     178.  0E:83CA  11 07               		db $11,$07
     179.  0E:83CC  11 06               		db $11,$06
     180.  0E:83CE  11 05               		db $11,$05
     181.  0E:83D0  11 04               		db $11,$04
     182.  0E:83D2  11 03               		db $11,$03
     183.  0E:83D4                      .rst_i10:
     184.  0E:83D4  19 02               		db $19,$02
     185.  0E:83D6                      .ins_11:
     186.  0E:83D6  02                  		db 2					; Waveform
     187.  0E:83D7  26                  		db .rst_i11-(.ins_11 +2)		; Restart
     188.  0E:83D8  11 0F               		db $11,$0F
     189.  0E:83DA  11 0E               		db $11,$0E
     190.  0E:83DC  11 0D               		db $11,$0D
     191.  0E:83DE  11 0D               		db $11,$0D
     192.  0E:83E0  11 0D               		db $11,$0D
     193.  0E:83E2  11 0D               		db $11,$0D
     194.  0E:83E4  11 0D               		db $11,$0D
     195.  0E:83E6  11 0C               		db $11,$0C
     196.  0E:83E8  11 0C               		db $11,$0C
     197.  0E:83EA  11 0B               		db $11,$0B
     198.  0E:83EC  11 0B               		db $11,$0B
     199.  0E:83EE  11 0A               		db $11,$0A
     200.  0E:83F0  11 09               		db $11,$09
     201.  0E:83F2  11 08               		db $11,$08
     202.  0E:83F4  11 07               		db $11,$07
     203.  0E:83F6  11 06               		db $11,$06
     204.  0E:83F8  11 05               		db $11,$05
     205.  0E:83FA  11 04               		db $11,$04
     206.  0E:83FC  11 03               		db $11,$03
     207.  0E:83FE                      .rst_i11:
     208.  0E:83FE  19 02               		db $19,$02
     209.  0E:8400                      .ins_12:
     210.  0E:8400  0A                  		db 10					; Waveform
     211.  0E:8401  10                  		db .rst_i12-(.ins_12 +2)		; Restart
     212.  0E:8402  11 0A               		db $11,$0A
     213.  0E:8404  11 0B               		db $11,$0B
     214.  0E:8406  11 0C               		db $11,$0C
     215.  0E:8408  11 0D               		db $11,$0D
     216.  0E:840A  11 0E               		db $11,$0E
     217.  0E:840C  11 0F               		db $11,$0F
     218.  0E:840E  11 0F               		db $11,$0F
     219.  0E:8410  11 0F               		db $11,$0F
     220.  0E:8412                      .rst_i12:
     221.  0E:8412  19 0F               		db $19,$0F
     222.  0E:8414                      .ins_13:
     223.  0E:8414  04                  		db 4					; Waveform
     224.  0E:8415  18                  		db .rst_i13-(.ins_13 +2)		; Restart
     225.  0E:8416  11 0F               		db $11,$0F
     226.  0E:8418  11 09               		db $11,$09
     227.  0E:841A  11 09               		db $11,$09
     228.  0E:841C  11 09               		db $11,$09
     229.  0E:841E  11 09               		db $11,$09
     230.  0E:8420  11 09               		db $11,$09
     231.  0E:8422  11 09               		db $11,$09
     232.  0E:8424  11 08               		db $11,$08
     233.  0E:8426  11 07               		db $11,$07
     234.  0E:8428  11 06               		db $11,$06
     235.  0E:842A  11 05               		db $11,$05
     236.  0E:842C  11 04               		db $11,$04
     237.  0E:842E                      .rst_i13:
     238.  0E:842E  19 03               		db $19,$03
     239.  0E:8430                      .ins_14:
     240.  0E:8430  05                  		db 5					; Waveform
     241.  0E:8431  10                  		db .rst_i14-(.ins_14 +2)		; Restart
     242.  0E:8432  11 03               		db $11,$03
     243.  0E:8434  11 05               		db $11,$05
     244.  0E:8436  11 08               		db $11,$08
     245.  0E:8438  11 0A               		db $11,$0A
     246.  0E:843A  11 0A               		db $11,$0A
     247.  0E:843C  11 0B               		db $11,$0B
     248.  0E:843E  11 0B               		db $11,$0B
     249.  0E:8440  11 0B               		db $11,$0B
     250.  0E:8442                      .rst_i14:
     251.  0E:8442  19 0B               		db $19,$0B
     252.  0E:8444                      .ins_15:
     253.  0E:8444  06                  		db 6					; Waveform
     254.  0E:8445  26                  		db .rst_i15-(.ins_15 +2)		; Restart
     255.  0E:8446  11 0F               		db $11,$0F
     256.  0E:8448  11 08               		db $11,$08
     257.  0E:844A  11 09               		db $11,$09
     258.  0E:844C  11 09               		db $11,$09
     259.  0E:844E  11 09               		db $11,$09
     260.  0E:8450  11 09               		db $11,$09
     261.  0E:8452  11 09               		db $11,$09
     262.  0E:8454  11 09               		db $11,$09
     263.  0E:8456  11 09               		db $11,$09
     264.  0E:8458  11 09               		db $11,$09
     265.  0E:845A  11 09               		db $11,$09
     266.  0E:845C  11 09               		db $11,$09
     267.  0E:845E  11 09               		db $11,$09
     268.  0E:8460  11 08               		db $11,$08
     269.  0E:8462  11 07               		db $11,$07
     270.  0E:8464  11 06               		db $11,$06
     271.  0E:8466  11 05               		db $11,$05
     272.  0E:8468  11 04               		db $11,$04
     273.  0E:846A  11 03               		db $11,$03
     274.  0E:846C                      .rst_i15:
     275.  0E:846C  19 02               		db $19,$02
     276.  0E:846E                      .ins_16:
     277.  0E:846E  0C                  		db 12					; Waveform
     278.  0E:846F  10                  		db .rst_i16-(.ins_16 +2)		; Restart
     279.  0E:8470  11 0A               		db $11,$0A
     280.  0E:8472  11 0B               		db $11,$0B
     281.  0E:8474  11 0D               		db $11,$0D
     282.  0E:8476  11 0C               		db $11,$0C
     283.  0E:8478  11 0E               		db $11,$0E
     284.  0E:847A  11 0E               		db $11,$0E
     285.  0E:847C  11 0E               		db $11,$0E
     286.  0E:847E  11 0E               		db $11,$0E
     287.  0E:8480                      .rst_i16:
     288.  0E:8480  19 0E               		db $19,$0E
     289.  0E:8482                      .ins_17:
     290.  0E:8482                      .ins_18:
     291.  0E:8482  05                  		db 5					; Waveform
     292.  0E:8483  12                  		db .rst_i18-(.ins_18 +2)		; Restart
     293.  0E:8484  11 0F               		db $11,$0F
     294.  0E:8486  11 0C               		db $11,$0C
     295.  0E:8488  11 0C               		db $11,$0C
     296.  0E:848A  11 0A               		db $11,$0A
     297.  0E:848C  11 09               		db $11,$09
     298.  0E:848E  11 07               		db $11,$07
     299.  0E:8490  11 06               		db $11,$06
     300.  0E:8492  11 04               		db $11,$04
     301.  0E:8494  11 02               		db $11,$02
     302.  0E:8496                      .rst_i18:
     303.  0E:8496  19 02               		db $19,$02
     304.  0E:8498                      .ins_19:
     305.  0E:8498                      .ins_20:
     306.  0E:8498  0A                  		db 10					; Waveform
     307.  0E:8499  10                  		db .rst_i20-(.ins_20 +2)		; Restart
     308.  0E:849A  11 0F               		db $11,$0F
     309.  0E:849C  11 0D               		db $11,$0D
     310.  0E:849E  11 0D               		db $11,$0D
     311.  0E:84A0  11 0D               		db $11,$0D
     312.  0E:84A2  11 0D               		db $11,$0D
     313.  0E:84A4  11 0D               		db $11,$0D
     314.  0E:84A6  11 0D               		db $11,$0D
     315.  0E:84A8  11 0D               		db $11,$0D
     316.  0E:84AA                      .rst_i20:
     317.  0E:84AA  19 0D               		db $19,$0D
     318.  0E:84AC                      .ins_21:
     319.  0E:84AC  0B                  		db 11					; Waveform
     320.  0E:84AD  08                  		db .rst_i21-(.ins_21 +2)		; Restart
     321.  0E:84AE  15 0F 2A 00         		db $15,$0F,$2A,$00
     322.  0E:84B2  15 0C 2A 00         		db $15,$0C,$2A,$00
     323.  0E:84B6                      .rst_i21:
     324.  0E:84B6  14 2A 00            		db $14,$2A,$00
     325.  0E:84B9  1C 2A 00            		db $1C,$2A,$00
     326.  0E:84BC                      .ins_22:
     327.  0E:84BC                      .ins_23:
     328.  0E:84BC                      .ins_24:
     329.  0E:84BC  07                  		db 7					; Waveform
     330.  0E:84BD  2C                  		db .rst_i24-(.ins_24 +2)		; Restart
     331.  0E:84BE  11 06               		db $11,$06
     332.  0E:84C0  11 07               		db $11,$07
     333.  0E:84C2  11 08               		db $11,$08
     334.  0E:84C4  11 09               		db $11,$09
     335.  0E:84C6  11 0A               		db $11,$0A
     336.  0E:84C8  11 0A               		db $11,$0A
     337.  0E:84CA  11 0B               		db $11,$0B
     338.  0E:84CC  11 0B               		db $11,$0B
     339.  0E:84CE  11 0C               		db $11,$0C
     340.  0E:84D0  11 0D               		db $11,$0D
     341.  0E:84D2  11 0E               		db $11,$0E
     342.  0E:84D4  11 0F               		db $11,$0F
     343.  0E:84D6  11 0F               		db $11,$0F
     344.  0E:84D8  11 0F               		db $11,$0F
     345.  0E:84DA  11 0F               		db $11,$0F
     346.  0E:84DC  11 0F               		db $11,$0F
     347.  0E:84DE  11 0F               		db $11,$0F
     348.  0E:84E0  11 0F               		db $11,$0F
     349.  0E:84E2  11 0F               		db $11,$0F
     350.  0E:84E4  11 0F               		db $11,$0F
     351.  0E:84E6  11 0F               		db $11,$0F
     352.  0E:84E8  11 0F               		db $11,$0F
     353.  0E:84EA                      .rst_i24:
     354.  0E:84EA  15 0F 01 00         		db $15,$0F,$01,$00
     355.  0E:84EE  15 0F 01 00         		db $15,$0F,$01,$00
     356.  0E:84F2  15 0F 01 00         		db $15,$0F,$01,$00
     357.  0E:84F6  15 0F 01 00         		db $15,$0F,$01,$00
     358.  0E:84FA  15 0F 01 00         		db $15,$0F,$01,$00
     359.  0E:84FE  15 0F FF FF         		db $15,$0F,$FF,$FF
     360.  0E:8502  15 0F FF FF         		db $15,$0F,$FF,$FF
     361.  0E:8506  15 0F FF FF         		db $15,$0F,$FF,$FF
     362.  0E:850A  15 0F FF FF         		db $15,$0F,$FF,$FF
     363.  0E:850E  1D 0F FF FF         		db $1D,$0F,$FF,$FF
     364.  0E:8512                      .ins_25:
     365.  0E:8512                      .ins_26:
     366.  0E:8512  10                  		db 16					; Waveform
     367.  0E:8513  26                  		db .rst_i26-(.ins_26 +2)		; Restart
     368.  0E:8514  11 0F               		db $11,$0F
     369.  0E:8516  11 0E               		db $11,$0E
     370.  0E:8518  11 0D               		db $11,$0D
     371.  0E:851A  11 0D               		db $11,$0D
     372.  0E:851C  11 0D               		db $11,$0D
     373.  0E:851E  11 0D               		db $11,$0D
     374.  0E:8520  11 0D               		db $11,$0D
     375.  0E:8522  11 0C               		db $11,$0C
     376.  0E:8524  11 0C               		db $11,$0C
     377.  0E:8526  11 0B               		db $11,$0B
     378.  0E:8528  11 0B               		db $11,$0B
     379.  0E:852A  11 0A               		db $11,$0A
     380.  0E:852C  11 09               		db $11,$09
     381.  0E:852E  11 08               		db $11,$08
     382.  0E:8530  11 07               		db $11,$07
     383.  0E:8532  11 06               		db $11,$06
     384.  0E:8534  11 05               		db $11,$05
     385.  0E:8536  11 04               		db $11,$04
     386.  0E:8538  11 03               		db $11,$03
     387.  0E:853A                      .rst_i26:
     388.  0E:853A  19 02               		db $19,$02
     389.  0E:853C                      .ins_27:
     390.  0E:853C  04                  		db 4					; Waveform
     391.  0E:853D  10                  		db .rst_i27-(.ins_27 +2)		; Restart
     392.  0E:853E  11 0F               		db $11,$0F
     393.  0E:8540  11 0A               		db $11,$0A
     394.  0E:8542  11 0A               		db $11,$0A
     395.  0E:8544  11 0A               		db $11,$0A
     396.  0E:8546  11 0A               		db $11,$0A
     397.  0E:8548  11 0A               		db $11,$0A
     398.  0E:854A  11 0A               		db $11,$0A
     399.  0E:854C  11 09               		db $11,$09
     400.  0E:854E                      .rst_i27:
     401.  0E:854E  39 09 0B            		db $39,$09,$0B
     402.  0E:8551                      .ins_28:
     403.  0E:8551                      .ins_29:
     404.  0E:8551                      .ins_30:
     405.  0E:8551                      .ins_31:
     406.  0E:8551  0E                  		db 14					; Waveform
     407.  0E:8552  0C                  		db .rst_i31-(.ins_31 +2)		; Restart
     408.  0E:8553  11 0F               		db $11,$0F
     409.  0E:8555  11 0D               		db $11,$0D
     410.  0E:8557  11 0C               		db $11,$0C
     411.  0E:8559  11 0C               		db $11,$0C
     412.  0E:855B  11 0A               		db $11,$0A
     413.  0E:855D  11 08               		db $11,$08
     414.  0E:855F                      .rst_i31:
     415.  0E:855F  19 08               		db $19,$08
     416.  0E:8561                      
     417.  0E:8561                      ; [ Song track data ]
     418.  0E:8561                      .track_0:
     419.  0E:8561  12                  	db $12		;[Note] 19
     420.  0E:8562  6F                  	db $6F		;[Volume] 15
     421.  0E:8563  70                  	db $70		;[Instrument] 1
     422.  0E:8564  C1                  	db $C1		;[Wait] 2
     423.  0E:8565  5F                  	db $5F		;[Note] 96
     424.  0E:8566  6E                  	db $6E		;[Volume] 14
     425.  0E:8567  72                  	db $72		;[Instrument] 3
     426.  0E:8568  C0                  	db $C0		;[Wait] 1
     427.  0E:8569  5F                  	db $5F		;[Note] 96
     428.  0E:856A  6D                  	db $6D		;[Volume] 13
     429.  0E:856B                      				;[Skip delay] 1
     430.  0E:856B  5F                  	db $5F		;[Note] 96
     431.  0E:856C  6E                  	db $6E		;[Volume] 14
     432.  0E:856D  C1                  	db $C1		;[Wait] 2
     433.  0E:856E  5F                  	db $5F		;[Note] 96
     434.  0E:856F  73                  	db $73		;[Instrument] 4
     435.  0E:8570                      				;[Skip delay] 2
     436.  0E:8570  12                  	db $12		;[Note] 19
     437.  0E:8571  6F                  	db $6F		;[Volume] 15
     438.  0E:8572  70                  	db $70		;[Instrument] 1
     439.  0E:8573                      				;[Skip delay] 2
     440.  0E:8573  5F                  	db $5F		;[Note] 96
     441.  0E:8574  6E                  	db $6E		;[Volume] 14
     442.  0E:8575  72                  	db $72		;[Instrument] 3
     443.  0E:8576                      				;[Skip delay] 2
     444.  0E:8576  5F                  	db $5F		;[Note] 96
     445.  0E:8577  6D                  	db $6D		;[Volume] 13
     446.  0E:8578  C0                  	db $C0		;[Wait] 1
     447.  0E:8579  60                  	db $60		;[Note] 97
     448.  0E:857A                      				;[Skip delay] 1
     449.  0E:857A  12                  	db $12		;[Note] 19
     450.  0E:857B  70                  	db $70		;[Instrument] 1
     451.  0E:857C  C1                  	db $C1		;[Wait] 2
     452.  0E:857D  5F                  	db $5F		;[Note] 96
     453.  0E:857E  6E                  	db $6E		;[Volume] 14
     454.  0E:857F  72                  	db $72		;[Instrument] 3
     455.  0E:8580                      				;[Skip delay] 2
     456.  0E:8580  5F                  	db $5F		;[Note] 96
     457.  0E:8581  73                  	db $73		;[Instrument] 4
     458.  0E:8582                      				;[Skip delay] 2
     459.  0E:8582  12                  	db $12		;[Note] 19
     460.  0E:8583  70                  	db $70		;[Instrument] 1
     461.  0E:8584                      				;[Skip delay] 2
     462.  0E:8584  5F                  	db $5F		;[Note] 96
     463.  0E:8585  72                  	db $72		;[Instrument] 3
     464.  0E:8586                      				;[Skip delay] 2
     465.  0E:8586  5F                  	db $5F		;[Note] 96
     466.  0E:8587                      				;[Skip delay] 2
     467.  0E:8587  5F                  	db $5F		;[Note] 96
     468.  0E:8588  C0                  	db $C0		;[Wait] 1
     469.  0E:8589  5F                  	db $5F		;[Note] 96
     470.  0E:858A  6D                  	db $6D		;[Volume] 13
     471.  0E:858B                      				;[Skip delay] 1
     472.  0E:858B  5F                  	db $5F		;[Note] 96
     473.  0E:858C  6E                  	db $6E		;[Volume] 14
     474.  0E:858D  C1                  	db $C1		;[Wait] 2
     475.  0E:858E  5F                  	db $5F		;[Note] 96
     476.  0E:858F                      				;[Skip delay] 2
     477.  0E:858F  12                  	db $12		;[Note] 19
     478.  0E:8590  6F                  	db $6F		;[Volume] 15
     479.  0E:8591  70                  	db $70		;[Instrument] 1
     480.  0E:8592                      				;[Skip delay] 2
     481.  0E:8592  5F                  	db $5F		;[Note] 96
     482.  0E:8593  6E                  	db $6E		;[Volume] 14
     483.  0E:8594  72                  	db $72		;[Instrument] 3
     484.  0E:8595  C0                  	db $C0		;[Wait] 1
     485.  0E:8596  5F                  	db $5F		;[Note] 96
     486.  0E:8597  6D                  	db $6D		;[Volume] 13
     487.  0E:8598                      				;[Skip delay] 1
     488.  0E:8598  5F                  	db $5F		;[Note] 96
     489.  0E:8599  6E                  	db $6E		;[Volume] 14
     490.  0E:859A  C1                  	db $C1		;[Wait] 2
     491.  0E:859B  5F                  	db $5F		;[Note] 96
     492.  0E:859C  73                  	db $73		;[Instrument] 4
     493.  0E:859D                      				;[Skip delay] 2
     494.  0E:859D  1F                  	db $1F		;[Note] 32
     495.  0E:859E  6F                  	db $6F		;[Volume] 15
     496.  0E:859F  71                  	db $71		;[Instrument] 2
     497.  0E:85A0                      				;[Skip delay] 2
     498.  0E:85A0  5F                  	db $5F		;[Note] 96
     499.  0E:85A1  6D                  	db $6D		;[Volume] 13
     500.  0E:85A2  72                  	db $72		;[Instrument] 3
     501.  0E:85A3                      				;[Skip delay] 2
     502.  0E:85A3  5F                  	db $5F		;[Note] 96
     503.  0E:85A4  6A                  	db $6A		;[Volume] 10
     504.  0E:85A5  C0                  	db $C0		;[Wait] 1
     505.  0E:85A6  60                  	db $60		;[Note] 97
     506.  0E:85A7                      				;[Skip delay] 1
     507.  0E:85A7  12                  	db $12		;[Note] 19
     508.  0E:85A8  6F                  	db $6F		;[Volume] 15
     509.  0E:85A9  70                  	db $70		;[Instrument] 1
     510.  0E:85AA  C1                  	db $C1		;[Wait] 2
     511.  0E:85AB  5F                  	db $5F		;[Note] 96
     512.  0E:85AC  6D                  	db $6D		;[Volume] 13
     513.  0E:85AD  72                  	db $72		;[Instrument] 3
     514.  0E:85AE                      				;[Skip delay] 2
     515.  0E:85AE  5F                  	db $5F		;[Note] 96
     516.  0E:85AF  73                  	db $73		;[Instrument] 4
     517.  0E:85B0                      				;[Skip delay] 2
     518.  0E:85B0  12                  	db $12		;[Note] 19
     519.  0E:85B1  70                  	db $70		;[Instrument] 1
     520.  0E:85B2                      				;[Skip delay] 2
     521.  0E:85B2  5F                  	db $5F		;[Note] 96
     522.  0E:85B3  72                  	db $72		;[Instrument] 3
     523.  0E:85B4                      				;[Skip delay] 2
     524.  0E:85B4  5F                  	db $5F		;[Note] 96
     525.  0E:85B5                      				;[Skip delay] 2
     526.  0E:85B5  5F                  	db $5F		;[Note] 96
     527.  0E:85B6  C0                  	db $C0		;[Wait] 1
     528.  0E:85B7  5F                  	db $5F		;[Note] 96
     529.  0E:85B8  6B                  	db $6B		;[Volume] 11
     530.  0E:85B9                      				;[Skip delay] 1
     531.  0E:85B9  23                  	db $23		;[Note] 36
     532.  0E:85BA  6F                  	db $6F		;[Volume] 15
     533.  0E:85BB  75                  	db $75		;[Instrument] 6
     534.  0E:85BC  C1                  	db $C1		;[Wait] 2
     535.  0E:85BD  1D                  	db $1D		;[Note] 30
     536.  0E:85BE  C0                  	db $C0		;[Wait] 1
     537.  0E:85BF  15                  	db $15		;[Note] 22
     538.  0E:85C0                      				;[Skip delay] 1
     539.  0E:85C0  BF                  	db $BF		;[End-Of-Track]
     540.  0E:85C1                      .track_1:
     541.  0E:85C1  18                  	db $18		;[Note] 25
     542.  0E:85C2  6F                  	db $6F		;[Volume] 15
     543.  0E:85C3  76                  	db $76		;[Instrument] 7
     544.  0E:85C4  95 00               	db $95, $00	; track detune
     545.  0E:85C6  C0                  	db $C0		;[Wait] 1
     546.  0E:85C7  94 01               	db $94, $01	; vibrato control
     547.  0E:85C9                      				;[Skip delay] 1
     548.  0E:85C9  13                  	db $13		;[Note] 20
     549.  0E:85CA  C1                  	db $C1		;[Wait] 2
     550.  0E:85CB  15                  	db $15		;[Note] 22
     551.  0E:85CC                      				;[Skip delay] 2
     552.  0E:85CC  18                  	db $18		;[Note] 25
     553.  0E:85CD  C0                  	db $C0		;[Wait] 1
     554.  0E:85CE  A7 55               	db $A7, $55	;[CMD vibrato]
     555.  0E:85D0                      				;[Skip delay] 1
     556.  0E:85D0  B1 02               	db $B1, $02	;[CMD vibrato] rep
     557.  0E:85D2  C1                  	db $C1		;[Wait] 2
     558.  0E:85D3  13                  	db $13		;[Note] 20
     559.  0E:85D4                      				;[Skip delay] 2
     560.  0E:85D4  15                  	db $15		;[Note] 22
     561.  0E:85D5                      				;[Skip delay] 2
     562.  0E:85D5  16                  	db $16		;[Note] 23
     563.  0E:85D6  C2                  	db $C2		;[Wait] 3
     564.  0E:85D7  6B                  	db $6B		;[Volume] 11
     565.  0E:85D8  C0                  	db $C0		;[Wait] 1
     566.  0E:85D9  16                  	db $16		;[Note] 23
     567.  0E:85DA  6F                  	db $6F		;[Volume] 15
     568.  0E:85DB  C1                  	db $C1		;[Wait] 2
     569.  0E:85DC  15                  	db $15		;[Note] 22
     570.  0E:85DD  C3                  	db $C3		;[Wait] 4
     571.  0E:85DE  13                  	db $13		;[Note] 20
     572.  0E:85DF  C1                  	db $C1		;[Wait] 2
     573.  0E:85E0  11                  	db $11		;[Note] 18
     574.  0E:85E1  C3                  	db $C3		;[Wait] 4
     575.  0E:85E2  13                  	db $13		;[Note] 20
     576.  0E:85E3  C1                  	db $C1		;[Wait] 2
     577.  0E:85E4  15                  	db $15		;[Note] 22
     578.  0E:85E5                      				;[Skip delay] 2
     579.  0E:85E5  15                  	db $15		;[Note] 22
     580.  0E:85E6                      				;[Skip delay] 2
     581.  0E:85E6  15                  	db $15		;[Note] 22
     582.  0E:85E7                      				;[Skip delay] 2
     583.  0E:85E7  15                  	db $15		;[Note] 22
     584.  0E:85E8                      				;[Skip delay] 2
     585.  0E:85E8  13                  	db $13		;[Note] 20
     586.  0E:85E9                      				;[Skip delay] 2
     587.  0E:85E9  13                  	db $13		;[Note] 20
     588.  0E:85EA                      				;[Skip delay] 2
     589.  0E:85EA  13                  	db $13		;[Note] 20
     590.  0E:85EB                      				;[Skip delay] 2
     591.  0E:85EB  13                  	db $13		;[Note] 20
     592.  0E:85EC                      				;[Skip delay] 2
     593.  0E:85EC  11                  	db $11		;[Note] 18
     594.  0E:85ED                      				;[Skip delay] 2
     595.  0E:85ED  11                  	db $11		;[Note] 18
     596.  0E:85EE                      				;[Skip delay] 2
     597.  0E:85EE  11                  	db $11		;[Note] 18
     598.  0E:85EF                      				;[Skip delay] 2
     599.  0E:85EF  11                  	db $11		;[Note] 18
     600.  0E:85F0                      				;[Skip delay] 2
     601.  0E:85F0  11                  	db $11		;[Note] 18
     602.  0E:85F1                      				;[Skip delay] 2
     603.  0E:85F1  11                  	db $11		;[Note] 18
     604.  0E:85F2  C0                  	db $C0		;[Wait] 1
     605.  0E:85F3  11                  	db $11		;[Note] 18
     606.  0E:85F4                      				;[Skip delay] 1
     607.  0E:85F4  13                  	db $13		;[Note] 20
     608.  0E:85F5  C1                  	db $C1		;[Wait] 2
     609.  0E:85F6  13                  	db $13		;[Note] 20
     610.  0E:85F7  C0                  	db $C0		;[Wait] 1
     611.  0E:85F8  13                  	db $13		;[Note] 20
     612.  0E:85F9                      				;[Skip delay] 1
     613.  0E:85F9  BF                  	db $BF		;[End-Of-Track]
     614.  0E:85FA                      .track_2:
     615.  0E:85FA  1F                  	db $1F		;[Note] 32
     616.  0E:85FB  6B                  	db $6B		;[Volume] 11
     617.  0E:85FC  78                  	db $78		;[Instrument] 9
     618.  0E:85FD  95 00               	db $95, $00	; track detune
     619.  0E:85FF  C0                  	db $C0		;[Wait] 1
     620.  0E:8600  6C                  	db $6C		;[Volume] 12
     621.  0E:8601  94 01               	db $94, $01	; vibrato control
     622.  0E:8603  C4                  	db $C4		;[Wait] 5
     623.  0E:8604  24                  	db $24		;[Note] 37
     624.  0E:8605  C9                  	db $C9		;[Wait] 10
     625.  0E:8606  1F                  	db $1F		;[Note] 32
     626.  0E:8607  C7                  	db $C7		;[Wait] 8
     627.  0E:8608  26                  	db $26		;[Note] 39
     628.  0E:8609  C5                  	db $C5		;[Wait] 6
     629.  0E:860A  60                  	db $60		;[Note] 97
     630.  0E:860B  C1                  	db $C1		;[Wait] 2
     631.  0E:860C  09                  	db $09		;[Note] 10
     632.  0E:860D  76                  	db $76		;[Instrument] 7
     633.  0E:860E                      				;[Skip delay] 2
     634.  0E:860E  09                  	db $09		;[Note] 10
     635.  0E:860F                      				;[Skip delay] 2
     636.  0E:860F  09                  	db $09		;[Note] 10
     637.  0E:8610                      				;[Skip delay] 2
     638.  0E:8610  09                  	db $09		;[Note] 10
     639.  0E:8611                      				;[Skip delay] 2
     640.  0E:8611  07                  	db $07		;[Note] 8
     641.  0E:8612  6F                  	db $6F		;[Volume] 15
     642.  0E:8613                      				;[Skip delay] 2
     643.  0E:8613  07                  	db $07		;[Note] 8
     644.  0E:8614                      				;[Skip delay] 2
     645.  0E:8614  07                  	db $07		;[Note] 8
     646.  0E:8615                      				;[Skip delay] 2
     647.  0E:8615  07                  	db $07		;[Note] 8
     648.  0E:8616                      				;[Skip delay] 2
     649.  0E:8616  05                  	db $05		;[Note] 6
     650.  0E:8617                      				;[Skip delay] 2
     651.  0E:8617  05                  	db $05		;[Note] 6
     652.  0E:8618                      				;[Skip delay] 2
     653.  0E:8618  05                  	db $05		;[Note] 6
     654.  0E:8619                      				;[Skip delay] 2
     655.  0E:8619  05                  	db $05		;[Note] 6
     656.  0E:861A                      				;[Skip delay] 2
     657.  0E:861A  05                  	db $05		;[Note] 6
     658.  0E:861B  C0                  	db $C0		;[Wait] 1
     659.  0E:861C  6E                  	db $6E		;[Volume] 14
     660.  0E:861D                      				;[Skip delay] 1
     661.  0E:861D  05                  	db $05		;[Note] 6
     662.  0E:861E  6D                  	db $6D		;[Volume] 13
     663.  0E:861F                      				;[Skip delay] 1
     664.  0E:861F  05                  	db $05		;[Note] 6
     665.  0E:8620  6B                  	db $6B		;[Volume] 11
     666.  0E:8621                      				;[Skip delay] 1
     667.  0E:8621  07                  	db $07		;[Note] 8
     668.  0E:8622  6A                  	db $6A		;[Volume] 10
     669.  0E:8623  C1                  	db $C1		;[Wait] 2
     670.  0E:8624  07                  	db $07		;[Note] 8
     671.  0E:8625  C0                  	db $C0		;[Wait] 1
     672.  0E:8626  07                  	db $07		;[Note] 8
     673.  0E:8627                      				;[Skip delay] 1
     674.  0E:8627  BF                  	db $BF		;[End-Of-Track]
     675.  0E:8628                      .track_3:
     676.  0E:8628  18                  	db $18		;[Note] 25
     677.  0E:8629  6F                  	db $6F		;[Volume] 15
     678.  0E:862A  79                  	db $79		;[Instrument] 10
     679.  0E:862B  95 00               	db $95, $00	; track detune
     680.  0E:862D  C0                  	db $C0		;[Wait] 1
     681.  0E:862E  94 01               	db $94, $01	; vibrato control
     682.  0E:8630                      				;[Skip delay] 1
     683.  0E:8630  13                  	db $13		;[Note] 20
     684.  0E:8631  C1                  	db $C1		;[Wait] 2
     685.  0E:8632  15                  	db $15		;[Note] 22
     686.  0E:8633                      				;[Skip delay] 2
     687.  0E:8633  18                  	db $18		;[Note] 25
     688.  0E:8634  C3                  	db $C3		;[Wait] 4
     689.  0E:8635  13                  	db $13		;[Note] 20
     690.  0E:8636  C1                  	db $C1		;[Wait] 2
     691.  0E:8637  15                  	db $15		;[Note] 22
     692.  0E:8638                      				;[Skip delay] 2
     693.  0E:8638  16                  	db $16		;[Note] 23
     694.  0E:8639  C3                  	db $C3		;[Wait] 4
     695.  0E:863A  16                  	db $16		;[Note] 23
     696.  0E:863B  C1                  	db $C1		;[Wait] 2
     697.  0E:863C  15                  	db $15		;[Note] 22
     698.  0E:863D  C3                  	db $C3		;[Wait] 4
     699.  0E:863E  13                  	db $13		;[Note] 20
     700.  0E:863F  C1                  	db $C1		;[Wait] 2
     701.  0E:8640  11                  	db $11		;[Note] 18
     702.  0E:8641  C3                  	db $C3		;[Wait] 4
     703.  0E:8642  13                  	db $13		;[Note] 20
     704.  0E:8643  C1                  	db $C1		;[Wait] 2
     705.  0E:8644  15                  	db $15		;[Note] 22
     706.  0E:8645                      				;[Skip delay] 2
     707.  0E:8645  15                  	db $15		;[Note] 22
     708.  0E:8646                      				;[Skip delay] 2
     709.  0E:8646  15                  	db $15		;[Note] 22
     710.  0E:8647                      				;[Skip delay] 2
     711.  0E:8647  15                  	db $15		;[Note] 22
     712.  0E:8648                      				;[Skip delay] 2
     713.  0E:8648  13                  	db $13		;[Note] 20
     714.  0E:8649                      				;[Skip delay] 2
     715.  0E:8649  13                  	db $13		;[Note] 20
     716.  0E:864A                      				;[Skip delay] 2
     717.  0E:864A  13                  	db $13		;[Note] 20
     718.  0E:864B                      				;[Skip delay] 2
     719.  0E:864B  13                  	db $13		;[Note] 20
     720.  0E:864C                      				;[Skip delay] 2
     721.  0E:864C  11                  	db $11		;[Note] 18
     722.  0E:864D                      				;[Skip delay] 2
     723.  0E:864D  11                  	db $11		;[Note] 18
     724.  0E:864E                      				;[Skip delay] 2
     725.  0E:864E  11                  	db $11		;[Note] 18
     726.  0E:864F                      				;[Skip delay] 2
     727.  0E:864F  11                  	db $11		;[Note] 18
     728.  0E:8650                      				;[Skip delay] 2
     729.  0E:8650  11                  	db $11		;[Note] 18
     730.  0E:8651                      				;[Skip delay] 2
     731.  0E:8651  11                  	db $11		;[Note] 18
     732.  0E:8652  C0                  	db $C0		;[Wait] 1
     733.  0E:8653  11                  	db $11		;[Note] 18
     734.  0E:8654                      				;[Skip delay] 1
     735.  0E:8654  13                  	db $13		;[Note] 20
     736.  0E:8655  C1                  	db $C1		;[Wait] 2
     737.  0E:8656  13                  	db $13		;[Note] 20
     738.  0E:8657  C0                  	db $C0		;[Wait] 1
     739.  0E:8658  13                  	db $13		;[Note] 20
     740.  0E:8659                      				;[Skip delay] 1
     741.  0E:8659  BF                  	db $BF		;[End-Of-Track]
     742.  0E:865A                      .track_4:
     743.  0E:865A  28                  	db $28		;[Note] 41
     744.  0E:865B  68                  	db $68		;[Volume] 8
     745.  0E:865C  89                  	db $89		;[Instrument] 26
     746.  0E:865D  95 00               	db $95, $00	; track detune
     747.  0E:865F  C0                  	db $C0		;[Wait] 1
     748.  0E:8660  94 01               	db $94, $01	; vibrato control
     749.  0E:8662                      				;[Skip delay] 1
     750.  0E:8662  26                  	db $26		;[Note] 39
     751.  0E:8663  C1                  	db $C1		;[Wait] 2
     752.  0E:8664  26                  	db $26		;[Note] 39
     753.  0E:8665                      				;[Skip delay] 2
     754.  0E:8665  28                  	db $28		;[Note] 41
     755.  0E:8666  C3                  	db $C3		;[Wait] 4
     756.  0E:8667  24                  	db $24		;[Note] 37
     757.  0E:8668  C1                  	db $C1		;[Wait] 2
     758.  0E:8669  26                  	db $26		;[Note] 39
     759.  0E:866A                      				;[Skip delay] 2
     760.  0E:866A  28                  	db $28		;[Note] 41
     761.  0E:866B                      				;[Skip delay] 2
     762.  0E:866B  29                  	db $29		;[Note] 42
     763.  0E:866C                      				;[Skip delay] 2
     764.  0E:866C  28                  	db $28		;[Note] 41
     765.  0E:866D                      				;[Skip delay] 2
     766.  0E:866D  28                  	db $28		;[Note] 41
     767.  0E:866E                      				;[Skip delay] 2
     768.  0E:866E  29                  	db $29		;[Note] 42
     769.  0E:866F  C3                  	db $C3		;[Wait] 4
     770.  0E:8670  26                  	db $26		;[Note] 39
     771.  0E:8671  C1                  	db $C1		;[Wait] 2
     772.  0E:8672  28                  	db $28		;[Note] 41
     773.  0E:8673                      				;[Skip delay] 2
     774.  0E:8673  29                  	db $29		;[Note] 42
     775.  0E:8674                      				;[Skip delay] 2
     776.  0E:8674  28                  	db $28		;[Note] 41
     777.  0E:8675                      				;[Skip delay] 2
     778.  0E:8675  24                  	db $24		;[Note] 37
     779.  0E:8676                      				;[Skip delay] 2
     780.  0E:8676  30                  	db $30		;[Note] 49
     781.  0E:8677                      				;[Skip delay] 2
     782.  0E:8677  2D                  	db $2D		;[Note] 46
     783.  0E:8678                      				;[Skip delay] 2
     784.  0E:8678  2B                  	db $2B		;[Note] 44
     785.  0E:8679  C3                  	db $C3		;[Wait] 4
     786.  0E:867A  26                  	db $26		;[Note] 39
     787.  0E:867B  C1                  	db $C1		;[Wait] 2
     788.  0E:867C  26                  	db $26		;[Note] 39
     789.  0E:867D                      				;[Skip delay] 2
     790.  0E:867D  24                  	db $24		;[Note] 37
     791.  0E:867E  C0                  	db $C0		;[Wait] 1
     792.  0E:867F  1D                  	db $1D		;[Note] 30
     793.  0E:8680                      				;[Skip delay] 1
     794.  0E:8680  18                  	db $18		;[Note] 25
     795.  0E:8681  C0                  	db $C0		;[Wait..] 1
     796.  0E:8682  69                  	db $69		;[Volume] 9
     797.  0E:8683                      				;[Skip delay] 1
     798.  0E:8683  68                  	db $68		;[Volume] 8
     799.  0E:8684                      				;[Skip delay] 1
     800.  0E:8684  67                  	db $67		;[Volume] 7
     801.  0E:8685                      				;[Skip delay] 1
     802.  0E:8685  66                  	db $66		;[Volume] 6
     803.  0E:8686                      				;[Skip delay] 1
     804.  0E:8686  64                  	db $64		;[Volume] 4
     805.  0E:8687                      				;[Skip delay] 1
     806.  0E:8687  21                  	db $21		;[Note] 34
     807.  0E:8688  6A                  	db $6A		;[Volume] 10
     808.  0E:8689  81                  	db $81		;[Instrument] 18
     809.  0E:868A  C1                  	db $C1		;[Wait] 2
     810.  0E:868B  21                  	db $21		;[Note] 34
     811.  0E:868C  C0                  	db $C0		;[Wait] 1
     812.  0E:868D  21                  	db $21		;[Note] 34
     813.  0E:868E                      				;[Skip delay] 1
     814.  0E:868E  23                  	db $23		;[Note] 36
     815.  0E:868F  C1                  	db $C1		;[Wait] 2
     816.  0E:8690  23                  	db $23		;[Note] 36
     817.  0E:8691  69                  	db $69		;[Volume] 9
     818.  0E:8692  C0                  	db $C0		;[Wait] 1
     819.  0E:8693  23                  	db $23		;[Note] 36
     820.  0E:8694  67                  	db $67		;[Volume] 7
     821.  0E:8695                      				;[Skip delay] 1
     822.  0E:8695  BF                  	db $BF		;[End-Of-Track]
     823.  0E:8696                      .track_5:
     824.  0E:8696  24                  	db $24		;[Note] 37
     825.  0E:8697  6F                  	db $6F		;[Volume] 15
     826.  0E:8698  87                  	db $87		;[Instrument] 24
     827.  0E:8699  95 00               	db $95, $00	; track detune
     828.  0E:869B  C0                  	db $C0		;[Wait] 1
     829.  0E:869C  94 01               	db $94, $01	; vibrato control
     830.  0E:869E  C4                  	db $C4		;[Wait] 5
     831.  0E:869F  2B                  	db $2B		;[Note] 44
     832.  0E:86A0  C4                  	db $C4		;[Wait..] 5
     833.  0E:86A1  69                  	db $69		;[Volume] 9
     834.  0E:86A2  C1                  	db $C1		;[Wait] 2
     835.  0E:86A3  66                  	db $66		;[Volume] 6
     836.  0E:86A4  C0                  	db $C0		;[Wait] 1
     837.  0E:86A5  64                  	db $64		;[Volume] 4
     838.  0E:86A6                      				;[Skip delay] 1
     839.  0E:86A6  63                  	db $63		;[Volume] 3
     840.  0E:86A7                      				;[Skip delay] 1
     841.  0E:86A7  22                  	db $22		;[Note] 35
     842.  0E:86A8  66                  	db $66		;[Volume] 6
     843.  0E:86A9  C1                  	db $C1		;[Wait] 2
     844.  0E:86AA  68                  	db $68		;[Volume] 8
     845.  0E:86AB  C0                  	db $C0		;[Wait] 1
     846.  0E:86AC  69                  	db $69		;[Volume] 9
     847.  0E:86AD  C4                  	db $C4		;[Wait] 5
     848.  0E:86AE  29                  	db $29		;[Note] 42
     849.  0E:86AF  C4                  	db $C4		;[Wait..] 5
     850.  0E:86B0  66                  	db $66		;[Volume] 6
     851.  0E:86B1  C0                  	db $C0		;[Wait] 1
     852.  0E:86B2  65                  	db $65		;[Volume] 5
     853.  0E:86B3                      				;[Skip delay] 1
     854.  0E:86B3  64                  	db $64		;[Volume] 4
     855.  0E:86B4                      				;[Skip delay] 1
     856.  0E:86B4  24                  	db $24		;[Note] 37
     857.  0E:86B5  68                  	db $68		;[Volume] 8
     858.  0E:86B6  8E                  	db $8E		;[Instrument] 31
     859.  0E:86B7  C1                  	db $C1		;[Wait] 2
     860.  0E:86B8  A5 05               	db $A5, $05; slide-down
     861.  0E:86BA  C0                  	db $C0		;[Wait] 1
     862.  0E:86BB  AF 01               	db $AF, $01; slide-down rep
     863.  0E:86BD                      				;[Skip delay] 1
     864.  0E:86BD  1C                  	db $1C		;[Note] 29
     865.  0E:86BE  C3                  	db $C3		;[Wait] 4
     866.  0E:86BF  23                  	db $23		;[Note] 36
     867.  0E:86C0  C1                  	db $C1		;[Wait] 2
     868.  0E:86C1  A5 05               	db $A5, $05; slide-down
     869.  0E:86C3  C0                  	db $C0		;[Wait] 1
     870.  0E:86C4  AF 01               	db $AF, $01; slide-down rep
     871.  0E:86C6                      				;[Skip delay] 1
     872.  0E:86C6  1C                  	db $1C		;[Note] 29
     873.  0E:86C7  C3                  	db $C3		;[Wait] 4
     874.  0E:86C8  21                  	db $21		;[Note] 34
     875.  0E:86C9                      				;[Skip delay] 4
     876.  0E:86C9  18                  	db $18		;[Note] 25
     877.  0E:86CA  C2                  	db $C2		;[Wait] 3
     878.  0E:86CB  A7 55               	db $A7, $55	;[CMD vibrato]
     879.  0E:86CD  C0                  	db $C0		;[Wait] 1
     880.  0E:86CE  B1 05               	db $B1, $05	;[CMD vibrato] rep
     881.  0E:86D0  C4                  	db $C4		;[Wait] 5
     882.  0E:86D1  A5 10               	db $A5, $10; slide-down
     883.  0E:86D3  C0                  	db $C0		;[Wait] 1
     884.  0E:86D4  AF 02               	db $AF, $02; slide-down rep
     885.  0E:86D6  C1                  	db $C1		;[Wait] 2
     886.  0E:86D7  BF                  	db $BF		;[End-Of-Track]
     887.  0E:86D8                      .track_6:
     888.  0E:86D8  60                  	db $60		;[Note] 97
     889.  0E:86D9  95 00               	db $95, $00	; track detune
     890.  0E:86DB  C0                  	db $C0		;[Wait] 1
     891.  0E:86DC  94 01               	db $94, $01	; vibrato control
     892.  0E:86DE  C2                  	db $C2		;[Wait] 3
     893.  0E:86DF  32                  	db $32		;[Note] 51
     894.  0E:86E0  6D                  	db $6D		;[Volume] 13
     895.  0E:86E1  7B                  	db $7B		;[Instrument] 12
     896.  0E:86E2  C0                  	db $C0		;[Wait] 1
     897.  0E:86E3  34                  	db $34		;[Note] 53
     898.  0E:86E4  A6 10               	db $A6, $10; tone-slide
     899.  0E:86E6                      				;[Skip delay] 1
     900.  0E:86E6  30                  	db $30		;[Note] 49
     901.  0E:86E7  C1                  	db $C1		;[Wait] 2
     902.  0E:86E8  32                  	db $32		;[Note] 51
     903.  0E:86E9                      				;[Skip delay] 2
     904.  0E:86E9  37                  	db $37		;[Note] 56
     905.  0E:86EA  C2                  	db $C2		;[Wait] 3
     906.  0E:86EB  64                  	db $64		;[Volume] 4
     907.  0E:86EC  C0                  	db $C0		;[Wait] 1
     908.  0E:86ED  37                  	db $37		;[Note] 56
     909.  0E:86EE  69                  	db $69		;[Volume] 9
     910.  0E:86EF  C1                  	db $C1		;[Wait] 2
     911.  0E:86F0  37                  	db $37		;[Note] 56
     912.  0E:86F1  C2                  	db $C2		;[Wait] 3
     913.  0E:86F2  A7 55               	db $A7, $55	;[CMD vibrato]
     914.  0E:86F4  C0                  	db $C0		;[Wait] 1
     915.  0E:86F5  B1 02               	db $B1, $02	;[CMD vibrato] rep
     916.  0E:86F7  C1                  	db $C1		;[Wait] 2
     917.  0E:86F8  35                  	db $35		;[Note] 54
     918.  0E:86F9  6F                  	db $6F		;[Volume] 15
     919.  0E:86FA  C0                  	db $C0		;[Wait] 1
     920.  0E:86FB  34                  	db $34		;[Note] 53
     921.  0E:86FC  6E                  	db $6E		;[Volume] 14
     922.  0E:86FD                      				;[Skip delay] 1
     923.  0E:86FD  32                  	db $32		;[Note] 51
     924.  0E:86FE  6D                  	db $6D		;[Volume] 13
     925.  0E:86FF  C2                  	db $C2		;[Wait] 3
     926.  0E:8700  A7 56               	db $A7, $56	;[CMD vibrato]
     927.  0E:8702  C0                  	db $C0		;[Wait] 1
     928.  0E:8703  B1 03               	db $B1, $03	;[CMD vibrato] rep
     929.  0E:8705  C1                  	db $C1		;[Wait] 2
     930.  0E:8706  68                  	db $68		;[Volume] 8
     931.  0E:8707  C0                  	db $C0		;[Wait] 1
     932.  0E:8708  A7 55               	db $A7, $55	;[CMD vibrato]
     933.  0E:870A                      				;[Skip delay] 1
     934.  0E:870A  66                  	db $66		;[Volume] 6
     935.  0E:870B  B1 01               	db $B1, $01	;[CMD vibrato] rep
     936.  0E:870D                      				;[Skip delay] 1
     937.  0E:870D  A5 10               	db $A5, $10; slide-down
     938.  0E:870F                      				;[Skip delay] 1
     939.  0E:870F  64                  	db $64		;[Volume] 4
     940.  0E:8710  AF 02               	db $AF, $02; slide-down rep
     941.  0E:8712                      				;[Skip delay] 1
     942.  0E:8712  63                  	db $63		;[Volume] 3
     943.  0E:8713                      				;[Skip delay] 1
     944.  0E:8713  2D                  	db $2D		;[Note] 46
     945.  0E:8714  6D                  	db $6D		;[Volume] 13
     946.  0E:8715  C1                  	db $C1		;[Wait] 2
     947.  0E:8716  34                  	db $34		;[Note] 53
     948.  0E:8717                      				;[Skip delay] 2
     949.  0E:8717  32                  	db $32		;[Note] 51
     950.  0E:8718  C0                  	db $C0		;[Wait] 1
     951.  0E:8719  A7 55               	db $A7, $55	;[CMD vibrato]
     952.  0E:871B                      				;[Skip delay] 1
     953.  0E:871B  B1 02               	db $B1, $02	;[CMD vibrato] rep
     954.  0E:871D  C1                  	db $C1		;[Wait] 2
     955.  0E:871E  30                  	db $30		;[Note] 49
     956.  0E:871F                      				;[Skip delay] 2
     957.  0E:871F  2F                  	db $2F		;[Note] 48
     958.  0E:8720                      				;[Skip delay] 2
     959.  0E:8720  30                  	db $30		;[Note] 49
     960.  0E:8721  C0                  	db $C0		;[Wait] 1
     961.  0E:8722  2F                  	db $2F		;[Note] 48
     962.  0E:8723                      				;[Skip delay] 1
     963.  0E:8723  2D                  	db $2D		;[Note] 46
     964.  0E:8724  C4                  	db $C4		;[Wait] 5
     965.  0E:8725  68                  	db $68		;[Volume] 8
     966.  0E:8726  A7 55               	db $A7, $55	;[CMD vibrato]
     967.  0E:8728  C0                  	db $C0		;[Wait] 1
     968.  0E:8729  67                  	db $67		;[Volume] 7
     969.  0E:872A  B1 08               	db $B1, $08	;[CMD vibrato] rep
     970.  0E:872C                      				;[Skip delay] 1
     971.  0E:872C  66                  	db $66		;[Volume] 6
     972.  0E:872D                      				;[Skip delay] 1
     973.  0E:872D  65                  	db $65		;[Volume] 5
     974.  0E:872E                      				;[Skip delay] 1
     975.  0E:872E  64                  	db $64		;[Volume] 4
     976.  0E:872F                      				;[Skip delay] 1
     977.  0E:872F  62                  	db $62		;[Volume] 2
     978.  0E:8730  C3                  	db $C3		;[Wait] 4
     979.  0E:8731  BF                  	db $BF		;[End-Of-Track]
     980.  0E:8732                      .track_7:
     981.  0E:8732  60                  	db $60		;[Note] 97
     982.  0E:8733  95 08               	db $95, $08	; track detune
     983.  0E:8735  C5                  	db $C5		;[Wait] 6
     984.  0E:8736  32                  	db $32		;[Note] 51
     985.  0E:8737  65                  	db $65		;[Volume] 5
     986.  0E:8738  7B                  	db $7B		;[Instrument] 12
     987.  0E:8739  C0                  	db $C0		;[Wait] 1
     988.  0E:873A  34                  	db $34		;[Note] 53
     989.  0E:873B  A6 10               	db $A6, $10; tone-slide
     990.  0E:873D                      				;[Skip delay] 1
     991.  0E:873D  30                  	db $30		;[Note] 49
     992.  0E:873E  C1                  	db $C1		;[Wait] 2
     993.  0E:873F  32                  	db $32		;[Note] 51
     994.  0E:8740                      				;[Skip delay] 2
     995.  0E:8740  37                  	db $37		;[Note] 56
     996.  0E:8741  C3                  	db $C3		;[Wait] 4
     997.  0E:8742  37                  	db $37		;[Note] 56
     998.  0E:8743  C1                  	db $C1		;[Wait] 2
     999.  0E:8744  37                  	db $37		;[Note] 56
    1000.  0E:8745  C5                  	db $C5		;[Wait] 6
    1001.  0E:8746  35                  	db $35		;[Note] 54
    1002.  0E:8747  C0                  	db $C0		;[Wait] 1
    1003.  0E:8748  34                  	db $34		;[Note] 53
    1004.  0E:8749                      				;[Skip delay] 1
    1005.  0E:8749  32                  	db $32		;[Note] 51
    1006.  0E:874A  C9                  	db $C9		;[Wait] 10
    1007.  0E:874B  28                  	db $28		;[Note] 41
    1008.  0E:874C  6D                  	db $6D		;[Volume] 13
    1009.  0E:874D  95 00               	db $95, $00	; track detune
    1010.  0E:874F  C1                  	db $C1		;[Wait] 2
    1011.  0E:8750  30                  	db $30		;[Note] 49
    1012.  0E:8751                      				;[Skip delay] 2
    1013.  0E:8751  2B                  	db $2B		;[Note] 44
    1014.  0E:8752  C3                  	db $C3		;[Wait] 4
    1015.  0E:8753  2B                  	db $2B		;[Note] 44
    1016.  0E:8754  C1                  	db $C1		;[Wait] 2
    1017.  0E:8755  2B                  	db $2B		;[Note] 44
    1018.  0E:8756                      				;[Skip delay] 2
    1019.  0E:8756  29                  	db $29		;[Note] 42
    1020.  0E:8757  C0                  	db $C0		;[Wait] 1
    1021.  0E:8758  29                  	db $29		;[Note] 42
    1022.  0E:8759                      				;[Skip delay] 1
    1023.  0E:8759  21                  	db $21		;[Note] 34
    1024.  0E:875A  C4                  	db $C4		;[Wait] 5
    1025.  0E:875B  67                  	db $67		;[Volume] 7
    1026.  0E:875C  C0                  	db $C0		;[Wait] 1
    1027.  0E:875D  66                  	db $66		;[Volume] 6
    1028.  0E:875E                      				;[Skip delay] 1
    1029.  0E:875E  65                  	db $65		;[Volume] 5
    1030.  0E:875F                      				;[Skip delay] 1
    1031.  0E:875F  63                  	db $63		;[Volume] 3
    1032.  0E:8760                      				;[Skip delay] 1
    1033.  0E:8760  62                  	db $62		;[Volume] 2
    1034.  0E:8761  C4                  	db $C4		;[Wait] 5
    1035.  0E:8762  BF                  	db $BF		;[End-Of-Track]
    1036.  0E:8763                      .track_8:
    1037.  0E:8763  12                  	db $12		;[Note] 19
    1038.  0E:8764  6F                  	db $6F		;[Volume] 15
    1039.  0E:8765  70                  	db $70		;[Instrument] 1
    1040.  0E:8766  C1                  	db $C1		;[Wait] 2
    1041.  0E:8767  5F                  	db $5F		;[Note] 96
    1042.  0E:8768  6E                  	db $6E		;[Volume] 14
    1043.  0E:8769  72                  	db $72		;[Instrument] 3
    1044.  0E:876A  C0                  	db $C0		;[Wait] 1
    1045.  0E:876B  5F                  	db $5F		;[Note] 96
    1046.  0E:876C  6D                  	db $6D		;[Volume] 13
    1047.  0E:876D                      				;[Skip delay] 1
    1048.  0E:876D  5F                  	db $5F		;[Note] 96
    1049.  0E:876E  6E                  	db $6E		;[Volume] 14
    1050.  0E:876F  C1                  	db $C1		;[Wait] 2
    1051.  0E:8770  5F                  	db $5F		;[Note] 96
    1052.  0E:8771  73                  	db $73		;[Instrument] 4
    1053.  0E:8772                      				;[Skip delay] 2
    1054.  0E:8772  12                  	db $12		;[Note] 19
    1055.  0E:8773  6F                  	db $6F		;[Volume] 15
    1056.  0E:8774  70                  	db $70		;[Instrument] 1
    1057.  0E:8775                      				;[Skip delay] 2
    1058.  0E:8775  5F                  	db $5F		;[Note] 96
    1059.  0E:8776  6E                  	db $6E		;[Volume] 14
    1060.  0E:8777  72                  	db $72		;[Instrument] 3
    1061.  0E:8778                      				;[Skip delay] 2
    1062.  0E:8778  5F                  	db $5F		;[Note] 96
    1063.  0E:8779  6D                  	db $6D		;[Volume] 13
    1064.  0E:877A  C0                  	db $C0		;[Wait] 1
    1065.  0E:877B  60                  	db $60		;[Note] 97
    1066.  0E:877C                      				;[Skip delay] 1
    1067.  0E:877C  12                  	db $12		;[Note] 19
    1068.  0E:877D  70                  	db $70		;[Instrument] 1
    1069.  0E:877E  C1                  	db $C1		;[Wait] 2
    1070.  0E:877F  5F                  	db $5F		;[Note] 96
    1071.  0E:8780  6E                  	db $6E		;[Volume] 14
    1072.  0E:8781  72                  	db $72		;[Instrument] 3
    1073.  0E:8782                      				;[Skip delay] 2
    1074.  0E:8782  5F                  	db $5F		;[Note] 96
    1075.  0E:8783  73                  	db $73		;[Instrument] 4
    1076.  0E:8784                      				;[Skip delay] 2
    1077.  0E:8784  12                  	db $12		;[Note] 19
    1078.  0E:8785  70                  	db $70		;[Instrument] 1
    1079.  0E:8786                      				;[Skip delay] 2
    1080.  0E:8786  5F                  	db $5F		;[Note] 96
    1081.  0E:8787  72                  	db $72		;[Instrument] 3
    1082.  0E:8788                      				;[Skip delay] 2
    1083.  0E:8788  5F                  	db $5F		;[Note] 96
    1084.  0E:8789                      				;[Skip delay] 2
    1085.  0E:8789  5F                  	db $5F		;[Note] 96
    1086.  0E:878A  C0                  	db $C0		;[Wait] 1
    1087.  0E:878B  5F                  	db $5F		;[Note] 96
    1088.  0E:878C  6D                  	db $6D		;[Volume] 13
    1089.  0E:878D                      				;[Skip delay] 1
    1090.  0E:878D  5F                  	db $5F		;[Note] 96
    1091.  0E:878E  6E                  	db $6E		;[Volume] 14
    1092.  0E:878F  C1                  	db $C1		;[Wait] 2
    1093.  0E:8790  5F                  	db $5F		;[Note] 96
    1094.  0E:8791                      				;[Skip delay] 2
    1095.  0E:8791  12                  	db $12		;[Note] 19
    1096.  0E:8792  6F                  	db $6F		;[Volume] 15
    1097.  0E:8793  70                  	db $70		;[Instrument] 1
    1098.  0E:8794                      				;[Skip delay] 2
    1099.  0E:8794  5F                  	db $5F		;[Note] 96
    1100.  0E:8795  6E                  	db $6E		;[Volume] 14
    1101.  0E:8796  72                  	db $72		;[Instrument] 3
    1102.  0E:8797  C0                  	db $C0		;[Wait] 1
    1103.  0E:8798  5F                  	db $5F		;[Note] 96
    1104.  0E:8799  6D                  	db $6D		;[Volume] 13
    1105.  0E:879A                      				;[Skip delay] 1
    1106.  0E:879A  5F                  	db $5F		;[Note] 96
    1107.  0E:879B  6E                  	db $6E		;[Volume] 14
    1108.  0E:879C  C1                  	db $C1		;[Wait] 2
    1109.  0E:879D  5F                  	db $5F		;[Note] 96
    1110.  0E:879E  73                  	db $73		;[Instrument] 4
    1111.  0E:879F                      				;[Skip delay] 2
    1112.  0E:879F  1F                  	db $1F		;[Note] 32
    1113.  0E:87A0  6F                  	db $6F		;[Volume] 15
    1114.  0E:87A1  71                  	db $71		;[Instrument] 2
    1115.  0E:87A2                      				;[Skip delay] 2
    1116.  0E:87A2  5F                  	db $5F		;[Note] 96
    1117.  0E:87A3  6D                  	db $6D		;[Volume] 13
    1118.  0E:87A4  72                  	db $72		;[Instrument] 3
    1119.  0E:87A5                      				;[Skip delay] 2
    1120.  0E:87A5  5F                  	db $5F		;[Note] 96
    1121.  0E:87A6  6A                  	db $6A		;[Volume] 10
    1122.  0E:87A7  C0                  	db $C0		;[Wait] 1
    1123.  0E:87A8  60                  	db $60		;[Note] 97
    1124.  0E:87A9                      				;[Skip delay] 1
    1125.  0E:87A9  12                  	db $12		;[Note] 19
    1126.  0E:87AA  6F                  	db $6F		;[Volume] 15
    1127.  0E:87AB  70                  	db $70		;[Instrument] 1
    1128.  0E:87AC  C1                  	db $C1		;[Wait] 2
    1129.  0E:87AD  5F                  	db $5F		;[Note] 96
    1130.  0E:87AE  6E                  	db $6E		;[Volume] 14
    1131.  0E:87AF  72                  	db $72		;[Instrument] 3
    1132.  0E:87B0                      				;[Skip delay] 2
    1133.  0E:87B0  1F                  	db $1F		;[Note] 32
    1134.  0E:87B1  71                  	db $71		;[Instrument] 2
    1135.  0E:87B2                      				;[Skip delay] 2
    1136.  0E:87B2  1F                  	db $1F		;[Note] 32
    1137.  0E:87B3  6F                  	db $6F		;[Volume] 15
    1138.  0E:87B4                      				;[Skip delay] 2
    1139.  0E:87B4  1F                  	db $1F		;[Note] 32
    1140.  0E:87B5                      				;[Skip delay] 2
    1141.  0E:87B5  1F                  	db $1F		;[Note] 32
    1142.  0E:87B6                      				;[Skip delay] 2
    1143.  0E:87B6  12                  	db $12		;[Note] 19
    1144.  0E:87B7  70                  	db $70		;[Instrument] 1
    1145.  0E:87B8  C0                  	db $C0		;[Wait] 1
    1146.  0E:87B9  5F                  	db $5F		;[Note] 96
    1147.  0E:87BA  6B                  	db $6B		;[Volume] 11
    1148.  0E:87BB  72                  	db $72		;[Instrument] 3
    1149.  0E:87BC                      				;[Skip delay] 1
    1150.  0E:87BC  1F                  	db $1F		;[Note] 32
    1151.  0E:87BD  6F                  	db $6F		;[Volume] 15
    1152.  0E:87BE  71                  	db $71		;[Instrument] 2
    1153.  0E:87BF  C1                  	db $C1		;[Wait] 2
    1154.  0E:87C0  1F                  	db $1F		;[Note] 32
    1155.  0E:87C1  C0                  	db $C0		;[Wait] 1
    1156.  0E:87C2  1F                  	db $1F		;[Note] 32
    1157.  0E:87C3                      				;[Skip delay] 1
    1158.  0E:87C3  BF                  	db $BF		;[End-Of-Track]
    1159.  0E:87C4                      .track_9:
    1160.  0E:87C4  18                  	db $18		;[Note] 25
    1161.  0E:87C5  6F                  	db $6F		;[Volume] 15
    1162.  0E:87C6  76                  	db $76		;[Instrument] 7
    1163.  0E:87C7  C1                  	db $C1		;[Wait] 2
    1164.  0E:87C8  13                  	db $13		;[Note] 20
    1165.  0E:87C9                      				;[Skip delay] 2
    1166.  0E:87C9  15                  	db $15		;[Note] 22
    1167.  0E:87CA                      				;[Skip delay] 2
    1168.  0E:87CA  18                  	db $18		;[Note] 25
    1169.  0E:87CB  C0                  	db $C0		;[Wait] 1
    1170.  0E:87CC  A7 55               	db $A7, $55	;[CMD vibrato]
    1171.  0E:87CE                      				;[Skip delay] 1
    1172.  0E:87CE  B1 02               	db $B1, $02	;[CMD vibrato] rep
    1173.  0E:87D0  C1                  	db $C1		;[Wait] 2
    1174.  0E:87D1  13                  	db $13		;[Note] 20
    1175.  0E:87D2                      				;[Skip delay] 2
    1176.  0E:87D2  15                  	db $15		;[Note] 22
    1177.  0E:87D3                      				;[Skip delay] 2
    1178.  0E:87D3  16                  	db $16		;[Note] 23
    1179.  0E:87D4  C2                  	db $C2		;[Wait] 3
    1180.  0E:87D5  6B                  	db $6B		;[Volume] 11
    1181.  0E:87D6  C0                  	db $C0		;[Wait] 1
    1182.  0E:87D7  16                  	db $16		;[Note] 23
    1183.  0E:87D8  6F                  	db $6F		;[Volume] 15
    1184.  0E:87D9  C1                  	db $C1		;[Wait] 2
    1185.  0E:87DA  15                  	db $15		;[Note] 22
    1186.  0E:87DB  C3                  	db $C3		;[Wait] 4
    1187.  0E:87DC  13                  	db $13		;[Note] 20
    1188.  0E:87DD  C1                  	db $C1		;[Wait] 2
    1189.  0E:87DE  11                  	db $11		;[Note] 18
    1190.  0E:87DF  C3                  	db $C3		;[Wait] 4
    1191.  0E:87E0  13                  	db $13		;[Note] 20
    1192.  0E:87E1  C1                  	db $C1		;[Wait] 2
    1193.  0E:87E2  15                  	db $15		;[Note] 22
    1194.  0E:87E3                      				;[Skip delay] 2
    1195.  0E:87E3  15                  	db $15		;[Note] 22
    1196.  0E:87E4                      				;[Skip delay] 2
    1197.  0E:87E4  15                  	db $15		;[Note] 22
    1198.  0E:87E5                      				;[Skip delay] 2
    1199.  0E:87E5  15                  	db $15		;[Note] 22
    1200.  0E:87E6                      				;[Skip delay] 2
    1201.  0E:87E6  13                  	db $13		;[Note] 20
    1202.  0E:87E7                      				;[Skip delay] 2
    1203.  0E:87E7  13                  	db $13		;[Note] 20
    1204.  0E:87E8                      				;[Skip delay] 2
    1205.  0E:87E8  13                  	db $13		;[Note] 20
    1206.  0E:87E9                      				;[Skip delay] 2
    1207.  0E:87E9  13                  	db $13		;[Note] 20
    1208.  0E:87EA                      				;[Skip delay] 2
    1209.  0E:87EA  11                  	db $11		;[Note] 18
    1210.  0E:87EB                      				;[Skip delay] 2
    1211.  0E:87EB  11                  	db $11		;[Note] 18
    1212.  0E:87EC                      				;[Skip delay] 2
    1213.  0E:87EC  11                  	db $11		;[Note] 18
    1214.  0E:87ED                      				;[Skip delay] 2
    1215.  0E:87ED  11                  	db $11		;[Note] 18
    1216.  0E:87EE                      				;[Skip delay] 2
    1217.  0E:87EE  11                  	db $11		;[Note] 18
    1218.  0E:87EF                      				;[Skip delay] 2
    1219.  0E:87EF  11                  	db $11		;[Note] 18
    1220.  0E:87F0  C0                  	db $C0		;[Wait] 1
    1221.  0E:87F1  11                  	db $11		;[Note] 18
    1222.  0E:87F2                      				;[Skip delay] 1
    1223.  0E:87F2  13                  	db $13		;[Note] 20
    1224.  0E:87F3  C1                  	db $C1		;[Wait] 2
    1225.  0E:87F4  13                  	db $13		;[Note] 20
    1226.  0E:87F5  C0                  	db $C0		;[Wait] 1
    1227.  0E:87F6  13                  	db $13		;[Note] 20
    1228.  0E:87F7                      				;[Skip delay] 1
    1229.  0E:87F7  BF                  	db $BF		;[End-Of-Track]
    1230.  0E:87F8                      .track_10:
    1231.  0E:87F8  1F                  	db $1F		;[Note] 32
    1232.  0E:87F9  6C                  	db $6C		;[Volume] 12
    1233.  0E:87FA  78                  	db $78		;[Instrument] 9
    1234.  0E:87FB  C0                  	db $C0		;[Wait] 1
    1235.  0E:87FC  6D                  	db $6D		;[Volume] 13
    1236.  0E:87FD  C4                  	db $C4		;[Wait] 5
    1237.  0E:87FE  24                  	db $24		;[Note] 37
    1238.  0E:87FF  C9                  	db $C9		;[Wait] 10
    1239.  0E:8800  1F                  	db $1F		;[Note] 32
    1240.  0E:8801  C7                  	db $C7		;[Wait] 8
    1241.  0E:8802  26                  	db $26		;[Note] 39
    1242.  0E:8803  C5                  	db $C5		;[Wait] 6
    1243.  0E:8804  60                  	db $60		;[Note] 97
    1244.  0E:8805  C1                  	db $C1		;[Wait] 2
    1245.  0E:8806  09                  	db $09		;[Note] 10
    1246.  0E:8807  76                  	db $76		;[Instrument] 7
    1247.  0E:8808                      				;[Skip delay] 2
    1248.  0E:8808  09                  	db $09		;[Note] 10
    1249.  0E:8809                      				;[Skip delay] 2
    1250.  0E:8809  09                  	db $09		;[Note] 10
    1251.  0E:880A                      				;[Skip delay] 2
    1252.  0E:880A  09                  	db $09		;[Note] 10
    1253.  0E:880B                      				;[Skip delay] 2
    1254.  0E:880B  07                  	db $07		;[Note] 8
    1255.  0E:880C                      				;[Skip delay] 2
    1256.  0E:880C  07                  	db $07		;[Note] 8
    1257.  0E:880D                      				;[Skip delay] 2
    1258.  0E:880D  07                  	db $07		;[Note] 8
    1259.  0E:880E                      				;[Skip delay] 2
    1260.  0E:880E  07                  	db $07		;[Note] 8
    1261.  0E:880F                      				;[Skip delay] 2
    1262.  0E:880F  05                  	db $05		;[Note] 6
    1263.  0E:8810                      				;[Skip delay] 2
    1264.  0E:8810  05                  	db $05		;[Note] 6
    1265.  0E:8811                      				;[Skip delay] 2
    1266.  0E:8811  05                  	db $05		;[Note] 6
    1267.  0E:8812                      				;[Skip delay] 2
    1268.  0E:8812  05                  	db $05		;[Note] 6
    1269.  0E:8813                      				;[Skip delay] 2
    1270.  0E:8813  05                  	db $05		;[Note] 6
    1271.  0E:8814  C0                  	db $C0		;[Wait] 1
    1272.  0E:8815  6E                  	db $6E		;[Volume] 14
    1273.  0E:8816                      				;[Skip delay] 1
    1274.  0E:8816  05                  	db $05		;[Note] 6
    1275.  0E:8817  6D                  	db $6D		;[Volume] 13
    1276.  0E:8818                      				;[Skip delay] 1
    1277.  0E:8818  05                  	db $05		;[Note] 6
    1278.  0E:8819  6B                  	db $6B		;[Volume] 11
    1279.  0E:881A                      				;[Skip delay] 1
    1280.  0E:881A  07                  	db $07		;[Note] 8
    1281.  0E:881B  6A                  	db $6A		;[Volume] 10
    1282.  0E:881C  C1                  	db $C1		;[Wait] 2
    1283.  0E:881D  07                  	db $07		;[Note] 8
    1284.  0E:881E  C0                  	db $C0		;[Wait] 1
    1285.  0E:881F  07                  	db $07		;[Note] 8
    1286.  0E:8820                      				;[Skip delay] 1
    1287.  0E:8820  BF                  	db $BF		;[End-Of-Track]
    1288.  0E:8821                      .track_11:
    1289.  0E:8821  18                  	db $18		;[Note] 25
    1290.  0E:8822  79                  	db $79		;[Instrument] 10
    1291.  0E:8823  C1                  	db $C1		;[Wait] 2
    1292.  0E:8824  13                  	db $13		;[Note] 20
    1293.  0E:8825                      				;[Skip delay] 2
    1294.  0E:8825  15                  	db $15		;[Note] 22
    1295.  0E:8826                      				;[Skip delay] 2
    1296.  0E:8826  18                  	db $18		;[Note] 25
    1297.  0E:8827  C3                  	db $C3		;[Wait] 4
    1298.  0E:8828  13                  	db $13		;[Note] 20
    1299.  0E:8829  C1                  	db $C1		;[Wait] 2
    1300.  0E:882A  15                  	db $15		;[Note] 22
    1301.  0E:882B                      				;[Skip delay] 2
    1302.  0E:882B  16                  	db $16		;[Note] 23
    1303.  0E:882C  C3                  	db $C3		;[Wait] 4
    1304.  0E:882D  16                  	db $16		;[Note] 23
    1305.  0E:882E  C1                  	db $C1		;[Wait] 2
    1306.  0E:882F  15                  	db $15		;[Note] 22
    1307.  0E:8830  C3                  	db $C3		;[Wait] 4
    1308.  0E:8831  13                  	db $13		;[Note] 20
    1309.  0E:8832  C1                  	db $C1		;[Wait] 2
    1310.  0E:8833  11                  	db $11		;[Note] 18
    1311.  0E:8834  C3                  	db $C3		;[Wait] 4
    1312.  0E:8835  13                  	db $13		;[Note] 20
    1313.  0E:8836  C1                  	db $C1		;[Wait] 2
    1314.  0E:8837  15                  	db $15		;[Note] 22
    1315.  0E:8838                      				;[Skip delay] 2
    1316.  0E:8838  15                  	db $15		;[Note] 22
    1317.  0E:8839                      				;[Skip delay] 2
    1318.  0E:8839  15                  	db $15		;[Note] 22
    1319.  0E:883A                      				;[Skip delay] 2
    1320.  0E:883A  15                  	db $15		;[Note] 22
    1321.  0E:883B                      				;[Skip delay] 2
    1322.  0E:883B  13                  	db $13		;[Note] 20
    1323.  0E:883C                      				;[Skip delay] 2
    1324.  0E:883C  13                  	db $13		;[Note] 20
    1325.  0E:883D                      				;[Skip delay] 2
    1326.  0E:883D  13                  	db $13		;[Note] 20
    1327.  0E:883E                      				;[Skip delay] 2
    1328.  0E:883E  13                  	db $13		;[Note] 20
    1329.  0E:883F                      				;[Skip delay] 2
    1330.  0E:883F  11                  	db $11		;[Note] 18
    1331.  0E:8840                      				;[Skip delay] 2
    1332.  0E:8840  11                  	db $11		;[Note] 18
    1333.  0E:8841                      				;[Skip delay] 2
    1334.  0E:8841  11                  	db $11		;[Note] 18
    1335.  0E:8842                      				;[Skip delay] 2
    1336.  0E:8842  11                  	db $11		;[Note] 18
    1337.  0E:8843                      				;[Skip delay] 2
    1338.  0E:8843  11                  	db $11		;[Note] 18
    1339.  0E:8844                      				;[Skip delay] 2
    1340.  0E:8844  11                  	db $11		;[Note] 18
    1341.  0E:8845  C0                  	db $C0		;[Wait] 1
    1342.  0E:8846  11                  	db $11		;[Note] 18
    1343.  0E:8847                      				;[Skip delay] 1
    1344.  0E:8847  13                  	db $13		;[Note] 20
    1345.  0E:8848  C1                  	db $C1		;[Wait] 2
    1346.  0E:8849  13                  	db $13		;[Note] 20
    1347.  0E:884A  C0                  	db $C0		;[Wait] 1
    1348.  0E:884B  13                  	db $13		;[Note] 20
    1349.  0E:884C                      				;[Skip delay] 1
    1350.  0E:884C  BF                  	db $BF		;[End-Of-Track]
    1351.  0E:884D                      .track_12:
    1352.  0E:884D  24                  	db $24		;[Note] 37
    1353.  0E:884E  6A                  	db $6A		;[Volume] 10
    1354.  0E:884F  81                  	db $81		;[Instrument] 18
    1355.  0E:8850  C1                  	db $C1		;[Wait] 2
    1356.  0E:8851  26                  	db $26		;[Note] 39
    1357.  0E:8852  89                  	db $89		;[Instrument] 26
    1358.  0E:8853                      				;[Skip delay] 2
    1359.  0E:8853  26                  	db $26		;[Note] 39
    1360.  0E:8854                      				;[Skip delay] 2
    1361.  0E:8854  28                  	db $28		;[Note] 41
    1362.  0E:8855  C3                  	db $C3		;[Wait] 4
    1363.  0E:8856  24                  	db $24		;[Note] 37
    1364.  0E:8857  C1                  	db $C1		;[Wait] 2
    1365.  0E:8858  26                  	db $26		;[Note] 39
    1366.  0E:8859                      				;[Skip delay] 2
    1367.  0E:8859  28                  	db $28		;[Note] 41
    1368.  0E:885A                      				;[Skip delay] 2
    1369.  0E:885A  29                  	db $29		;[Note] 42
    1370.  0E:885B                      				;[Skip delay] 2
    1371.  0E:885B  28                  	db $28		;[Note] 41
    1372.  0E:885C                      				;[Skip delay] 2
    1373.  0E:885C  28                  	db $28		;[Note] 41
    1374.  0E:885D                      				;[Skip delay] 2
    1375.  0E:885D  29                  	db $29		;[Note] 42
    1376.  0E:885E  C3                  	db $C3		;[Wait] 4
    1377.  0E:885F  26                  	db $26		;[Note] 39
    1378.  0E:8860  C1                  	db $C1		;[Wait] 2
    1379.  0E:8861  28                  	db $28		;[Note] 41
    1380.  0E:8862                      				;[Skip delay] 2
    1381.  0E:8862  29                  	db $29		;[Note] 42
    1382.  0E:8863                      				;[Skip delay] 2
    1383.  0E:8863  28                  	db $28		;[Note] 41
    1384.  0E:8864                      				;[Skip delay] 2
    1385.  0E:8864  24                  	db $24		;[Note] 37
    1386.  0E:8865                      				;[Skip delay] 2
    1387.  0E:8865  30                  	db $30		;[Note] 49
    1388.  0E:8866                      				;[Skip delay] 2
    1389.  0E:8866  2D                  	db $2D		;[Note] 46
    1390.  0E:8867                      				;[Skip delay] 2
    1391.  0E:8867  2B                  	db $2B		;[Note] 44
    1392.  0E:8868  C3                  	db $C3		;[Wait] 4
    1393.  0E:8869  26                  	db $26		;[Note] 39
    1394.  0E:886A  C1                  	db $C1		;[Wait] 2
    1395.  0E:886B  26                  	db $26		;[Note] 39
    1396.  0E:886C                      				;[Skip delay] 2
    1397.  0E:886C  3C                  	db $3C		;[Note] 61
    1398.  0E:886D  6F                  	db $6F		;[Volume] 15
    1399.  0E:886E  7C                  	db $7C		;[Instrument] 13
    1400.  0E:886F  C0                  	db $C0		;[Wait] 1
    1401.  0E:8870  39                  	db $39		;[Note] 58
    1402.  0E:8871                      				;[Skip delay] 1
    1403.  0E:8871  34                  	db $34		;[Note] 53
    1404.  0E:8872                      				;[Skip delay] 1
    1405.  0E:8872  30                  	db $30		;[Note] 49
    1406.  0E:8873                      				;[Skip delay] 1
    1407.  0E:8873  34                  	db $34		;[Note] 53
    1408.  0E:8874  6C                  	db $6C		;[Volume] 12
    1409.  0E:8875                      				;[Skip delay] 1
    1410.  0E:8875  30                  	db $30		;[Note] 49
    1411.  0E:8876  6D                  	db $6D		;[Volume] 13
    1412.  0E:8877                      				;[Skip delay] 1
    1413.  0E:8877  2D                  	db $2D		;[Note] 46
    1414.  0E:8878                      				;[Skip delay] 1
    1415.  0E:8878  28                  	db $28		;[Note] 41
    1416.  0E:8879                      				;[Skip delay] 1
    1417.  0E:8879  2D                  	db $2D		;[Note] 46
    1418.  0E:887A  6E                  	db $6E		;[Volume] 14
    1419.  0E:887B                      				;[Skip delay] 1
    1420.  0E:887B  28                  	db $28		;[Note] 41
    1421.  0E:887C                      				;[Skip delay] 1
    1422.  0E:887C  24                  	db $24		;[Note] 37
    1423.  0E:887D                      				;[Skip delay] 1
    1424.  0E:887D  28                  	db $28		;[Note] 41
    1425.  0E:887E                      				;[Skip delay] 1
    1426.  0E:887E  2D                  	db $2D		;[Note] 46
    1427.  0E:887F  6C                  	db $6C		;[Volume] 12
    1428.  0E:8880                      				;[Skip delay] 1
    1429.  0E:8880  28                  	db $28		;[Note] 41
    1430.  0E:8881                      				;[Skip delay] 1
    1431.  0E:8881  24                  	db $24		;[Note] 37
    1432.  0E:8882                      				;[Skip delay] 1
    1433.  0E:8882  2F                  	db $2F		;[Note] 48
    1434.  0E:8883                      				;[Skip delay] 1
    1435.  0E:8883  BF                  	db $BF		;[End-Of-Track]
    1436.  0E:8884                      .track_13:
    1437.  0E:8884  24                  	db $24		;[Note] 37
    1438.  0E:8885  69                  	db $69		;[Volume] 9
    1439.  0E:8886  87                  	db $87		;[Instrument] 24
    1440.  0E:8887  C5                  	db $C5		;[Wait] 6
    1441.  0E:8888  2B                  	db $2B		;[Note] 44
    1442.  0E:8889  6A                  	db $6A		;[Volume] 10
    1443.  0E:888A  C4                  	db $C4		;[Wait] 5
    1444.  0E:888B  69                  	db $69		;[Volume] 9
    1445.  0E:888C  C1                  	db $C1		;[Wait] 2
    1446.  0E:888D  66                  	db $66		;[Volume] 6
    1447.  0E:888E  C0                  	db $C0		;[Wait] 1
    1448.  0E:888F  64                  	db $64		;[Volume] 4
    1449.  0E:8890                      				;[Skip delay] 1
    1450.  0E:8890  63                  	db $63		;[Volume] 3
    1451.  0E:8891                      				;[Skip delay] 1
    1452.  0E:8891  22                  	db $22		;[Note] 35
    1453.  0E:8892  66                  	db $66		;[Volume] 6
    1454.  0E:8893  C1                  	db $C1		;[Wait] 2
    1455.  0E:8894  68                  	db $68		;[Volume] 8
    1456.  0E:8895  C0                  	db $C0		;[Wait] 1
    1457.  0E:8896  69                  	db $69		;[Volume] 9
    1458.  0E:8897  C4                  	db $C4		;[Wait] 5
    1459.  0E:8898  29                  	db $29		;[Note] 42
    1460.  0E:8899  C4                  	db $C4		;[Wait..] 5
    1461.  0E:889A  66                  	db $66		;[Volume] 6
    1462.  0E:889B  C0                  	db $C0		;[Wait] 1
    1463.  0E:889C  65                  	db $65		;[Volume] 5
    1464.  0E:889D                      				;[Skip delay] 1
    1465.  0E:889D  64                  	db $64		;[Volume] 4
    1466.  0E:889E                      				;[Skip delay] 1
    1467.  0E:889E  2D                  	db $2D		;[Note] 46
    1468.  0E:889F  68                  	db $68		;[Volume] 8
    1469.  0E:88A0  C7                  	db $C7		;[Wait] 8
    1470.  0E:88A1  2F                  	db $2F		;[Note] 48
    1471.  0E:88A2                      				;[Skip delay] 8
    1472.  0E:88A2  34                  	db $34		;[Note] 53
    1473.  0E:88A3  66                  	db $66		;[Volume] 6
    1474.  0E:88A4  C0                  	db $C0		;[Wait] 1
    1475.  0E:88A5  67                  	db $67		;[Volume] 7
    1476.  0E:88A6                      				;[Skip delay] 1
    1477.  0E:88A6  68                  	db $68		;[Volume] 8
    1478.  0E:88A7  C1                  	db $C1		;[Wait] 2
    1479.  0E:88A8  69                  	db $69		;[Volume] 9
    1480.  0E:88A9  C2                  	db $C2		;[Wait] 3
    1481.  0E:88AA  A7 55               	db $A7, $55	;[CMD vibrato]
    1482.  0E:88AC  C0                  	db $C0		;[Wait] 1
    1483.  0E:88AD  B1 05               	db $B1, $05	;[CMD vibrato] rep
    1484.  0E:88AF  C4                  	db $C4		;[Wait] 5
    1485.  0E:88B0  A5 10               	db $A5, $10; slide-down
    1486.  0E:88B2  C0                  	db $C0		;[Wait] 1
    1487.  0E:88B3  AF 02               	db $AF, $02; slide-down rep
    1488.  0E:88B5  C1                  	db $C1		;[Wait] 2
    1489.  0E:88B6  BF                  	db $BF		;[End-Of-Track]
    1490.  0E:88B7                      .track_14:
    1491.  0E:88B7  2B                  	db $2B		;[Note] 44
    1492.  0E:88B8  6F                  	db $6F		;[Volume] 15
    1493.  0E:88B9  84                  	db $84		;[Instrument] 21
    1494.  0E:88BA  95 00               	db $95, $00	; track detune
    1495.  0E:88BC  C1                  	db $C1		;[Wait] 2
    1496.  0E:88BD  68                  	db $68		;[Volume] 8
    1497.  0E:88BE  C0                  	db $C0		;[Wait] 1
    1498.  0E:88BF  66                  	db $66		;[Volume] 6
    1499.  0E:88C0                      				;[Skip delay] 1
    1500.  0E:88C0  32                  	db $32		;[Note] 51
    1501.  0E:88C1  6C                  	db $6C		;[Volume] 12
    1502.  0E:88C2  7B                  	db $7B		;[Instrument] 12
    1503.  0E:88C3                      				;[Skip delay] 1
    1504.  0E:88C3  34                  	db $34		;[Note] 53
    1505.  0E:88C4  A6 10               	db $A6, $10; tone-slide
    1506.  0E:88C6                      				;[Skip delay] 1
    1507.  0E:88C6  30                  	db $30		;[Note] 49
    1508.  0E:88C7  C1                  	db $C1		;[Wait] 2
    1509.  0E:88C8  32                  	db $32		;[Note] 51
    1510.  0E:88C9                      				;[Skip delay] 2
    1511.  0E:88C9  37                  	db $37		;[Note] 56
    1512.  0E:88CA  C2                  	db $C2		;[Wait] 3
    1513.  0E:88CB  64                  	db $64		;[Volume] 4
    1514.  0E:88CC  C0                  	db $C0		;[Wait] 1
    1515.  0E:88CD  37                  	db $37		;[Note] 56
    1516.  0E:88CE  69                  	db $69		;[Volume] 9
    1517.  0E:88CF  C1                  	db $C1		;[Wait] 2
    1518.  0E:88D0  37                  	db $37		;[Note] 56
    1519.  0E:88D1  C2                  	db $C2		;[Wait] 3
    1520.  0E:88D2  A7 55               	db $A7, $55	;[CMD vibrato]
    1521.  0E:88D4  C0                  	db $C0		;[Wait] 1
    1522.  0E:88D5  B1 02               	db $B1, $02	;[CMD vibrato] rep
    1523.  0E:88D7  C1                  	db $C1		;[Wait] 2
    1524.  0E:88D8  35                  	db $35		;[Note] 54
    1525.  0E:88D9  6F                  	db $6F		;[Volume] 15
    1526.  0E:88DA  C0                  	db $C0		;[Wait] 1
    1527.  0E:88DB  34                  	db $34		;[Note] 53
    1528.  0E:88DC  6E                  	db $6E		;[Volume] 14
    1529.  0E:88DD                      				;[Skip delay] 1
    1530.  0E:88DD  32                  	db $32		;[Note] 51
    1531.  0E:88DE  6D                  	db $6D		;[Volume] 13
    1532.  0E:88DF  C2                  	db $C2		;[Wait] 3
    1533.  0E:88E0  A7 56               	db $A7, $56	;[CMD vibrato]
    1534.  0E:88E2  C0                  	db $C0		;[Wait] 1
    1535.  0E:88E3  B1 03               	db $B1, $03	;[CMD vibrato] rep
    1536.  0E:88E5  C1                  	db $C1		;[Wait] 2
    1537.  0E:88E6  68                  	db $68		;[Volume] 8
    1538.  0E:88E7  C0                  	db $C0		;[Wait] 1
    1539.  0E:88E8  A7 55               	db $A7, $55	;[CMD vibrato]
    1540.  0E:88EA                      				;[Skip delay] 1
    1541.  0E:88EA  66                  	db $66		;[Volume] 6
    1542.  0E:88EB  B1 01               	db $B1, $01	;[CMD vibrato] rep
    1543.  0E:88ED                      				;[Skip delay] 1
    1544.  0E:88ED  A5 10               	db $A5, $10; slide-down
    1545.  0E:88EF                      				;[Skip delay] 1
    1546.  0E:88EF  64                  	db $64		;[Volume] 4
    1547.  0E:88F0  AF 02               	db $AF, $02; slide-down rep
    1548.  0E:88F2                      				;[Skip delay] 1
    1549.  0E:88F2  63                  	db $63		;[Volume] 3
    1550.  0E:88F3                      				;[Skip delay] 1
    1551.  0E:88F3  2D                  	db $2D		;[Note] 46
    1552.  0E:88F4  6D                  	db $6D		;[Volume] 13
    1553.  0E:88F5  C1                  	db $C1		;[Wait] 2
    1554.  0E:88F6  34                  	db $34		;[Note] 53
    1555.  0E:88F7                      				;[Skip delay] 2
    1556.  0E:88F7  32                  	db $32		;[Note] 51
    1557.  0E:88F8  C0                  	db $C0		;[Wait] 1
    1558.  0E:88F9  A7 55               	db $A7, $55	;[CMD vibrato]
    1559.  0E:88FB                      				;[Skip delay] 1
    1560.  0E:88FB  B1 02               	db $B1, $02	;[CMD vibrato] rep
    1561.  0E:88FD  C1                  	db $C1		;[Wait] 2
    1562.  0E:88FE  37                  	db $37		;[Note] 56
    1563.  0E:88FF                      				;[Skip delay] 2
    1564.  0E:88FF  39                  	db $39		;[Note] 58
    1565.  0E:8900  C2                  	db $C2		;[Wait] 3
    1566.  0E:8901  6E                  	db $6E		;[Volume] 14
    1567.  0E:8902  C1                  	db $C1		;[Wait] 2
    1568.  0E:8903  A7 55               	db $A7, $55	;[CMD vibrato]
    1569.  0E:8905  C0                  	db $C0		;[Wait] 1
    1570.  0E:8906  B1 08               	db $B1, $08	;[CMD vibrato] rep
    1571.  0E:8908  C1                  	db $C1		;[Wait] 2
    1572.  0E:8909  6F                  	db $6F		;[Volume] 15
    1573.  0E:890A                      				;[Skip delay] 2
    1574.  0E:890A  6D                  	db $6D		;[Volume] 13
    1575.  0E:890B  C0                  	db $C0		;[Wait] 1
    1576.  0E:890C  6A                  	db $6A		;[Volume] 10
    1577.  0E:890D  C1                  	db $C1		;[Wait] 2
    1578.  0E:890E  69                  	db $69		;[Volume] 9
    1579.  0E:890F  C0                  	db $C0		;[Wait] 1
    1580.  0E:8910  A5 10               	db $A5, $10; slide-down
    1581.  0E:8912                      				;[Skip delay] 1
    1582.  0E:8912  67                  	db $67		;[Volume] 7
    1583.  0E:8913  AF 03               	db $AF, $03; slide-down rep
    1584.  0E:8915  C1                  	db $C1		;[Wait] 2
    1585.  0E:8916  65                  	db $65		;[Volume] 5
    1586.  0E:8917  C0                  	db $C0		;[Wait] 1
    1587.  0E:8918  BF                  	db $BF		;[End-Of-Track]
    1588.  0E:8919                      .track_15:
    1589.  0E:8919  60                  	db $60		;[Note] 97
    1590.  0E:891A  95 08               	db $95, $08	; track detune
    1591.  0E:891C  C5                  	db $C5		;[Wait] 6
    1592.  0E:891D  32                  	db $32		;[Note] 51
    1593.  0E:891E  65                  	db $65		;[Volume] 5
    1594.  0E:891F  7B                  	db $7B		;[Instrument] 12
    1595.  0E:8920  C0                  	db $C0		;[Wait] 1
    1596.  0E:8921  34                  	db $34		;[Note] 53
    1597.  0E:8922  A6 10               	db $A6, $10; tone-slide
    1598.  0E:8924                      				;[Skip delay] 1
    1599.  0E:8924  30                  	db $30		;[Note] 49
    1600.  0E:8925  C1                  	db $C1		;[Wait] 2
    1601.  0E:8926  32                  	db $32		;[Note] 51
    1602.  0E:8927                      				;[Skip delay] 2
    1603.  0E:8927  37                  	db $37		;[Note] 56
    1604.  0E:8928  C3                  	db $C3		;[Wait] 4
    1605.  0E:8929  37                  	db $37		;[Note] 56
    1606.  0E:892A  C1                  	db $C1		;[Wait] 2
    1607.  0E:892B  37                  	db $37		;[Note] 56
    1608.  0E:892C  C5                  	db $C5		;[Wait] 6
    1609.  0E:892D  35                  	db $35		;[Note] 54
    1610.  0E:892E  C0                  	db $C0		;[Wait] 1
    1611.  0E:892F  34                  	db $34		;[Note] 53
    1612.  0E:8930                      				;[Skip delay] 1
    1613.  0E:8930  32                  	db $32		;[Note] 51
    1614.  0E:8931  C9                  	db $C9		;[Wait] 10
    1615.  0E:8932  28                  	db $28		;[Note] 41
    1616.  0E:8933  6D                  	db $6D		;[Volume] 13
    1617.  0E:8934  95 00               	db $95, $00	; track detune
    1618.  0E:8936  C1                  	db $C1		;[Wait] 2
    1619.  0E:8937  30                  	db $30		;[Note] 49
    1620.  0E:8938                      				;[Skip delay] 2
    1621.  0E:8938  2B                  	db $2B		;[Note] 44
    1622.  0E:8939  C3                  	db $C3		;[Wait] 4
    1623.  0E:893A  30                  	db $30		;[Note] 49
    1624.  0E:893B  C1                  	db $C1		;[Wait] 2
    1625.  0E:893C  30                  	db $30		;[Note] 49
    1626.  0E:893D  C2                  	db $C2		;[Wait] 3
    1627.  0E:893E  6E                  	db $6E		;[Volume] 14
    1628.  0E:893F  C4                  	db $C4		;[Wait] 5
    1629.  0E:8940  6F                  	db $6F		;[Volume] 15
    1630.  0E:8941  C1                  	db $C1		;[Wait] 2
    1631.  0E:8942  6D                  	db $6D		;[Volume] 13
    1632.  0E:8943  C0                  	db $C0		;[Wait] 1
    1633.  0E:8944  6A                  	db $6A		;[Volume] 10
    1634.  0E:8945  C1                  	db $C1		;[Wait] 2
    1635.  0E:8946  69                  	db $69		;[Volume] 9
    1636.  0E:8947  C0                  	db $C0		;[Wait] 1
    1637.  0E:8948  A5 10               	db $A5, $10; slide-down
    1638.  0E:894A                      				;[Skip delay] 1
    1639.  0E:894A  67                  	db $67		;[Volume] 7
    1640.  0E:894B  AF 03               	db $AF, $03; slide-down rep
    1641.  0E:894D  C1                  	db $C1		;[Wait] 2
    1642.  0E:894E  65                  	db $65		;[Volume] 5
    1643.  0E:894F  C0                  	db $C0		;[Wait] 1
    1644.  0E:8950  BF                  	db $BF		;[End-Of-Track]
    1645.  0E:8951                      .track_16:
    1646.  0E:8951  12                  	db $12		;[Note] 19
    1647.  0E:8952  6F                  	db $6F		;[Volume] 15
    1648.  0E:8953  70                  	db $70		;[Instrument] 1
    1649.  0E:8954  C1                  	db $C1		;[Wait] 2
    1650.  0E:8955  5F                  	db $5F		;[Note] 96
    1651.  0E:8956  6E                  	db $6E		;[Volume] 14
    1652.  0E:8957  72                  	db $72		;[Instrument] 3
    1653.  0E:8958  C0                  	db $C0		;[Wait] 1
    1654.  0E:8959  5F                  	db $5F		;[Note] 96
    1655.  0E:895A  6D                  	db $6D		;[Volume] 13
    1656.  0E:895B                      				;[Skip delay] 1
    1657.  0E:895B  5F                  	db $5F		;[Note] 96
    1658.  0E:895C  6E                  	db $6E		;[Volume] 14
    1659.  0E:895D  C1                  	db $C1		;[Wait] 2
    1660.  0E:895E  12                  	db $12		;[Note] 19
    1661.  0E:895F  6F                  	db $6F		;[Volume] 15
    1662.  0E:8960  70                  	db $70		;[Instrument] 1
    1663.  0E:8961                      				;[Skip delay] 2
    1664.  0E:8961  1F                  	db $1F		;[Note] 32
    1665.  0E:8962  71                  	db $71		;[Instrument] 2
    1666.  0E:8963                      				;[Skip delay] 2
    1667.  0E:8963  5F                  	db $5F		;[Note] 96
    1668.  0E:8964  6E                  	db $6E		;[Volume] 14
    1669.  0E:8965  72                  	db $72		;[Instrument] 3
    1670.  0E:8966                      				;[Skip delay] 2
    1671.  0E:8966  5F                  	db $5F		;[Note] 96
    1672.  0E:8967  6D                  	db $6D		;[Volume] 13
    1673.  0E:8968  C0                  	db $C0		;[Wait] 1
    1674.  0E:8969  60                  	db $60		;[Note] 97
    1675.  0E:896A                      				;[Skip delay] 1
    1676.  0E:896A  12                  	db $12		;[Note] 19
    1677.  0E:896B  70                  	db $70		;[Instrument] 1
    1678.  0E:896C  C1                  	db $C1		;[Wait] 2
    1679.  0E:896D  5F                  	db $5F		;[Note] 96
    1680.  0E:896E  6E                  	db $6E		;[Volume] 14
    1681.  0E:896F  72                  	db $72		;[Instrument] 3
    1682.  0E:8970  C0                  	db $C0		;[Wait] 1
    1683.  0E:8971  5F                  	db $5F		;[Note] 96
    1684.  0E:8972                      				;[Skip delay] 1
    1685.  0E:8972  5F                  	db $5F		;[Note] 96
    1686.  0E:8973  73                  	db $73		;[Instrument] 4
    1687.  0E:8974  C1                  	db $C1		;[Wait] 2
    1688.  0E:8975  5F                  	db $5F		;[Note] 96
    1689.  0E:8976  72                  	db $72		;[Instrument] 3
    1690.  0E:8977                      				;[Skip delay] 2
    1691.  0E:8977  12                  	db $12		;[Note] 19
    1692.  0E:8978  6F                  	db $6F		;[Volume] 15
    1693.  0E:8979  70                  	db $70		;[Instrument] 1
    1694.  0E:897A                      				;[Skip delay] 2
    1695.  0E:897A  1F                  	db $1F		;[Note] 32
    1696.  0E:897B  71                  	db $71		;[Instrument] 2
    1697.  0E:897C                      				;[Skip delay] 2
    1698.  0E:897C  5F                  	db $5F		;[Note] 96
    1699.  0E:897D  6E                  	db $6E		;[Volume] 14
    1700.  0E:897E  72                  	db $72		;[Instrument] 3
    1701.  0E:897F  C0                  	db $C0		;[Wait] 1
    1702.  0E:8980  5F                  	db $5F		;[Note] 96
    1703.  0E:8981  6D                  	db $6D		;[Volume] 13
    1704.  0E:8982                      				;[Skip delay] 1
    1705.  0E:8982  5F                  	db $5F		;[Note] 96
    1706.  0E:8983  6E                  	db $6E		;[Volume] 14
    1707.  0E:8984  C1                  	db $C1		;[Wait] 2
    1708.  0E:8985  5F                  	db $5F		;[Note] 96
    1709.  0E:8986                      				;[Skip delay] 2
    1710.  0E:8986  12                  	db $12		;[Note] 19
    1711.  0E:8987  6F                  	db $6F		;[Volume] 15
    1712.  0E:8988  70                  	db $70		;[Instrument] 1
    1713.  0E:8989                      				;[Skip delay] 2
    1714.  0E:8989  5F                  	db $5F		;[Note] 96
    1715.  0E:898A  6E                  	db $6E		;[Volume] 14
    1716.  0E:898B  72                  	db $72		;[Instrument] 3
    1717.  0E:898C  C0                  	db $C0		;[Wait] 1
    1718.  0E:898D  5F                  	db $5F		;[Note] 96
    1719.  0E:898E  6D                  	db $6D		;[Volume] 13
    1720.  0E:898F                      				;[Skip delay] 1
    1721.  0E:898F  5F                  	db $5F		;[Note] 96
    1722.  0E:8990  6E                  	db $6E		;[Volume] 14
    1723.  0E:8991  C1                  	db $C1		;[Wait] 2
    1724.  0E:8992  5F                  	db $5F		;[Note] 96
    1725.  0E:8993  73                  	db $73		;[Instrument] 4
    1726.  0E:8994                      				;[Skip delay] 2
    1727.  0E:8994  1F                  	db $1F		;[Note] 32
    1728.  0E:8995  6F                  	db $6F		;[Volume] 15
    1729.  0E:8996  71                  	db $71		;[Instrument] 2
    1730.  0E:8997                      				;[Skip delay] 2
    1731.  0E:8997  5F                  	db $5F		;[Note] 96
    1732.  0E:8998  6D                  	db $6D		;[Volume] 13
    1733.  0E:8999  72                  	db $72		;[Instrument] 3
    1734.  0E:899A                      				;[Skip delay] 2
    1735.  0E:899A  5F                  	db $5F		;[Note] 96
    1736.  0E:899B  6A                  	db $6A		;[Volume] 10
    1737.  0E:899C  C0                  	db $C0		;[Wait] 1
    1738.  0E:899D  60                  	db $60		;[Note] 97
    1739.  0E:899E                      				;[Skip delay] 1
    1740.  0E:899E  12                  	db $12		;[Note] 19
    1741.  0E:899F  6F                  	db $6F		;[Volume] 15
    1742.  0E:89A0  70                  	db $70		;[Instrument] 1
    1743.  0E:89A1  C1                  	db $C1		;[Wait] 2
    1744.  0E:89A2  5F                  	db $5F		;[Note] 96
    1745.  0E:89A3  6E                  	db $6E		;[Volume] 14
    1746.  0E:89A4  72                  	db $72		;[Instrument] 3
    1747.  0E:89A5                      				;[Skip delay] 2
    1748.  0E:89A5  25                  	db $25		;[Note] 38
    1749.  0E:89A6  6F                  	db $6F		;[Volume] 15
    1750.  0E:89A7  75                  	db $75		;[Instrument] 6
    1751.  0E:89A8  C0                  	db $C0		;[Wait] 1
    1752.  0E:89A9  25                  	db $25		;[Note] 38
    1753.  0E:89AA  6E                  	db $6E		;[Volume] 14
    1754.  0E:89AB                      				;[Skip delay] 1
    1755.  0E:89AB  1E                  	db $1E		;[Note] 31
    1756.  0E:89AC  6F                  	db $6F		;[Volume] 15
    1757.  0E:89AD  C1                  	db $C1		;[Wait] 2
    1758.  0E:89AE  1B                  	db $1B		;[Note] 28
    1759.  0E:89AF                      				;[Skip delay] 2
    1760.  0E:89AF  15                  	db $15		;[Note] 22
    1761.  0E:89B0                      				;[Skip delay] 2
    1762.  0E:89B0  10                  	db $10		;[Note] 17
    1763.  0E:89B1  C0                  	db $C0		;[Wait] 1
    1764.  0E:89B2  5F                  	db $5F		;[Note] 96
    1765.  0E:89B3  6B                  	db $6B		;[Volume] 11
    1766.  0E:89B4  72                  	db $72		;[Instrument] 3
    1767.  0E:89B5                      				;[Skip delay] 1
    1768.  0E:89B5  1F                  	db $1F		;[Note] 32
    1769.  0E:89B6  6F                  	db $6F		;[Volume] 15
    1770.  0E:89B7  71                  	db $71		;[Instrument] 2
    1771.  0E:89B8  C1                  	db $C1		;[Wait] 2
    1772.  0E:89B9  1F                  	db $1F		;[Note] 32
    1773.  0E:89BA  C0                  	db $C0		;[Wait] 1
    1774.  0E:89BB  1F                  	db $1F		;[Note] 32
    1775.  0E:89BC                      				;[Skip delay] 1
    1776.  0E:89BC  BF                  	db $BF		;[End-Of-Track]
    1777.  0E:89BD                      .track_17:
    1778.  0E:89BD  15                  	db $15		;[Note] 22
    1779.  0E:89BE  76                  	db $76		;[Instrument] 7
    1780.  0E:89BF  C1                  	db $C1		;[Wait] 2
    1781.  0E:89C0  15                  	db $15		;[Note] 22
    1782.  0E:89C1  C0                  	db $C0		;[Wait] 1
    1783.  0E:89C2  15                  	db $15		;[Note] 22
    1784.  0E:89C3                      				;[Skip delay] 1
    1785.  0E:89C3  18                  	db $18		;[Note] 25
    1786.  0E:89C4  C1                  	db $C1		;[Wait] 2
    1787.  0E:89C5  15                  	db $15		;[Note] 22
    1788.  0E:89C6                      				;[Skip delay] 2
    1789.  0E:89C6  1A                  	db $1A		;[Note] 27
    1790.  0E:89C7                      				;[Skip delay] 2
    1791.  0E:89C7  15                  	db $15		;[Note] 22
    1792.  0E:89C8                      				;[Skip delay] 2
    1793.  0E:89C8  1C                  	db $1C		;[Note] 29
    1794.  0E:89C9                      				;[Skip delay] 2
    1795.  0E:89C9  13                  	db $13		;[Note] 20
    1796.  0E:89CA  C1                  	db $C1		;[Wait..] 2
    1797.  0E:89CB  A5 10               	db $A5, $10; slide-down
    1798.  0E:89CD  C0                  	db $C0		;[Wait] 1
    1799.  0E:89CE  AF 01               	db $AF, $01; slide-down rep
    1800.  0E:89D0                      				;[Skip delay] 1
    1801.  0E:89D0  13                  	db $13		;[Note] 20
    1802.  0E:89D1                      				;[Skip delay] 1
    1803.  0E:89D1  13                  	db $13		;[Note] 20
    1804.  0E:89D2                      				;[Skip delay] 1
    1805.  0E:89D2  17                  	db $17		;[Note] 24
    1806.  0E:89D3  C1                  	db $C1		;[Wait] 2
    1807.  0E:89D4  13                  	db $13		;[Note] 20
    1808.  0E:89D5                      				;[Skip delay] 2
    1809.  0E:89D5  18                  	db $18		;[Note] 25
    1810.  0E:89D6                      				;[Skip delay] 2
    1811.  0E:89D6  13                  	db $13		;[Note] 20
    1812.  0E:89D7                      				;[Skip delay] 2
    1813.  0E:89D7  1A                  	db $1A		;[Note] 27
    1814.  0E:89D8                      				;[Skip delay] 2
    1815.  0E:89D8  13                  	db $13		;[Note] 20
    1816.  0E:89D9                      				;[Skip delay] 2
    1817.  0E:89D9  11                  	db $11		;[Note] 18
    1818.  0E:89DA                      				;[Skip delay] 2
    1819.  0E:89DA  11                  	db $11		;[Note] 18
    1820.  0E:89DB  C0                  	db $C0		;[Wait] 1
    1821.  0E:89DC  11                  	db $11		;[Note] 18
    1822.  0E:89DD                      				;[Skip delay] 1
    1823.  0E:89DD  15                  	db $15		;[Note] 22
    1824.  0E:89DE  C1                  	db $C1		;[Wait] 2
    1825.  0E:89DF  11                  	db $11		;[Note] 18
    1826.  0E:89E0                      				;[Skip delay] 2
    1827.  0E:89E0  17                  	db $17		;[Note] 24
    1828.  0E:89E1                      				;[Skip delay] 2
    1829.  0E:89E1  11                  	db $11		;[Note] 18
    1830.  0E:89E2                      				;[Skip delay] 2
    1831.  0E:89E2  18                  	db $18		;[Note] 25
    1832.  0E:89E3                      				;[Skip delay] 2
    1833.  0E:89E3  10                  	db $10		;[Note] 17
    1834.  0E:89E4  C1                  	db $C1		;[Wait..] 2
    1835.  0E:89E5  A5 10               	db $A5, $10; slide-down
    1836.  0E:89E7  C0                  	db $C0		;[Wait] 1
    1837.  0E:89E8  AF 01               	db $AF, $01; slide-down rep
    1838.  0E:89EA                      				;[Skip delay] 1
    1839.  0E:89EA  10                  	db $10		;[Note] 17
    1840.  0E:89EB                      				;[Skip delay] 1
    1841.  0E:89EB  10                  	db $10		;[Note] 17
    1842.  0E:89EC                      				;[Skip delay] 1
    1843.  0E:89EC  13                  	db $13		;[Note] 20
    1844.  0E:89ED  C1                  	db $C1		;[Wait] 2
    1845.  0E:89EE  15                  	db $15		;[Note] 22
    1846.  0E:89EF                      				;[Skip delay] 2
    1847.  0E:89EF  15                  	db $15		;[Note] 22
    1848.  0E:89F0  C0                  	db $C0		;[Wait] 1
    1849.  0E:89F1  17                  	db $17		;[Note] 24
    1850.  0E:89F2  A6 20               	db $A6, $20; tone-slide
    1851.  0E:89F4                      				;[Skip delay] 1
    1852.  0E:89F4  15                  	db $15		;[Note] 22
    1853.  0E:89F5  C1                  	db $C1		;[Wait] 2
    1854.  0E:89F6  13                  	db $13		;[Note] 20
    1855.  0E:89F7                      				;[Skip delay] 2
    1856.  0E:89F7  10                  	db $10		;[Note] 17
    1857.  0E:89F8                      				;[Skip delay] 2
    1858.  0E:89F8  BF                  	db $BF		;[End-Of-Track]
    1859.  0E:89F9                      .track_18:
    1860.  0E:89F9  2D                  	db $2D		;[Note] 46
    1861.  0E:89FA  77                  	db $77		;[Instrument] 8
    1862.  0E:89FB  C1                  	db $C1		;[Wait] 2
    1863.  0E:89FC  2B                  	db $2B		;[Note] 44
    1864.  0E:89FD                      				;[Skip delay] 2
    1865.  0E:89FD  28                  	db $28		;[Note] 41
    1866.  0E:89FE                      				;[Skip delay] 2
    1867.  0E:89FE  2B                  	db $2B		;[Note] 44
    1868.  0E:89FF  C1                  	db $C1		;[Wait..] 2
    1869.  0E:8A00  A7 55               	db $A7, $55	;[CMD vibrato]
    1870.  0E:8A02  C0                  	db $C0		;[Wait] 1
    1871.  0E:8A03  B1 03               	db $B1, $03	;[CMD vibrato] rep
    1872.  0E:8A05  C2                  	db $C2		;[Wait] 3
    1873.  0E:8A06  2D                  	db $2D		;[Note] 46
    1874.  0E:8A07  C1                  	db $C1		;[Wait] 2
    1875.  0E:8A08  28                  	db $28		;[Note] 41
    1876.  0E:8A09  C2                  	db $C2		;[Wait] 3
    1877.  0E:8A0A  A7 55               	db $A7, $55	;[CMD vibrato]
    1878.  0E:8A0C  C0                  	db $C0		;[Wait] 1
    1879.  0E:8A0D  B1 05               	db $B1, $05	;[CMD vibrato] rep
    1880.  0E:8A0F  C4                  	db $C4		;[Wait] 5
    1881.  0E:8A10  A5 10               	db $A5, $10; slide-down
    1882.  0E:8A12  C0                  	db $C0		;[Wait] 1
    1883.  0E:8A13  AF 03               	db $AF, $03; slide-down rep
    1884.  0E:8A15  C2                  	db $C2		;[Wait] 3
    1885.  0E:8A16  60                  	db $60		;[Note] 97
    1886.  0E:8A17  C4                  	db $C4		;[Wait] 5
    1887.  0E:8A18  26                  	db $26		;[Note] 39
    1888.  0E:8A19  C0                  	db $C0		;[Wait] 1
    1889.  0E:8A1A  28                  	db $28		;[Note] 41
    1890.  0E:8A1B  A6 10               	db $A6, $10; tone-slide
    1891.  0E:8A1D                      				;[Skip delay] 1
    1892.  0E:8A1D  26                  	db $26		;[Note] 39
    1893.  0E:8A1E  C1                  	db $C1		;[Wait] 2
    1894.  0E:8A1F  24                  	db $24		;[Note] 37
    1895.  0E:8A20                      				;[Skip delay] 2
    1896.  0E:8A20  26                  	db $26		;[Note] 39
    1897.  0E:8A21  C1                  	db $C1		;[Wait..] 2
    1898.  0E:8A22  A7 55               	db $A7, $55	;[CMD vibrato]
    1899.  0E:8A24  C0                  	db $C0		;[Wait] 1
    1900.  0E:8A25  B1 03               	db $B1, $03	;[CMD vibrato] rep
    1901.  0E:8A27  C2                  	db $C2		;[Wait] 3
    1902.  0E:8A28  28                  	db $28		;[Note] 41
    1903.  0E:8A29  C1                  	db $C1		;[Wait] 2
    1904.  0E:8A2A  23                  	db $23		;[Note] 36
    1905.  0E:8A2B  C2                  	db $C2		;[Wait] 3
    1906.  0E:8A2C  A7 55               	db $A7, $55	;[CMD vibrato]
    1907.  0E:8A2E  C0                  	db $C0		;[Wait] 1
    1908.  0E:8A2F  B1 05               	db $B1, $05	;[CMD vibrato] rep
    1909.  0E:8A31  C4                  	db $C4		;[Wait] 5
    1910.  0E:8A32  A5 10               	db $A5, $10; slide-down
    1911.  0E:8A34  C0                  	db $C0		;[Wait] 1
    1912.  0E:8A35  AF 03               	db $AF, $03; slide-down rep
    1913.  0E:8A37  C2                  	db $C2		;[Wait] 3
    1914.  0E:8A38  60                  	db $60		;[Note] 97
    1915.  0E:8A39  C4                  	db $C4		;[Wait] 5
    1916.  0E:8A3A  BF                  	db $BF		;[End-Of-Track]
    1917.  0E:8A3B                      .track_19:
    1918.  0E:8A3B  15                  	db $15		;[Note] 22
    1919.  0E:8A3C  79                  	db $79		;[Instrument] 10
    1920.  0E:8A3D  C1                  	db $C1		;[Wait] 2
    1921.  0E:8A3E  15                  	db $15		;[Note] 22
    1922.  0E:8A3F  C0                  	db $C0		;[Wait] 1
    1923.  0E:8A40  15                  	db $15		;[Note] 22
    1924.  0E:8A41                      				;[Skip delay] 1
    1925.  0E:8A41  18                  	db $18		;[Note] 25
    1926.  0E:8A42  C1                  	db $C1		;[Wait] 2
    1927.  0E:8A43  15                  	db $15		;[Note] 22
    1928.  0E:8A44                      				;[Skip delay] 2
    1929.  0E:8A44  1A                  	db $1A		;[Note] 27
    1930.  0E:8A45                      				;[Skip delay] 2
    1931.  0E:8A45  15                  	db $15		;[Note] 22
    1932.  0E:8A46                      				;[Skip delay] 2
    1933.  0E:8A46  1C                  	db $1C		;[Note] 29
    1934.  0E:8A47                      				;[Skip delay] 2
    1935.  0E:8A47  13                  	db $13		;[Note] 20
    1936.  0E:8A48  C1                  	db $C1		;[Wait..] 2
    1937.  0E:8A49  A5 10               	db $A5, $10; slide-down
    1938.  0E:8A4B  C0                  	db $C0		;[Wait] 1
    1939.  0E:8A4C  AF 01               	db $AF, $01; slide-down rep
    1940.  0E:8A4E                      				;[Skip delay] 1
    1941.  0E:8A4E  13                  	db $13		;[Note] 20
    1942.  0E:8A4F                      				;[Skip delay] 1
    1943.  0E:8A4F  13                  	db $13		;[Note] 20
    1944.  0E:8A50                      				;[Skip delay] 1
    1945.  0E:8A50  17                  	db $17		;[Note] 24
    1946.  0E:8A51  C1                  	db $C1		;[Wait] 2
    1947.  0E:8A52  13                  	db $13		;[Note] 20
    1948.  0E:8A53                      				;[Skip delay] 2
    1949.  0E:8A53  18                  	db $18		;[Note] 25
    1950.  0E:8A54                      				;[Skip delay] 2
    1951.  0E:8A54  13                  	db $13		;[Note] 20
    1952.  0E:8A55                      				;[Skip delay] 2
    1953.  0E:8A55  1A                  	db $1A		;[Note] 27
    1954.  0E:8A56                      				;[Skip delay] 2
    1955.  0E:8A56  13                  	db $13		;[Note] 20
    1956.  0E:8A57                      				;[Skip delay] 2
    1957.  0E:8A57  11                  	db $11		;[Note] 18
    1958.  0E:8A58                      				;[Skip delay] 2
    1959.  0E:8A58  11                  	db $11		;[Note] 18
    1960.  0E:8A59  C0                  	db $C0		;[Wait] 1
    1961.  0E:8A5A  11                  	db $11		;[Note] 18
    1962.  0E:8A5B                      				;[Skip delay] 1
    1963.  0E:8A5B  15                  	db $15		;[Note] 22
    1964.  0E:8A5C  C1                  	db $C1		;[Wait] 2
    1965.  0E:8A5D  11                  	db $11		;[Note] 18
    1966.  0E:8A5E                      				;[Skip delay] 2
    1967.  0E:8A5E  17                  	db $17		;[Note] 24
    1968.  0E:8A5F                      				;[Skip delay] 2
    1969.  0E:8A5F  11                  	db $11		;[Note] 18
    1970.  0E:8A60                      				;[Skip delay] 2
    1971.  0E:8A60  18                  	db $18		;[Note] 25
    1972.  0E:8A61                      				;[Skip delay] 2
    1973.  0E:8A61  10                  	db $10		;[Note] 17
    1974.  0E:8A62  C1                  	db $C1		;[Wait..] 2
    1975.  0E:8A63  A5 10               	db $A5, $10; slide-down
    1976.  0E:8A65  C0                  	db $C0		;[Wait] 1
    1977.  0E:8A66  AF 01               	db $AF, $01; slide-down rep
    1978.  0E:8A68                      				;[Skip delay] 1
    1979.  0E:8A68  10                  	db $10		;[Note] 17
    1980.  0E:8A69                      				;[Skip delay] 1
    1981.  0E:8A69  10                  	db $10		;[Note] 17
    1982.  0E:8A6A                      				;[Skip delay] 1
    1983.  0E:8A6A  13                  	db $13		;[Note] 20
    1984.  0E:8A6B  C1                  	db $C1		;[Wait] 2
    1985.  0E:8A6C  15                  	db $15		;[Note] 22
    1986.  0E:8A6D                      				;[Skip delay] 2
    1987.  0E:8A6D  15                  	db $15		;[Note] 22
    1988.  0E:8A6E  C0                  	db $C0		;[Wait] 1
    1989.  0E:8A6F  17                  	db $17		;[Note] 24
    1990.  0E:8A70  A6 20               	db $A6, $20; tone-slide
    1991.  0E:8A72                      				;[Skip delay] 1
    1992.  0E:8A72  15                  	db $15		;[Note] 22
    1993.  0E:8A73  C1                  	db $C1		;[Wait] 2
    1994.  0E:8A74  13                  	db $13		;[Note] 20
    1995.  0E:8A75                      				;[Skip delay] 2
    1996.  0E:8A75  10                  	db $10		;[Note] 17
    1997.  0E:8A76                      				;[Skip delay] 2
    1998.  0E:8A76  BF                  	db $BF		;[End-Of-Track]
    1999.  0E:8A77                      .track_20:
    2000.  0E:8A77  28                  	db $28		;[Note] 41
    2001.  0E:8A78  6A                  	db $6A		;[Volume] 10
    2002.  0E:8A79  89                  	db $89		;[Instrument] 26
    2003.  0E:8A7A  C1                  	db $C1		;[Wait] 2
    2004.  0E:8A7B  26                  	db $26		;[Note] 39
    2005.  0E:8A7C                      				;[Skip delay] 2
    2006.  0E:8A7C  24                  	db $24		;[Note] 37
    2007.  0E:8A7D                      				;[Skip delay] 2
    2008.  0E:8A7D  23                  	db $23		;[Note] 36
    2009.  0E:8A7E  C3                  	db $C3		;[Wait] 4
    2010.  0E:8A7F  24                  	db $24		;[Note] 37
    2011.  0E:8A80                      				;[Skip delay] 4
    2012.  0E:8A80  23                  	db $23		;[Note] 36
    2013.  0E:8A81                      				;[Skip delay] 4
    2014.  0E:8A81  24                  	db $24		;[Note] 37
    2015.  0E:8A82  C1                  	db $C1		;[Wait] 2
    2016.  0E:8A83  26                  	db $26		;[Note] 39
    2017.  0E:8A84  C0                  	db $C0		;[Wait] 1
    2018.  0E:8A85  32                  	db $32		;[Note] 51
    2019.  0E:8A86  69                  	db $69		;[Volume] 9
    2020.  0E:8A87  7C                  	db $7C		;[Instrument] 13
    2021.  0E:8A88                      				;[Skip delay] 1
    2022.  0E:8A88  37                  	db $37		;[Note] 56
    2023.  0E:8A89                      				;[Skip delay] 1
    2024.  0E:8A89  3B                  	db $3B		;[Note] 60
    2025.  0E:8A8A  6A                  	db $6A		;[Volume] 10
    2026.  0E:8A8B                      				;[Skip delay] 1
    2027.  0E:8A8B  3E                  	db $3E		;[Note] 63
    2028.  0E:8A8C  6B                  	db $6B		;[Volume] 11
    2029.  0E:8A8D                      				;[Skip delay] 1
    2030.  0E:8A8D  3B                  	db $3B		;[Note] 60
    2031.  0E:8A8E  6C                  	db $6C		;[Volume] 12
    2032.  0E:8A8F                      				;[Skip delay] 1
    2033.  0E:8A8F  37                  	db $37		;[Note] 56
    2034.  0E:8A90  6D                  	db $6D		;[Volume] 13
    2035.  0E:8A91                      				;[Skip delay] 1
    2036.  0E:8A91  32                  	db $32		;[Note] 51
    2037.  0E:8A92  6E                  	db $6E		;[Volume] 14
    2038.  0E:8A93                      				;[Skip delay] 1
    2039.  0E:8A93  3B                  	db $3B		;[Note] 60
    2040.  0E:8A94  6D                  	db $6D		;[Volume] 13
    2041.  0E:8A95                      				;[Skip delay] 1
    2042.  0E:8A95  37                  	db $37		;[Note] 56
    2043.  0E:8A96  6C                  	db $6C		;[Volume] 12
    2044.  0E:8A97                      				;[Skip delay] 1
    2045.  0E:8A97  32                  	db $32		;[Note] 51
    2046.  0E:8A98                      				;[Skip delay] 1
    2047.  0E:8A98  2F                  	db $2F		;[Note] 48
    2048.  0E:8A99  6B                  	db $6B		;[Volume] 11
    2049.  0E:8A9A                      				;[Skip delay] 1
    2050.  0E:8A9A  28                  	db $28		;[Note] 41
    2051.  0E:8A9B  6A                  	db $6A		;[Volume] 10
    2052.  0E:8A9C  89                  	db $89		;[Instrument] 26
    2053.  0E:8A9D  C1                  	db $C1		;[Wait] 2
    2054.  0E:8A9E  26                  	db $26		;[Note] 39
    2055.  0E:8A9F                      				;[Skip delay] 2
    2056.  0E:8A9F  24                  	db $24		;[Note] 37
    2057.  0E:8AA0                      				;[Skip delay] 2
    2058.  0E:8AA0  23                  	db $23		;[Note] 36
    2059.  0E:8AA1  C3                  	db $C3		;[Wait] 4
    2060.  0E:8AA2  24                  	db $24		;[Note] 37
    2061.  0E:8AA3                      				;[Skip delay] 4
    2062.  0E:8AA3  23                  	db $23		;[Note] 36
    2063.  0E:8AA4                      				;[Skip delay] 4
    2064.  0E:8AA4  28                  	db $28		;[Note] 41
    2065.  0E:8AA5  81                  	db $81		;[Instrument] 18
    2066.  0E:8AA6  95 01               	db $95, $01	; track detune
    2067.  0E:8AA8  C0                  	db $C0		;[Wait] 1
    2068.  0E:8AA9  6B                  	db $6B		;[Volume] 11
    2069.  0E:8AAA                      				;[Skip delay] 1
    2070.  0E:8AAA  2B                  	db $2B		;[Note] 44
    2071.  0E:8AAB  6C                  	db $6C		;[Volume] 12
    2072.  0E:8AAC                      				;[Skip delay] 1
    2073.  0E:8AAC  6D                  	db $6D		;[Volume] 13
    2074.  0E:8AAD                      				;[Skip delay] 1
    2075.  0E:8AAD  2D                  	db $2D		;[Note] 46
    2076.  0E:8AAE  6E                  	db $6E		;[Volume] 14
    2077.  0E:8AAF                      				;[Skip delay] 1
    2078.  0E:8AAF  6F                  	db $6F		;[Volume] 15
    2079.  0E:8AB0                      				;[Skip delay] 1
    2080.  0E:8AB0  2D                  	db $2D		;[Note] 46
    2081.  0E:8AB1                      				;[Skip delay] 1
    2082.  0E:8AB1  2F                  	db $2F		;[Note] 48
    2083.  0E:8AB2  A6 20               	db $A6, $20; tone-slide
    2084.  0E:8AB4                      				;[Skip delay] 1
    2085.  0E:8AB4  2D                  	db $2D		;[Note] 46
    2086.  0E:8AB5  C0                  	db $C0		;[Wait..] 1
    2087.  0E:8AB6  6A                  	db $6A		;[Volume] 10
    2088.  0E:8AB7                      				;[Skip delay] 1
    2089.  0E:8AB7  2B                  	db $2B		;[Note] 44
    2090.  0E:8AB8  69                  	db $69		;[Volume] 9
    2091.  0E:8AB9  C1                  	db $C1		;[Wait] 2
    2092.  0E:8ABA  28                  	db $28		;[Note] 41
    2093.  0E:8ABB  68                  	db $68		;[Volume] 8
    2094.  0E:8ABC                      				;[Skip delay] 2
    2095.  0E:8ABC  BF                  	db $BF		;[End-Of-Track]
    2096.  0E:8ABD                      .track_21:
    2097.  0E:8ABD  24                  	db $24		;[Note] 37
    2098.  0E:8ABE  69                  	db $69		;[Volume] 9
    2099.  0E:8ABF  87                  	db $87		;[Instrument] 24
    2100.  0E:8AC0  C5                  	db $C5		;[Wait] 6
    2101.  0E:8AC1  21                  	db $21		;[Note] 34
    2102.  0E:8AC2  6A                  	db $6A		;[Volume] 10
    2103.  0E:8AC3  C4                  	db $C4		;[Wait] 5
    2104.  0E:8AC4  69                  	db $69		;[Volume] 9
    2105.  0E:8AC5  C1                  	db $C1		;[Wait] 2
    2106.  0E:8AC6  66                  	db $66		;[Volume] 6
    2107.  0E:8AC7  C0                  	db $C0		;[Wait] 1
    2108.  0E:8AC8  64                  	db $64		;[Volume] 4
    2109.  0E:8AC9                      				;[Skip delay] 1
    2110.  0E:8AC9  63                  	db $63		;[Volume] 3
    2111.  0E:8ACA                      				;[Skip delay] 1
    2112.  0E:8ACA  26                  	db $26		;[Note] 39
    2113.  0E:8ACB  66                  	db $66		;[Volume] 6
    2114.  0E:8ACC  C1                  	db $C1		;[Wait] 2
    2115.  0E:8ACD  68                  	db $68		;[Volume] 8
    2116.  0E:8ACE  C0                  	db $C0		;[Wait] 1
    2117.  0E:8ACF  69                  	db $69		;[Volume] 9
    2118.  0E:8AD0  C4                  	db $C4		;[Wait] 5
    2119.  0E:8AD1  26                  	db $26		;[Note] 39
    2120.  0E:8AD2  C4                  	db $C4		;[Wait..] 5
    2121.  0E:8AD3  66                  	db $66		;[Volume] 6
    2122.  0E:8AD4  C0                  	db $C0		;[Wait] 1
    2123.  0E:8AD5  65                  	db $65		;[Volume] 5
    2124.  0E:8AD6                      				;[Skip delay] 1
    2125.  0E:8AD6  64                  	db $64		;[Volume] 4
    2126.  0E:8AD7                      				;[Skip delay] 1
    2127.  0E:8AD7  2D                  	db $2D		;[Note] 46
    2128.  0E:8AD8  68                  	db $68		;[Volume] 8
    2129.  0E:8AD9  C7                  	db $C7		;[Wait] 8
    2130.  0E:8ADA  2F                  	db $2F		;[Note] 48
    2131.  0E:8ADB                      				;[Skip delay] 8
    2132.  0E:8ADB  34                  	db $34		;[Note] 53
    2133.  0E:8ADC  C0                  	db $C0		;[Wait] 1
    2134.  0E:8ADD  69                  	db $69		;[Volume] 9
    2135.  0E:8ADE                      				;[Skip delay] 1
    2136.  0E:8ADE  6A                  	db $6A		;[Volume] 10
    2137.  0E:8ADF                      				;[Skip delay] 1
    2138.  0E:8ADF  28                  	db $28		;[Note] 41
    2139.  0E:8AE0  81                  	db $81		;[Instrument] 18
    2140.  0E:8AE1  95 08               	db $95, $08	; track detune
    2141.  0E:8AE3                      				;[Skip delay] 1
    2142.  0E:8AE3  6B                  	db $6B		;[Volume] 11
    2143.  0E:8AE4                      				;[Skip delay] 1
    2144.  0E:8AE4  2B                  	db $2B		;[Note] 44
    2145.  0E:8AE5  6C                  	db $6C		;[Volume] 12
    2146.  0E:8AE6                      				;[Skip delay] 1
    2147.  0E:8AE6  6D                  	db $6D		;[Volume] 13
    2148.  0E:8AE7                      				;[Skip delay] 1
    2149.  0E:8AE7  2D                  	db $2D		;[Note] 46
    2150.  0E:8AE8  6E                  	db $6E		;[Volume] 14
    2151.  0E:8AE9                      				;[Skip delay] 1
    2152.  0E:8AE9  6C                  	db $6C		;[Volume] 12
    2153.  0E:8AEA                      				;[Skip delay] 1
    2154.  0E:8AEA  2F                  	db $2F		;[Note] 48
    2155.  0E:8AEB  C1                  	db $C1		;[Wait] 2
    2156.  0E:8AEC  2D                  	db $2D		;[Note] 46
    2157.  0E:8AED  6D                  	db $6D		;[Volume] 13
    2158.  0E:8AEE  C0                  	db $C0		;[Wait] 1
    2159.  0E:8AEF  6A                  	db $6A		;[Volume] 10
    2160.  0E:8AF0                      				;[Skip delay] 1
    2161.  0E:8AF0  2B                  	db $2B		;[Note] 44
    2162.  0E:8AF1  68                  	db $68		;[Volume] 8
    2163.  0E:8AF2  C1                  	db $C1		;[Wait] 2
    2164.  0E:8AF3  28                  	db $28		;[Note] 41
    2165.  0E:8AF4  67                  	db $67		;[Volume] 7
    2166.  0E:8AF5  C0                  	db $C0		;[Wait] 1
    2167.  0E:8AF6  BF                  	db $BF		;[End-Of-Track]
    2168.  0E:8AF7                      .track_22:
    2169.  0E:8AF7  3B                  	db $3B		;[Note] 60
    2170.  0E:8AF8  6E                  	db $6E		;[Volume] 14
    2171.  0E:8AF9  7F                  	db $7F		;[Instrument] 16
    2172.  0E:8AFA  C0                  	db $C0		;[Wait] 1
    2173.  0E:8AFB  3C                  	db $3C		;[Note] 61
    2174.  0E:8AFC  A6 04               	db $A6, $04; tone-slide
    2175.  0E:8AFE                      				;[Skip delay] 1
    2176.  0E:8AFE  3B                  	db $3B		;[Note] 60
    2177.  0E:8AFF  C1                  	db $C1		;[Wait] 2
    2178.  0E:8B00  39                  	db $39		;[Note] 58
    2179.  0E:8B01                      				;[Skip delay] 2
    2180.  0E:8B01  3B                  	db $3B		;[Note] 60
    2181.  0E:8B02  C1                  	db $C1		;[Wait..] 2
    2182.  0E:8B03  67                  	db $67		;[Volume] 7
    2183.  0E:8B04  C0                  	db $C0		;[Wait] 1
    2184.  0E:8B05  65                  	db $65		;[Volume] 5
    2185.  0E:8B06                      				;[Skip delay] 1
    2186.  0E:8B06  3C                  	db $3C		;[Note] 61
    2187.  0E:8B07  6A                  	db $6A		;[Volume] 10
    2188.  0E:8B08  C1                  	db $C1		;[Wait] 2
    2189.  0E:8B09  A7 67               	db $A7, $67	;[CMD vibrato]
    2190.  0E:8B0B  C0                  	db $C0		;[Wait] 1
    2191.  0E:8B0C  B1 01               	db $B1, $01	;[CMD vibrato] rep
    2192.  0E:8B0E                      				;[Skip delay] 1
    2193.  0E:8B0E  40                  	db $40		;[Note] 65
    2194.  0E:8B0F  C1                  	db $C1		;[Wait] 2
    2195.  0E:8B10  67                  	db $67		;[Volume] 7
    2196.  0E:8B11  A7 67               	db $A7, $67	;[CMD vibrato]
    2197.  0E:8B13  C0                  	db $C0		;[Wait] 1
    2198.  0E:8B14  65                  	db $65		;[Volume] 5
    2199.  0E:8B15  B1 01               	db $B1, $01	;[CMD vibrato] rep
    2200.  0E:8B17                      				;[Skip delay] 1
    2201.  0E:8B17  3E                  	db $3E		;[Note] 63
    2202.  0E:8B18  6D                  	db $6D		;[Volume] 13
    2203.  0E:8B19  C1                  	db $C1		;[Wait] 2
    2204.  0E:8B1A  3E                  	db $3E		;[Note] 63
    2205.  0E:8B1B  C2                  	db $C2		;[Wait] 3
    2206.  0E:8B1C  A7 56               	db $A7, $56	;[CMD vibrato]
    2207.  0E:8B1E  C0                  	db $C0		;[Wait] 1
    2208.  0E:8B1F  B1 03               	db $B1, $03	;[CMD vibrato] rep
    2209.  0E:8B21  C2                  	db $C2		;[Wait] 3
    2210.  0E:8B22  A7 55               	db $A7, $55	;[CMD vibrato]
    2211.  0E:8B24  C0                  	db $C0		;[Wait] 1
    2212.  0E:8B25  B1 04               	db $B1, $04	;[CMD vibrato] rep
    2213.  0E:8B27                      				;[Skip delay] 1
    2214.  0E:8B27  6A                  	db $6A		;[Volume] 10
    2215.  0E:8B28                      				;[Skip delay] 1
    2216.  0E:8B28  68                  	db $68		;[Volume] 8
    2217.  0E:8B29                      				;[Skip delay] 1
    2218.  0E:8B29  66                  	db $66		;[Volume] 6
    2219.  0E:8B2A                      				;[Skip delay] 1
    2220.  0E:8B2A  3B                  	db $3B		;[Note] 60
    2221.  0E:8B2B  6D                  	db $6D		;[Volume] 13
    2222.  0E:8B2C                      				;[Skip delay] 1
    2223.  0E:8B2C  3C                  	db $3C		;[Note] 61
    2224.  0E:8B2D  A6 05               	db $A6, $05; tone-slide
    2225.  0E:8B2F                      				;[Skip delay] 1
    2226.  0E:8B2F  3B                  	db $3B		;[Note] 60
    2227.  0E:8B30  C1                  	db $C1		;[Wait] 2
    2228.  0E:8B31  3C                  	db $3C		;[Note] 61
    2229.  0E:8B32                      				;[Skip delay] 2
    2230.  0E:8B32  3E                  	db $3E		;[Note] 63
    2231.  0E:8B33  C1                  	db $C1		;[Wait..] 2
    2232.  0E:8B34  A7 67               	db $A7, $67	;[CMD vibrato]
    2233.  0E:8B36  C0                  	db $C0		;[Wait] 1
    2234.  0E:8B37  B1 01               	db $B1, $01	;[CMD vibrato] rep
    2235.  0E:8B39                      				;[Skip delay] 1
    2236.  0E:8B39  3C                  	db $3C		;[Note] 61
    2237.  0E:8B3A  6F                  	db $6F		;[Volume] 15
    2238.  0E:8B3B  C1                  	db $C1		;[Wait] 2
    2239.  0E:8B3C  3B                  	db $3B		;[Note] 60
    2240.  0E:8B3D                      				;[Skip delay] 2
    2241.  0E:8B3D  34                  	db $34		;[Note] 53
    2242.  0E:8B3E                      				;[Skip delay] 2
    2243.  0E:8B3E  60                  	db $60		;[Note] 97
    2244.  0E:8B3F  A5 03               	db $A5, $03; slide-down
    2245.  0E:8B41  C0                  	db $C0		;[Wait] 1
    2246.  0E:8B42  AF 01               	db $AF, $01; slide-down rep
    2247.  0E:8B44                      				;[Skip delay] 1
    2248.  0E:8B44  1C                  	db $1C		;[Note] 29
    2249.  0E:8B45  C1                  	db $C1		;[Wait] 2
    2250.  0E:8B46  1F                  	db $1F		;[Note] 32
    2251.  0E:8B47                      				;[Skip delay] 2
    2252.  0E:8B47  21                  	db $21		;[Note] 34
    2253.  0E:8B48                      				;[Skip delay] 2
    2254.  0E:8B48  21                  	db $21		;[Note] 34
    2255.  0E:8B49  C0                  	db $C0		;[Wait] 1
    2256.  0E:8B4A  23                  	db $23		;[Note] 36
    2257.  0E:8B4B  A6 19               	db $A6, $19; tone-slide
    2258.  0E:8B4D                      				;[Skip delay] 1
    2259.  0E:8B4D  21                  	db $21		;[Note] 34
    2260.  0E:8B4E  C1                  	db $C1		;[Wait] 2
    2261.  0E:8B4F  1F                  	db $1F		;[Note] 32
    2262.  0E:8B50                      				;[Skip delay] 2
    2263.  0E:8B50  1C                  	db $1C		;[Note] 29
    2264.  0E:8B51                      				;[Skip delay] 2
    2265.  0E:8B51  BF                  	db $BF		;[End-Of-Track]
    2266.  0E:8B52                      .track_23:
    2267.  0E:8B52  37                  	db $37		;[Note] 56
    2268.  0E:8B53  6D                  	db $6D		;[Volume] 13
    2269.  0E:8B54  7F                  	db $7F		;[Instrument] 16
    2270.  0E:8B55  95 08               	db $95, $08	; track detune
    2271.  0E:8B57  C0                  	db $C0		;[Wait] 1
    2272.  0E:8B58  39                  	db $39		;[Note] 58
    2273.  0E:8B59  A6 04               	db $A6, $04; tone-slide
    2274.  0E:8B5B                      				;[Skip delay] 1
    2275.  0E:8B5B  37                  	db $37		;[Note] 56
    2276.  0E:8B5C  C1                  	db $C1		;[Wait] 2
    2277.  0E:8B5D  34                  	db $34		;[Note] 53
    2278.  0E:8B5E                      				;[Skip delay] 2
    2279.  0E:8B5E  37                  	db $37		;[Note] 56
    2280.  0E:8B5F  C1                  	db $C1		;[Wait..] 2
    2281.  0E:8B60  67                  	db $67		;[Volume] 7
    2282.  0E:8B61  C0                  	db $C0		;[Wait] 1
    2283.  0E:8B62  65                  	db $65		;[Volume] 5
    2284.  0E:8B63                      				;[Skip delay] 1
    2285.  0E:8B63  39                  	db $39		;[Note] 58
    2286.  0E:8B64  6A                  	db $6A		;[Volume] 10
    2287.  0E:8B65  C3                  	db $C3		;[Wait] 4
    2288.  0E:8B66  3C                  	db $3C		;[Note] 61
    2289.  0E:8B67  C1                  	db $C1		;[Wait] 2
    2290.  0E:8B68  67                  	db $67		;[Volume] 7
    2291.  0E:8B69  C0                  	db $C0		;[Wait] 1
    2292.  0E:8B6A  65                  	db $65		;[Volume] 5
    2293.  0E:8B6B                      				;[Skip delay] 1
    2294.  0E:8B6B  3B                  	db $3B		;[Note] 60
    2295.  0E:8B6C  6A                  	db $6A		;[Volume] 10
    2296.  0E:8B6D  C1                  	db $C1		;[Wait] 2
    2297.  0E:8B6E  3B                  	db $3B		;[Note] 60
    2298.  0E:8B6F  C8                  	db $C8		;[Wait] 9
    2299.  0E:8B70  69                  	db $69		;[Volume] 9
    2300.  0E:8B71  C0                  	db $C0		;[Wait] 1
    2301.  0E:8B72  68                  	db $68		;[Volume] 8
    2302.  0E:8B73                      				;[Skip delay] 1
    2303.  0E:8B73  64                  	db $64		;[Volume] 4
    2304.  0E:8B74                      				;[Skip delay] 1
    2305.  0E:8B74  37                  	db $37		;[Note] 56
    2306.  0E:8B75  6A                  	db $6A		;[Volume] 10
    2307.  0E:8B76                      				;[Skip delay] 1
    2308.  0E:8B76  39                  	db $39		;[Note] 58
    2309.  0E:8B77  A6 05               	db $A6, $05; tone-slide
    2310.  0E:8B79                      				;[Skip delay] 1
    2311.  0E:8B79  37                  	db $37		;[Note] 56
    2312.  0E:8B7A  C1                  	db $C1		;[Wait] 2
    2313.  0E:8B7B  39                  	db $39		;[Note] 58
    2314.  0E:8B7C                      				;[Skip delay] 2
    2315.  0E:8B7C  3B                  	db $3B		;[Note] 60
    2316.  0E:8B7D  C3                  	db $C3		;[Wait] 4
    2317.  0E:8B7E  39                  	db $39		;[Note] 58
    2318.  0E:8B7F  6F                  	db $6F		;[Volume] 15
    2319.  0E:8B80  C1                  	db $C1		;[Wait] 2
    2320.  0E:8B81  37                  	db $37		;[Note] 56
    2321.  0E:8B82                      				;[Skip delay] 2
    2322.  0E:8B82  2F                  	db $2F		;[Note] 48
    2323.  0E:8B83                      				;[Skip delay] 2
    2324.  0E:8B83  60                  	db $60		;[Note] 97
    2325.  0E:8B84  A5 03               	db $A5, $03; slide-down
    2326.  0E:8B86  C0                  	db $C0		;[Wait] 1
    2327.  0E:8B87  AF 01               	db $AF, $01; slide-down rep
    2328.  0E:8B89                      				;[Skip delay] 1
    2329.  0E:8B89  23                  	db $23		;[Note] 36
    2330.  0E:8B8A  C1                  	db $C1		;[Wait] 2
    2331.  0E:8B8B  26                  	db $26		;[Note] 39
    2332.  0E:8B8C                      				;[Skip delay] 2
    2333.  0E:8B8C  28                  	db $28		;[Note] 41
    2334.  0E:8B8D                      				;[Skip delay] 2
    2335.  0E:8B8D  28                  	db $28		;[Note] 41
    2336.  0E:8B8E  C0                  	db $C0		;[Wait] 1
    2337.  0E:8B8F  2A                  	db $2A		;[Note] 43
    2338.  0E:8B90  A6 19               	db $A6, $19; tone-slide
    2339.  0E:8B92                      				;[Skip delay] 1
    2340.  0E:8B92  28                  	db $28		;[Note] 41
    2341.  0E:8B93  C1                  	db $C1		;[Wait] 2
    2342.  0E:8B94  26                  	db $26		;[Note] 39
    2343.  0E:8B95                      				;[Skip delay] 2
    2344.  0E:8B95  23                  	db $23		;[Note] 36
    2345.  0E:8B96                      				;[Skip delay] 2
    2346.  0E:8B96  BF                  	db $BF		;[End-Of-Track]
    2347.  0E:8B97                      .track_24:
    2348.  0E:8B97  15                  	db $15		;[Note] 22
    2349.  0E:8B98  76                  	db $76		;[Instrument] 7
    2350.  0E:8B99  C1                  	db $C1		;[Wait] 2
    2351.  0E:8B9A  15                  	db $15		;[Note] 22
    2352.  0E:8B9B  C0                  	db $C0		;[Wait] 1
    2353.  0E:8B9C  15                  	db $15		;[Note] 22
    2354.  0E:8B9D                      				;[Skip delay] 1
    2355.  0E:8B9D  18                  	db $18		;[Note] 25
    2356.  0E:8B9E  C1                  	db $C1		;[Wait] 2
    2357.  0E:8B9F  15                  	db $15		;[Note] 22
    2358.  0E:8BA0                      				;[Skip delay] 2
    2359.  0E:8BA0  1A                  	db $1A		;[Note] 27
    2360.  0E:8BA1                      				;[Skip delay] 2
    2361.  0E:8BA1  15                  	db $15		;[Note] 22
    2362.  0E:8BA2                      				;[Skip delay] 2
    2363.  0E:8BA2  1C                  	db $1C		;[Note] 29
    2364.  0E:8BA3                      				;[Skip delay] 2
    2365.  0E:8BA3  13                  	db $13		;[Note] 20
    2366.  0E:8BA4  C1                  	db $C1		;[Wait..] 2
    2367.  0E:8BA5  A5 10               	db $A5, $10; slide-down
    2368.  0E:8BA7  C0                  	db $C0		;[Wait] 1
    2369.  0E:8BA8  AF 01               	db $AF, $01; slide-down rep
    2370.  0E:8BAA                      				;[Skip delay] 1
    2371.  0E:8BAA  13                  	db $13		;[Note] 20
    2372.  0E:8BAB                      				;[Skip delay] 1
    2373.  0E:8BAB  13                  	db $13		;[Note] 20
    2374.  0E:8BAC                      				;[Skip delay] 1
    2375.  0E:8BAC  17                  	db $17		;[Note] 24
    2376.  0E:8BAD  C1                  	db $C1		;[Wait] 2
    2377.  0E:8BAE  13                  	db $13		;[Note] 20
    2378.  0E:8BAF                      				;[Skip delay] 2
    2379.  0E:8BAF  18                  	db $18		;[Note] 25
    2380.  0E:8BB0                      				;[Skip delay] 2
    2381.  0E:8BB0  13                  	db $13		;[Note] 20
    2382.  0E:8BB1                      				;[Skip delay] 2
    2383.  0E:8BB1  1A                  	db $1A		;[Note] 27
    2384.  0E:8BB2                      				;[Skip delay] 2
    2385.  0E:8BB2  13                  	db $13		;[Note] 20
    2386.  0E:8BB3                      				;[Skip delay] 2
    2387.  0E:8BB3  11                  	db $11		;[Note] 18
    2388.  0E:8BB4                      				;[Skip delay] 2
    2389.  0E:8BB4  11                  	db $11		;[Note] 18
    2390.  0E:8BB5  C0                  	db $C0		;[Wait] 1
    2391.  0E:8BB6  11                  	db $11		;[Note] 18
    2392.  0E:8BB7                      				;[Skip delay] 1
    2393.  0E:8BB7  15                  	db $15		;[Note] 22
    2394.  0E:8BB8  C1                  	db $C1		;[Wait] 2
    2395.  0E:8BB9  11                  	db $11		;[Note] 18
    2396.  0E:8BBA                      				;[Skip delay] 2
    2397.  0E:8BBA  17                  	db $17		;[Note] 24
    2398.  0E:8BBB                      				;[Skip delay] 2
    2399.  0E:8BBB  11                  	db $11		;[Note] 18
    2400.  0E:8BBC                      				;[Skip delay] 2
    2401.  0E:8BBC  18                  	db $18		;[Note] 25
    2402.  0E:8BBD                      				;[Skip delay] 2
    2403.  0E:8BBD  10                  	db $10		;[Note] 17
    2404.  0E:8BBE                      				;[Skip delay] 2
    2405.  0E:8BBE  10                  	db $10		;[Note] 17
    2406.  0E:8BBF                      				;[Skip delay] 2
    2407.  0E:8BBF  10                  	db $10		;[Note] 17
    2408.  0E:8BC0                      				;[Skip delay] 2
    2409.  0E:8BC0  14                  	db $14		;[Note] 21
    2410.  0E:8BC1                      				;[Skip delay] 2
    2411.  0E:8BC1  10                  	db $10		;[Note] 17
    2412.  0E:8BC2                      				;[Skip delay] 2
    2413.  0E:8BC2  10                  	db $10		;[Note] 17
    2414.  0E:8BC3                      				;[Skip delay] 2
    2415.  0E:8BC3  10                  	db $10		;[Note] 17
    2416.  0E:8BC4  C0                  	db $C0		;[Wait] 1
    2417.  0E:8BC5  10                  	db $10		;[Note] 17
    2418.  0E:8BC6                      				;[Skip delay] 1
    2419.  0E:8BC6  13                  	db $13		;[Note] 20
    2420.  0E:8BC7  C1                  	db $C1		;[Wait] 2
    2421.  0E:8BC8  13                  	db $13		;[Note] 20
    2422.  0E:8BC9  C0                  	db $C0		;[Wait] 1
    2423.  0E:8BCA  13                  	db $13		;[Note] 20
    2424.  0E:8BCB                      				;[Skip delay] 1
    2425.  0E:8BCB  BF                  	db $BF		;[End-Of-Track]
    2426.  0E:8BCC                      .track_25:
    2427.  0E:8BCC  2D                  	db $2D		;[Note] 46
    2428.  0E:8BCD  77                  	db $77		;[Instrument] 8
    2429.  0E:8BCE  C1                  	db $C1		;[Wait] 2
    2430.  0E:8BCF  2B                  	db $2B		;[Note] 44
    2431.  0E:8BD0                      				;[Skip delay] 2
    2432.  0E:8BD0  28                  	db $28		;[Note] 41
    2433.  0E:8BD1                      				;[Skip delay] 2
    2434.  0E:8BD1  2B                  	db $2B		;[Note] 44
    2435.  0E:8BD2  C1                  	db $C1		;[Wait..] 2
    2436.  0E:8BD3  A7 55               	db $A7, $55	;[CMD vibrato]
    2437.  0E:8BD5  C0                  	db $C0		;[Wait] 1
    2438.  0E:8BD6  B1 03               	db $B1, $03	;[CMD vibrato] rep
    2439.  0E:8BD8  C2                  	db $C2		;[Wait] 3
    2440.  0E:8BD9  2D                  	db $2D		;[Note] 46
    2441.  0E:8BDA  C1                  	db $C1		;[Wait] 2
    2442.  0E:8BDB  28                  	db $28		;[Note] 41
    2443.  0E:8BDC  C2                  	db $C2		;[Wait] 3
    2444.  0E:8BDD  A7 55               	db $A7, $55	;[CMD vibrato]
    2445.  0E:8BDF  C0                  	db $C0		;[Wait] 1
    2446.  0E:8BE0  B1 05               	db $B1, $05	;[CMD vibrato] rep
    2447.  0E:8BE2  C4                  	db $C4		;[Wait] 5
    2448.  0E:8BE3  A5 10               	db $A5, $10; slide-down
    2449.  0E:8BE5  C0                  	db $C0		;[Wait] 1
    2450.  0E:8BE6  AF 03               	db $AF, $03; slide-down rep
    2451.  0E:8BE8  C2                  	db $C2		;[Wait] 3
    2452.  0E:8BE9  60                  	db $60		;[Note] 97
    2453.  0E:8BEA  C4                  	db $C4		;[Wait] 5
    2454.  0E:8BEB  05                  	db $05		;[Note] 6
    2455.  0E:8BEC  6F                  	db $6F		;[Volume] 15
    2456.  0E:8BED  76                  	db $76		;[Instrument] 7
    2457.  0E:8BEE  C1                  	db $C1		;[Wait] 2
    2458.  0E:8BEF  05                  	db $05		;[Note] 6
    2459.  0E:8BF0  C0                  	db $C0		;[Wait] 1
    2460.  0E:8BF1  05                  	db $05		;[Note] 6
    2461.  0E:8BF2                      				;[Skip delay] 1
    2462.  0E:8BF2  09                  	db $09		;[Note] 10
    2463.  0E:8BF3  C1                  	db $C1		;[Wait] 2
    2464.  0E:8BF4  05                  	db $05		;[Note] 6
    2465.  0E:8BF5                      				;[Skip delay] 2
    2466.  0E:8BF5  0B                  	db $0B		;[Note] 12
    2467.  0E:8BF6                      				;[Skip delay] 2
    2468.  0E:8BF6  05                  	db $05		;[Note] 6
    2469.  0E:8BF7                      				;[Skip delay] 2
    2470.  0E:8BF7  0C                  	db $0C		;[Note] 13
    2471.  0E:8BF8                      				;[Skip delay] 2
    2472.  0E:8BF8  04                  	db $04		;[Note] 5
    2473.  0E:8BF9                      				;[Skip delay] 2
    2474.  0E:8BF9  04                  	db $04		;[Note] 5
    2475.  0E:8BFA                      				;[Skip delay] 2
    2476.  0E:8BFA  04                  	db $04		;[Note] 5
    2477.  0E:8BFB                      				;[Skip delay] 2
    2478.  0E:8BFB  08                  	db $08		;[Note] 9
    2479.  0E:8BFC                      				;[Skip delay] 2
    2480.  0E:8BFC  04                  	db $04		;[Note] 5
    2481.  0E:8BFD                      				;[Skip delay] 2
    2482.  0E:8BFD  04                  	db $04		;[Note] 5
    2483.  0E:8BFE                      				;[Skip delay] 2
    2484.  0E:8BFE  04                  	db $04		;[Note] 5
    2485.  0E:8BFF  C0                  	db $C0		;[Wait] 1
    2486.  0E:8C00  04                  	db $04		;[Note] 5
    2487.  0E:8C01                      				;[Skip delay] 1
    2488.  0E:8C01  07                  	db $07		;[Note] 8
    2489.  0E:8C02  C1                  	db $C1		;[Wait] 2
    2490.  0E:8C03  07                  	db $07		;[Note] 8
    2491.  0E:8C04  C0                  	db $C0		;[Wait] 1
    2492.  0E:8C05  07                  	db $07		;[Note] 8
    2493.  0E:8C06                      				;[Skip delay] 1
    2494.  0E:8C06  BF                  	db $BF		;[End-Of-Track]
    2495.  0E:8C07                      .track_26:
    2496.  0E:8C07  15                  	db $15		;[Note] 22
    2497.  0E:8C08  79                  	db $79		;[Instrument] 10
    2498.  0E:8C09  C1                  	db $C1		;[Wait] 2
    2499.  0E:8C0A  15                  	db $15		;[Note] 22
    2500.  0E:8C0B  C0                  	db $C0		;[Wait] 1
    2501.  0E:8C0C  15                  	db $15		;[Note] 22
    2502.  0E:8C0D                      				;[Skip delay] 1
    2503.  0E:8C0D  18                  	db $18		;[Note] 25
    2504.  0E:8C0E  C1                  	db $C1		;[Wait] 2
    2505.  0E:8C0F  15                  	db $15		;[Note] 22
    2506.  0E:8C10                      				;[Skip delay] 2
    2507.  0E:8C10  1A                  	db $1A		;[Note] 27
    2508.  0E:8C11                      				;[Skip delay] 2
    2509.  0E:8C11  15                  	db $15		;[Note] 22
    2510.  0E:8C12                      				;[Skip delay] 2
    2511.  0E:8C12  1C                  	db $1C		;[Note] 29
    2512.  0E:8C13                      				;[Skip delay] 2
    2513.  0E:8C13  13                  	db $13		;[Note] 20
    2514.  0E:8C14  C1                  	db $C1		;[Wait..] 2
    2515.  0E:8C15  A5 10               	db $A5, $10; slide-down
    2516.  0E:8C17  C0                  	db $C0		;[Wait] 1
    2517.  0E:8C18  AF 01               	db $AF, $01; slide-down rep
    2518.  0E:8C1A                      				;[Skip delay] 1
    2519.  0E:8C1A  13                  	db $13		;[Note] 20
    2520.  0E:8C1B                      				;[Skip delay] 1
    2521.  0E:8C1B  13                  	db $13		;[Note] 20
    2522.  0E:8C1C                      				;[Skip delay] 1
    2523.  0E:8C1C  17                  	db $17		;[Note] 24
    2524.  0E:8C1D  C1                  	db $C1		;[Wait] 2
    2525.  0E:8C1E  13                  	db $13		;[Note] 20
    2526.  0E:8C1F                      				;[Skip delay] 2
    2527.  0E:8C1F  18                  	db $18		;[Note] 25
    2528.  0E:8C20                      				;[Skip delay] 2
    2529.  0E:8C20  13                  	db $13		;[Note] 20
    2530.  0E:8C21                      				;[Skip delay] 2
    2531.  0E:8C21  1A                  	db $1A		;[Note] 27
    2532.  0E:8C22                      				;[Skip delay] 2
    2533.  0E:8C22  13                  	db $13		;[Note] 20
    2534.  0E:8C23                      				;[Skip delay] 2
    2535.  0E:8C23  11                  	db $11		;[Note] 18
    2536.  0E:8C24                      				;[Skip delay] 2
    2537.  0E:8C24  11                  	db $11		;[Note] 18
    2538.  0E:8C25  C0                  	db $C0		;[Wait] 1
    2539.  0E:8C26  11                  	db $11		;[Note] 18
    2540.  0E:8C27                      				;[Skip delay] 1
    2541.  0E:8C27  15                  	db $15		;[Note] 22
    2542.  0E:8C28  C1                  	db $C1		;[Wait] 2
    2543.  0E:8C29  11                  	db $11		;[Note] 18
    2544.  0E:8C2A                      				;[Skip delay] 2
    2545.  0E:8C2A  17                  	db $17		;[Note] 24
    2546.  0E:8C2B                      				;[Skip delay] 2
    2547.  0E:8C2B  11                  	db $11		;[Note] 18
    2548.  0E:8C2C                      				;[Skip delay] 2
    2549.  0E:8C2C  18                  	db $18		;[Note] 25
    2550.  0E:8C2D                      				;[Skip delay] 2
    2551.  0E:8C2D  10                  	db $10		;[Note] 17
    2552.  0E:8C2E                      				;[Skip delay] 2
    2553.  0E:8C2E  10                  	db $10		;[Note] 17
    2554.  0E:8C2F                      				;[Skip delay] 2
    2555.  0E:8C2F  10                  	db $10		;[Note] 17
    2556.  0E:8C30                      				;[Skip delay] 2
    2557.  0E:8C30  14                  	db $14		;[Note] 21
    2558.  0E:8C31                      				;[Skip delay] 2
    2559.  0E:8C31  10                  	db $10		;[Note] 17
    2560.  0E:8C32                      				;[Skip delay] 2
    2561.  0E:8C32  10                  	db $10		;[Note] 17
    2562.  0E:8C33                      				;[Skip delay] 2
    2563.  0E:8C33  10                  	db $10		;[Note] 17
    2564.  0E:8C34  C0                  	db $C0		;[Wait] 1
    2565.  0E:8C35  10                  	db $10		;[Note] 17
    2566.  0E:8C36                      				;[Skip delay] 1
    2567.  0E:8C36  13                  	db $13		;[Note] 20
    2568.  0E:8C37  C1                  	db $C1		;[Wait] 2
    2569.  0E:8C38  13                  	db $13		;[Note] 20
    2570.  0E:8C39  C0                  	db $C0		;[Wait] 1
    2571.  0E:8C3A  13                  	db $13		;[Note] 20
    2572.  0E:8C3B                      				;[Skip delay] 1
    2573.  0E:8C3B  BF                  	db $BF		;[End-Of-Track]
    2574.  0E:8C3C                      .track_27:
    2575.  0E:8C3C  28                  	db $28		;[Note] 41
    2576.  0E:8C3D  6A                  	db $6A		;[Volume] 10
    2577.  0E:8C3E  89                  	db $89		;[Instrument] 26
    2578.  0E:8C3F  C1                  	db $C1		;[Wait] 2
    2579.  0E:8C40  26                  	db $26		;[Note] 39
    2580.  0E:8C41                      				;[Skip delay] 2
    2581.  0E:8C41  24                  	db $24		;[Note] 37
    2582.  0E:8C42                      				;[Skip delay] 2
    2583.  0E:8C42  23                  	db $23		;[Note] 36
    2584.  0E:8C43  C3                  	db $C3		;[Wait] 4
    2585.  0E:8C44  24                  	db $24		;[Note] 37
    2586.  0E:8C45                      				;[Skip delay] 4
    2587.  0E:8C45  23                  	db $23		;[Note] 36
    2588.  0E:8C46                      				;[Skip delay] 4
    2589.  0E:8C46  24                  	db $24		;[Note] 37
    2590.  0E:8C47  C1                  	db $C1		;[Wait] 2
    2591.  0E:8C48  26                  	db $26		;[Note] 39
    2592.  0E:8C49  C0                  	db $C0		;[Wait] 1
    2593.  0E:8C4A  32                  	db $32		;[Note] 51
    2594.  0E:8C4B  69                  	db $69		;[Volume] 9
    2595.  0E:8C4C  7C                  	db $7C		;[Instrument] 13
    2596.  0E:8C4D                      				;[Skip delay] 1
    2597.  0E:8C4D  37                  	db $37		;[Note] 56
    2598.  0E:8C4E                      				;[Skip delay] 1
    2599.  0E:8C4E  3B                  	db $3B		;[Note] 60
    2600.  0E:8C4F  6A                  	db $6A		;[Volume] 10
    2601.  0E:8C50                      				;[Skip delay] 1
    2602.  0E:8C50  3E                  	db $3E		;[Note] 63
    2603.  0E:8C51  6B                  	db $6B		;[Volume] 11
    2604.  0E:8C52                      				;[Skip delay] 1
    2605.  0E:8C52  3B                  	db $3B		;[Note] 60
    2606.  0E:8C53  6C                  	db $6C		;[Volume] 12
    2607.  0E:8C54                      				;[Skip delay] 1
    2608.  0E:8C54  37                  	db $37		;[Note] 56
    2609.  0E:8C55                      				;[Skip delay] 1
    2610.  0E:8C55  32                  	db $32		;[Note] 51
    2611.  0E:8C56  6A                  	db $6A		;[Volume] 10
    2612.  0E:8C57                      				;[Skip delay] 1
    2613.  0E:8C57  3B                  	db $3B		;[Note] 60
    2614.  0E:8C58                      				;[Skip delay] 1
    2615.  0E:8C58  37                  	db $37		;[Note] 56
    2616.  0E:8C59  67                  	db $67		;[Volume] 7
    2617.  0E:8C5A                      				;[Skip delay] 1
    2618.  0E:8C5A  32                  	db $32		;[Note] 51
    2619.  0E:8C5B                      				;[Skip delay] 1
    2620.  0E:8C5B  2F                  	db $2F		;[Note] 48
    2621.  0E:8C5C  66                  	db $66		;[Volume] 6
    2622.  0E:8C5D                      				;[Skip delay] 1
    2623.  0E:8C5D  28                  	db $28		;[Note] 41
    2624.  0E:8C5E  6A                  	db $6A		;[Volume] 10
    2625.  0E:8C5F  89                  	db $89		;[Instrument] 26
    2626.  0E:8C60  C1                  	db $C1		;[Wait] 2
    2627.  0E:8C61  26                  	db $26		;[Note] 39
    2628.  0E:8C62                      				;[Skip delay] 2
    2629.  0E:8C62  24                  	db $24		;[Note] 37
    2630.  0E:8C63                      				;[Skip delay] 2
    2631.  0E:8C63  23                  	db $23		;[Note] 36
    2632.  0E:8C64  C3                  	db $C3		;[Wait] 4
    2633.  0E:8C65  24                  	db $24		;[Note] 37
    2634.  0E:8C66                      				;[Skip delay] 4
    2635.  0E:8C66  23                  	db $23		;[Note] 36
    2636.  0E:8C67  C1                  	db $C1		;[Wait] 2
    2637.  0E:8C68  28                  	db $28		;[Note] 41
    2638.  0E:8C69  7C                  	db $7C		;[Instrument] 13
    2639.  0E:8C6A  95 00               	db $95, $00	; track detune
    2640.  0E:8C6C  C0                  	db $C0		;[Wait] 1
    2641.  0E:8C6D  2C                  	db $2C		;[Note] 45
    2642.  0E:8C6E                      				;[Skip delay] 1
    2643.  0E:8C6E  2C                  	db $2C		;[Note] 45
    2644.  0E:8C6F                      				;[Skip delay] 1
    2645.  0E:8C6F  34                  	db $34		;[Note] 53
    2646.  0E:8C70                      				;[Skip delay] 1
    2647.  0E:8C70  2C                  	db $2C		;[Note] 45
    2648.  0E:8C71                      				;[Skip delay] 1
    2649.  0E:8C71  2F                  	db $2F		;[Note] 48
    2650.  0E:8C72                      				;[Skip delay] 1
    2651.  0E:8C72  34                  	db $34		;[Note] 53
    2652.  0E:8C73                      				;[Skip delay] 1
    2653.  0E:8C73  38                  	db $38		;[Note] 57
    2654.  0E:8C74                      				;[Skip delay] 1
    2655.  0E:8C74  2F                  	db $2F		;[Note] 48
    2656.  0E:8C75                      				;[Skip delay] 1
    2657.  0E:8C75  34                  	db $34		;[Note] 53
    2658.  0E:8C76                      				;[Skip delay] 1
    2659.  0E:8C76  38                  	db $38		;[Note] 57
    2660.  0E:8C77                      				;[Skip delay] 1
    2661.  0E:8C77  3B                  	db $3B		;[Note] 60
    2662.  0E:8C78                      				;[Skip delay] 1
    2663.  0E:8C78  34                  	db $34		;[Note] 53
    2664.  0E:8C79                      				;[Skip delay] 1
    2665.  0E:8C79  38                  	db $38		;[Note] 57
    2666.  0E:8C7A                      				;[Skip delay] 1
    2667.  0E:8C7A  3B                  	db $3B		;[Note] 60
    2668.  0E:8C7B                      				;[Skip delay] 1
    2669.  0E:8C7B  40                  	db $40		;[Note] 65
    2670.  0E:8C7C                      				;[Skip delay] 1
    2671.  0E:8C7C  BF                  	db $BF		;[End-Of-Track]
    2672.  0E:8C7D                      .track_28:
    2673.  0E:8C7D  24                  	db $24		;[Note] 37
    2674.  0E:8C7E  69                  	db $69		;[Volume] 9
    2675.  0E:8C7F  87                  	db $87		;[Instrument] 24
    2676.  0E:8C80  C5                  	db $C5		;[Wait] 6
    2677.  0E:8C81  21                  	db $21		;[Note] 34
    2678.  0E:8C82  6A                  	db $6A		;[Volume] 10
    2679.  0E:8C83  C4                  	db $C4		;[Wait] 5
    2680.  0E:8C84  69                  	db $69		;[Volume] 9
    2681.  0E:8C85  C1                  	db $C1		;[Wait] 2
    2682.  0E:8C86  66                  	db $66		;[Volume] 6
    2683.  0E:8C87  C0                  	db $C0		;[Wait] 1
    2684.  0E:8C88  64                  	db $64		;[Volume] 4
    2685.  0E:8C89                      				;[Skip delay] 1
    2686.  0E:8C89  63                  	db $63		;[Volume] 3
    2687.  0E:8C8A                      				;[Skip delay] 1
    2688.  0E:8C8A  26                  	db $26		;[Note] 39
    2689.  0E:8C8B  66                  	db $66		;[Volume] 6
    2690.  0E:8C8C  C1                  	db $C1		;[Wait] 2
    2691.  0E:8C8D  68                  	db $68		;[Volume] 8
    2692.  0E:8C8E  C0                  	db $C0		;[Wait] 1
    2693.  0E:8C8F  69                  	db $69		;[Volume] 9
    2694.  0E:8C90  C4                  	db $C4		;[Wait] 5
    2695.  0E:8C91  26                  	db $26		;[Note] 39
    2696.  0E:8C92  C4                  	db $C4		;[Wait..] 5
    2697.  0E:8C93  66                  	db $66		;[Volume] 6
    2698.  0E:8C94  C0                  	db $C0		;[Wait] 1
    2699.  0E:8C95  65                  	db $65		;[Volume] 5
    2700.  0E:8C96                      				;[Skip delay] 1
    2701.  0E:8C96  64                  	db $64		;[Volume] 4
    2702.  0E:8C97                      				;[Skip delay] 1
    2703.  0E:8C97  23                  	db $23		;[Note] 36
    2704.  0E:8C98  69                  	db $69		;[Volume] 9
    2705.  0E:8C99  83                  	db $83		;[Instrument] 20
    2706.  0E:8C9A                      				;[Skip delay] 1
    2707.  0E:8C9A  24                  	db $24		;[Note] 37
    2708.  0E:8C9B  A6 06               	db $A6, $06; tone-slide
    2709.  0E:8C9D                      				;[Skip delay] 1
    2710.  0E:8C9D  23                  	db $23		;[Note] 36
    2711.  0E:8C9E  C1                  	db $C1		;[Wait] 2
    2712.  0E:8C9F  24                  	db $24		;[Note] 37
    2713.  0E:8CA0                      				;[Skip delay] 2
    2714.  0E:8CA0  26                  	db $26		;[Note] 39
    2715.  0E:8CA1  C3                  	db $C3		;[Wait] 4
    2716.  0E:8CA2  28                  	db $28		;[Note] 41
    2717.  0E:8CA3  C1                  	db $C1		;[Wait] 2
    2718.  0E:8CA4  2D                  	db $2D		;[Note] 46
    2719.  0E:8CA5                      				;[Skip delay] 2
    2720.  0E:8CA5  2F                  	db $2F		;[Note] 48
    2721.  0E:8CA6                      				;[Skip delay] 2
    2722.  0E:8CA6  1C                  	db $1C		;[Note] 29
    2723.  0E:8CA7  6A                  	db $6A		;[Volume] 10
    2724.  0E:8CA8  81                  	db $81		;[Instrument] 18
    2725.  0E:8CA9  95 09               	db $95, $09	; track detune
    2726.  0E:8CAB  C0                  	db $C0		;[Wait] 1
    2727.  0E:8CAC  20                  	db $20		;[Note] 33
    2728.  0E:8CAD                      				;[Skip delay] 1
    2729.  0E:8CAD  20                  	db $20		;[Note] 33
    2730.  0E:8CAE                      				;[Skip delay] 1
    2731.  0E:8CAE  28                  	db $28		;[Note] 41
    2732.  0E:8CAF                      				;[Skip delay] 1
    2733.  0E:8CAF  20                  	db $20		;[Note] 33
    2734.  0E:8CB0                      				;[Skip delay] 1
    2735.  0E:8CB0  23                  	db $23		;[Note] 36
    2736.  0E:8CB1                      				;[Skip delay] 1
    2737.  0E:8CB1  28                  	db $28		;[Note] 41
    2738.  0E:8CB2                      				;[Skip delay] 1
    2739.  0E:8CB2  2C                  	db $2C		;[Note] 45
    2740.  0E:8CB3                      				;[Skip delay] 1
    2741.  0E:8CB3  23                  	db $23		;[Note] 36
    2742.  0E:8CB4                      				;[Skip delay] 1
    2743.  0E:8CB4  28                  	db $28		;[Note] 41
    2744.  0E:8CB5                      				;[Skip delay] 1
    2745.  0E:8CB5  2C                  	db $2C		;[Note] 45
    2746.  0E:8CB6                      				;[Skip delay] 1
    2747.  0E:8CB6  2F                  	db $2F		;[Note] 48
    2748.  0E:8CB7                      				;[Skip delay] 1
    2749.  0E:8CB7  28                  	db $28		;[Note] 41
    2750.  0E:8CB8                      				;[Skip delay] 1
    2751.  0E:8CB8  2C                  	db $2C		;[Note] 45
    2752.  0E:8CB9                      				;[Skip delay] 1
    2753.  0E:8CB9  2F                  	db $2F		;[Note] 48
    2754.  0E:8CBA                      				;[Skip delay] 1
    2755.  0E:8CBA  34                  	db $34		;[Note] 53
    2756.  0E:8CBB                      				;[Skip delay] 1
    2757.  0E:8CBB  BF                  	db $BF		;[End-Of-Track]
    2758.  0E:8CBC                      .track_29:
    2759.  0E:8CBC  3B                  	db $3B		;[Note] 60
    2760.  0E:8CBD  6E                  	db $6E		;[Volume] 14
    2761.  0E:8CBE  7F                  	db $7F		;[Instrument] 16
    2762.  0E:8CBF  C0                  	db $C0		;[Wait] 1
    2763.  0E:8CC0  3C                  	db $3C		;[Note] 61
    2764.  0E:8CC1  A6 04               	db $A6, $04; tone-slide
    2765.  0E:8CC3                      				;[Skip delay] 1
    2766.  0E:8CC3  3B                  	db $3B		;[Note] 60
    2767.  0E:8CC4  C1                  	db $C1		;[Wait] 2
    2768.  0E:8CC5  39                  	db $39		;[Note] 58
    2769.  0E:8CC6                      				;[Skip delay] 2
    2770.  0E:8CC6  3B                  	db $3B		;[Note] 60
    2771.  0E:8CC7  C1                  	db $C1		;[Wait..] 2
    2772.  0E:8CC8  67                  	db $67		;[Volume] 7
    2773.  0E:8CC9  C0                  	db $C0		;[Wait] 1
    2774.  0E:8CCA  65                  	db $65		;[Volume] 5
    2775.  0E:8CCB                      				;[Skip delay] 1
    2776.  0E:8CCB  3C                  	db $3C		;[Note] 61
    2777.  0E:8CCC  6A                  	db $6A		;[Volume] 10
    2778.  0E:8CCD  C1                  	db $C1		;[Wait] 2
    2779.  0E:8CCE  A7 67               	db $A7, $67	;[CMD vibrato]
    2780.  0E:8CD0  C0                  	db $C0		;[Wait] 1
    2781.  0E:8CD1  B1 01               	db $B1, $01	;[CMD vibrato] rep
    2782.  0E:8CD3                      				;[Skip delay] 1
    2783.  0E:8CD3  40                  	db $40		;[Note] 65
    2784.  0E:8CD4  C0                  	db $C0		;[Wait..] 1
    2785.  0E:8CD5  A7 67               	db $A7, $67	;[CMD vibrato]
    2786.  0E:8CD7                      				;[Skip delay] 1
    2787.  0E:8CD7  67                  	db $67		;[Volume] 7
    2788.  0E:8CD8  B1 02               	db $B1, $02	;[CMD vibrato] rep
    2789.  0E:8CDA                      				;[Skip delay] 1
    2790.  0E:8CDA  65                  	db $65		;[Volume] 5
    2791.  0E:8CDB                      				;[Skip delay] 1
    2792.  0E:8CDB  3E                  	db $3E		;[Note] 63
    2793.  0E:8CDC  6D                  	db $6D		;[Volume] 13
    2794.  0E:8CDD  C1                  	db $C1		;[Wait] 2
    2795.  0E:8CDE  3E                  	db $3E		;[Note] 63
    2796.  0E:8CDF  C2                  	db $C2		;[Wait] 3
    2797.  0E:8CE0  A7 56               	db $A7, $56	;[CMD vibrato]
    2798.  0E:8CE2  C0                  	db $C0		;[Wait] 1
    2799.  0E:8CE3  B1 03               	db $B1, $03	;[CMD vibrato] rep
    2800.  0E:8CE5  C2                  	db $C2		;[Wait] 3
    2801.  0E:8CE6  A7 55               	db $A7, $55	;[CMD vibrato]
    2802.  0E:8CE8  C0                  	db $C0		;[Wait] 1
    2803.  0E:8CE9  B1 04               	db $B1, $04	;[CMD vibrato] rep
    2804.  0E:8CEB                      				;[Skip delay] 1
    2805.  0E:8CEB  6A                  	db $6A		;[Volume] 10
    2806.  0E:8CEC                      				;[Skip delay] 1
    2807.  0E:8CEC  68                  	db $68		;[Volume] 8
    2808.  0E:8CED                      				;[Skip delay] 1
    2809.  0E:8CED  66                  	db $66		;[Volume] 6
    2810.  0E:8CEE                      				;[Skip delay] 1
    2811.  0E:8CEE  3B                  	db $3B		;[Note] 60
    2812.  0E:8CEF  6D                  	db $6D		;[Volume] 13
    2813.  0E:8CF0                      				;[Skip delay] 1
    2814.  0E:8CF0  3C                  	db $3C		;[Note] 61
    2815.  0E:8CF1  A6 05               	db $A6, $05; tone-slide
    2816.  0E:8CF3                      				;[Skip delay] 1
    2817.  0E:8CF3  3B                  	db $3B		;[Note] 60
    2818.  0E:8CF4  C1                  	db $C1		;[Wait] 2
    2819.  0E:8CF5  3C                  	db $3C		;[Note] 61
    2820.  0E:8CF6                      				;[Skip delay] 2
    2821.  0E:8CF6  3E                  	db $3E		;[Note] 63
    2822.  0E:8CF7  C1                  	db $C1		;[Wait..] 2
    2823.  0E:8CF8  A7 67               	db $A7, $67	;[CMD vibrato]
    2824.  0E:8CFA  C0                  	db $C0		;[Wait] 1
    2825.  0E:8CFB  B1 01               	db $B1, $01	;[CMD vibrato] rep
    2826.  0E:8CFD                      				;[Skip delay] 1
    2827.  0E:8CFD  3C                  	db $3C		;[Note] 61
    2828.  0E:8CFE  C1                  	db $C1		;[Wait] 2
    2829.  0E:8CFF  3E                  	db $3E		;[Note] 63
    2830.  0E:8D00                      				;[Skip delay] 2
    2831.  0E:8D00  40                  	db $40		;[Note] 65
    2832.  0E:8D01  C2                  	db $C2		;[Wait] 3
    2833.  0E:8D02  A7 56               	db $A7, $56	;[CMD vibrato]
    2834.  0E:8D04  C0                  	db $C0		;[Wait] 1
    2835.  0E:8D05  B1 02               	db $B1, $02	;[CMD vibrato] rep
    2836.  0E:8D07  C1                  	db $C1		;[Wait] 2
    2837.  0E:8D08  69                  	db $69		;[Volume] 9
    2838.  0E:8D09  A7 55               	db $A7, $55	;[CMD vibrato]
    2839.  0E:8D0B  C0                  	db $C0		;[Wait] 1
    2840.  0E:8D0C  67                  	db $67		;[Volume] 7
    2841.  0E:8D0D  B1 02               	db $B1, $02	;[CMD vibrato] rep
    2842.  0E:8D0F                      				;[Skip delay] 1
    2843.  0E:8D0F  66                  	db $66		;[Volume] 6
    2844.  0E:8D10                      				;[Skip delay] 1
    2845.  0E:8D10  60                  	db $60		;[Note] 97
    2846.  0E:8D11  63                  	db $63		;[Volume] 3
    2847.  0E:8D12                      				;[Skip delay] 1
    2848.  0E:8D12  40                  	db $40		;[Note] 65
    2849.  0E:8D13  6A                  	db $6A		;[Volume] 10
    2850.  0E:8D14  83                  	db $83		;[Instrument] 20
    2851.  0E:8D15  C1                  	db $C1		;[Wait] 2
    2852.  0E:8D16  A7 55               	db $A7, $55	;[CMD vibrato]
    2853.  0E:8D18  C0                  	db $C0		;[Wait] 1
    2854.  0E:8D19  B1 01               	db $B1, $01	;[CMD vibrato] rep
    2855.  0E:8D1B                      				;[Skip delay] 1
    2856.  0E:8D1B  43                  	db $43		;[Note] 68
    2857.  0E:8D1C  C1                  	db $C1		;[Wait] 2
    2858.  0E:8D1D  A7 55               	db $A7, $55	;[CMD vibrato]
    2859.  0E:8D1F  C0                  	db $C0		;[Wait] 1
    2860.  0E:8D20  B1 01               	db $B1, $01	;[CMD vibrato] rep
    2861.  0E:8D22                      				;[Skip delay] 1
    2862.  0E:8D22  BF                  	db $BF		;[End-Of-Track]
    2863.  0E:8D23                      .track_30:
    2864.  0E:8D23  37                  	db $37		;[Note] 56
    2865.  0E:8D24  6D                  	db $6D		;[Volume] 13
    2866.  0E:8D25  7F                  	db $7F		;[Instrument] 16
    2867.  0E:8D26  95 08               	db $95, $08	; track detune
    2868.  0E:8D28  C0                  	db $C0		;[Wait] 1
    2869.  0E:8D29  39                  	db $39		;[Note] 58
    2870.  0E:8D2A  A6 04               	db $A6, $04; tone-slide
    2871.  0E:8D2C                      				;[Skip delay] 1
    2872.  0E:8D2C  37                  	db $37		;[Note] 56
    2873.  0E:8D2D  C1                  	db $C1		;[Wait] 2
    2874.  0E:8D2E  34                  	db $34		;[Note] 53
    2875.  0E:8D2F                      				;[Skip delay] 2
    2876.  0E:8D2F  37                  	db $37		;[Note] 56
    2877.  0E:8D30  C1                  	db $C1		;[Wait..] 2
    2878.  0E:8D31  67                  	db $67		;[Volume] 7
    2879.  0E:8D32  C0                  	db $C0		;[Wait] 1
    2880.  0E:8D33  65                  	db $65		;[Volume] 5
    2881.  0E:8D34                      				;[Skip delay] 1
    2882.  0E:8D34  39                  	db $39		;[Note] 58
    2883.  0E:8D35  6A                  	db $6A		;[Volume] 10
    2884.  0E:8D36  C3                  	db $C3		;[Wait] 4
    2885.  0E:8D37  3C                  	db $3C		;[Note] 61
    2886.  0E:8D38  C1                  	db $C1		;[Wait] 2
    2887.  0E:8D39  67                  	db $67		;[Volume] 7
    2888.  0E:8D3A  C0                  	db $C0		;[Wait] 1
    2889.  0E:8D3B  65                  	db $65		;[Volume] 5
    2890.  0E:8D3C                      				;[Skip delay] 1
    2891.  0E:8D3C  3B                  	db $3B		;[Note] 60
    2892.  0E:8D3D  6A                  	db $6A		;[Volume] 10
    2893.  0E:8D3E  C1                  	db $C1		;[Wait] 2
    2894.  0E:8D3F  3B                  	db $3B		;[Note] 60
    2895.  0E:8D40  C8                  	db $C8		;[Wait] 9
    2896.  0E:8D41  69                  	db $69		;[Volume] 9
    2897.  0E:8D42  C0                  	db $C0		;[Wait] 1
    2898.  0E:8D43  68                  	db $68		;[Volume] 8
    2899.  0E:8D44                      				;[Skip delay] 1
    2900.  0E:8D44  64                  	db $64		;[Volume] 4
    2901.  0E:8D45                      				;[Skip delay] 1
    2902.  0E:8D45  37                  	db $37		;[Note] 56
    2903.  0E:8D46  6F                  	db $6F		;[Volume] 15
    2904.  0E:8D47                      				;[Skip delay] 1
    2905.  0E:8D47  39                  	db $39		;[Note] 58
    2906.  0E:8D48  A6 05               	db $A6, $05; tone-slide
    2907.  0E:8D4A                      				;[Skip delay] 1
    2908.  0E:8D4A  37                  	db $37		;[Note] 56
    2909.  0E:8D4B  C1                  	db $C1		;[Wait] 2
    2910.  0E:8D4C  39                  	db $39		;[Note] 58
    2911.  0E:8D4D                      				;[Skip delay] 2
    2912.  0E:8D4D  3B                  	db $3B		;[Note] 60
    2913.  0E:8D4E  C3                  	db $C3		;[Wait] 4
    2914.  0E:8D4F  39                  	db $39		;[Note] 58
    2915.  0E:8D50  C1                  	db $C1		;[Wait] 2
    2916.  0E:8D51  37                  	db $37		;[Note] 56
    2917.  0E:8D52                      				;[Skip delay] 2
    2918.  0E:8D52  3B                  	db $3B		;[Note] 60
    2919.  0E:8D53  C8                  	db $C8		;[Wait] 9
    2920.  0E:8D54  60                  	db $60		;[Note] 97
    2921.  0E:8D55  C0                  	db $C0		;[Wait] 1
    2922.  0E:8D56  2C                  	db $2C		;[Note] 45
    2923.  0E:8D57  83                  	db $83		;[Instrument] 20
    2924.  0E:8D58  C3                  	db $C3		;[Wait] 4
    2925.  0E:8D59  2F                  	db $2F		;[Note] 48
    2926.  0E:8D5A                      				;[Skip delay] 4
    2927.  0E:8D5A  BF                  	db $BF		;[End-Of-Track]
    2928.  0E:8D5B                      .track_31:
    2929.  0E:8D5B  15                  	db $15		;[Note] 22
    2930.  0E:8D5C  6F                  	db $6F		;[Volume] 15
    2931.  0E:8D5D  76                  	db $76		;[Instrument] 7
    2932.  0E:8D5E  C1                  	db $C1		;[Wait] 2
    2933.  0E:8D5F  15                  	db $15		;[Note] 22
    2934.  0E:8D60  C0                  	db $C0		;[Wait] 1
    2935.  0E:8D61  15                  	db $15		;[Note] 22
    2936.  0E:8D62                      				;[Skip delay] 1
    2937.  0E:8D62  15                  	db $15		;[Note] 22
    2938.  0E:8D63  C1                  	db $C1		;[Wait] 2
    2939.  0E:8D64  15                  	db $15		;[Note] 22
    2940.  0E:8D65                      				;[Skip delay] 2
    2941.  0E:8D65  15                  	db $15		;[Note] 22
    2942.  0E:8D66                      				;[Skip delay] 2
    2943.  0E:8D66  10                  	db $10		;[Note] 17
    2944.  0E:8D67                      				;[Skip delay] 2
    2945.  0E:8D67  15                  	db $15		;[Note] 22
    2946.  0E:8D68                      				;[Skip delay] 2
    2947.  0E:8D68  13                  	db $13		;[Note] 20
    2948.  0E:8D69  C3                  	db $C3		;[Wait] 4
    2949.  0E:8D6A  13                  	db $13		;[Note] 20
    2950.  0E:8D6B                      				;[Skip delay] 4
    2951.  0E:8D6B  13                  	db $13		;[Note] 20
    2952.  0E:8D6C  C1                  	db $C1		;[Wait] 2
    2953.  0E:8D6D  0E                  	db $0E		;[Note] 15
    2954.  0E:8D6E  C3                  	db $C3		;[Wait] 4
    2955.  0E:8D6F  13                  	db $13		;[Note] 20
    2956.  0E:8D70                      				;[Skip delay] 4
    2957.  0E:8D70  11                  	db $11		;[Note] 18
    2958.  0E:8D71  C1                  	db $C1		;[Wait] 2
    2959.  0E:8D72  11                  	db $11		;[Note] 18
    2960.  0E:8D73  C0                  	db $C0		;[Wait] 1
    2961.  0E:8D74  11                  	db $11		;[Note] 18
    2962.  0E:8D75                      				;[Skip delay] 1
    2963.  0E:8D75  11                  	db $11		;[Note] 18
    2964.  0E:8D76  C1                  	db $C1		;[Wait] 2
    2965.  0E:8D77  11                  	db $11		;[Note] 18
    2966.  0E:8D78                      				;[Skip delay] 2
    2967.  0E:8D78  13                  	db $13		;[Note] 20
    2968.  0E:8D79  C2                  	db $C2		;[Wait] 3
    2969.  0E:8D7A  13                  	db $13		;[Note] 20
    2970.  0E:8D7B                      				;[Skip delay] 3
    2971.  0E:8D7B  15                  	db $15		;[Note] 22
    2972.  0E:8D7C  C3                  	db $C3		;[Wait] 4
    2973.  0E:8D7D  15                  	db $15		;[Note] 22
    2974.  0E:8D7E                      				;[Skip delay] 4
    2975.  0E:8D7E  15                  	db $15		;[Note] 22
    2976.  0E:8D7F  C1                  	db $C1		;[Wait] 2
    2977.  0E:8D80  10                  	db $10		;[Note] 17
    2978.  0E:8D81                      				;[Skip delay] 2
    2979.  0E:8D81  10                  	db $10		;[Note] 17
    2980.  0E:8D82  C0                  	db $C0		;[Wait] 1
    2981.  0E:8D83  10                  	db $10		;[Note] 17
    2982.  0E:8D84                      				;[Skip delay] 1
    2983.  0E:8D84  10                  	db $10		;[Note] 17
    2984.  0E:8D85  C1                  	db $C1		;[Wait] 2
    2985.  0E:8D86  13                  	db $13		;[Note] 20
    2986.  0E:8D87  C0                  	db $C0		;[Wait] 1
    2987.  0E:8D88  13                  	db $13		;[Note] 20
    2988.  0E:8D89                      				;[Skip delay] 1
    2989.  0E:8D89  BF                  	db $BF		;[End-Of-Track]
    2990.  0E:8D8A                      .track_32:
    2991.  0E:8D8A  24                  	db $24		;[Note] 37
    2992.  0E:8D8B  6C                  	db $6C		;[Volume] 12
    2993.  0E:8D8C  78                  	db $78		;[Instrument] 9
    2994.  0E:8D8D  C7                  	db $C7		;[Wait] 8
    2995.  0E:8D8E  21                  	db $21		;[Note] 34
    2996.  0E:8D8F                      				;[Skip delay] 8
    2997.  0E:8D8F  23                  	db $23		;[Note] 36
    2998.  0E:8D90                      				;[Skip delay] 8
    2999.  0E:8D90  26                  	db $26		;[Note] 39
    3000.  0E:8D91                      				;[Skip delay] 8
    3001.  0E:8D91  1E                  	db $1E		;[Note] 31
    3002.  0E:8D92  76                  	db $76		;[Instrument] 7
    3003.  0E:8D93  C0                  	db $C0		;[Wait] 1
    3004.  0E:8D94  21                  	db $21		;[Note] 34
    3005.  0E:8D95  6D                  	db $6D		;[Volume] 13
    3006.  0E:8D96                      				;[Skip delay] 1
    3007.  0E:8D96  26                  	db $26		;[Note] 39
    3008.  0E:8D97  6E                  	db $6E		;[Volume] 14
    3009.  0E:8D98                      				;[Skip delay] 1
    3010.  0E:8D98  21                  	db $21		;[Note] 34
    3011.  0E:8D99                      				;[Skip delay] 1
    3012.  0E:8D99  21                  	db $21		;[Note] 34
    3013.  0E:8D9A                      				;[Skip delay] 1
    3014.  0E:8D9A  26                  	db $26		;[Note] 39
    3015.  0E:8D9B                      				;[Skip delay] 1
    3016.  0E:8D9B  2A                  	db $2A		;[Note] 43
    3017.  0E:8D9C                      				;[Skip delay] 1
    3018.  0E:8D9C  26                  	db $26		;[Note] 39
    3019.  0E:8D9D                      				;[Skip delay] 1
    3020.  0E:8D9D  26                  	db $26		;[Note] 39
    3021.  0E:8D9E                      				;[Skip delay] 1
    3022.  0E:8D9E  2A                  	db $2A		;[Note] 43
    3023.  0E:8D9F                      				;[Skip delay] 1
    3024.  0E:8D9F  2D                  	db $2D		;[Note] 46
    3025.  0E:8DA0                      				;[Skip delay] 1
    3026.  0E:8DA0  2A                  	db $2A		;[Note] 43
    3027.  0E:8DA1                      				;[Skip delay] 1
    3028.  0E:8DA1  2A                  	db $2A		;[Note] 43
    3029.  0E:8DA2                      				;[Skip delay] 1
    3030.  0E:8DA2  2D                  	db $2D		;[Note] 46
    3031.  0E:8DA3                      				;[Skip delay] 1
    3032.  0E:8DA3  32                  	db $32		;[Note] 51
    3033.  0E:8DA4                      				;[Skip delay] 1
    3034.  0E:8DA4  2D                  	db $2D		;[Note] 46
    3035.  0E:8DA5                      				;[Skip delay] 1
    3036.  0E:8DA5  20                  	db $20		;[Note] 33
    3037.  0E:8DA6                      				;[Skip delay] 1
    3038.  0E:8DA6  23                  	db $23		;[Note] 36
    3039.  0E:8DA7                      				;[Skip delay] 1
    3040.  0E:8DA7  28                  	db $28		;[Note] 41
    3041.  0E:8DA8                      				;[Skip delay] 1
    3042.  0E:8DA8  23                  	db $23		;[Note] 36
    3043.  0E:8DA9                      				;[Skip delay] 1
    3044.  0E:8DA9  20                  	db $20		;[Note] 33
    3045.  0E:8DAA                      				;[Skip delay] 1
    3046.  0E:8DAA  28                  	db $28		;[Note] 41
    3047.  0E:8DAB                      				;[Skip delay] 1
    3048.  0E:8DAB  2C                  	db $2C		;[Note] 45
    3049.  0E:8DAC                      				;[Skip delay] 1
    3050.  0E:8DAC  28                  	db $28		;[Note] 41
    3051.  0E:8DAD                      				;[Skip delay] 1
    3052.  0E:8DAD  28                  	db $28		;[Note] 41
    3053.  0E:8DAE                      				;[Skip delay] 1
    3054.  0E:8DAE  2C                  	db $2C		;[Note] 45
    3055.  0E:8DAF                      				;[Skip delay] 1
    3056.  0E:8DAF  2F                  	db $2F		;[Note] 48
    3057.  0E:8DB0  6D                  	db $6D		;[Volume] 13
    3058.  0E:8DB1                      				;[Skip delay] 1
    3059.  0E:8DB1  2C                  	db $2C		;[Note] 45
    3060.  0E:8DB2  6C                  	db $6C		;[Volume] 12
    3061.  0E:8DB3                      				;[Skip delay] 1
    3062.  0E:8DB3  2C                  	db $2C		;[Note] 45
    3063.  0E:8DB4  6A                  	db $6A		;[Volume] 10
    3064.  0E:8DB5                      				;[Skip delay] 1
    3065.  0E:8DB5  2F                  	db $2F		;[Note] 48
    3066.  0E:8DB6  69                  	db $69		;[Volume] 9
    3067.  0E:8DB7                      				;[Skip delay] 1
    3068.  0E:8DB7  34                  	db $34		;[Note] 53
    3069.  0E:8DB8  67                  	db $67		;[Volume] 7
    3070.  0E:8DB9                      				;[Skip delay] 1
    3071.  0E:8DB9  2F                  	db $2F		;[Note] 48
    3072.  0E:8DBA                      				;[Skip delay] 1
    3073.  0E:8DBA  BF                  	db $BF		;[End-Of-Track]
    3074.  0E:8DBB                      .track_33:
    3075.  0E:8DBB  09                  	db $09		;[Note] 10
    3076.  0E:8DBC  6F                  	db $6F		;[Volume] 15
    3077.  0E:8DBD  79                  	db $79		;[Instrument] 10
    3078.  0E:8DBE  C1                  	db $C1		;[Wait] 2
    3079.  0E:8DBF  09                  	db $09		;[Note] 10
    3080.  0E:8DC0  C0                  	db $C0		;[Wait] 1
    3081.  0E:8DC1  09                  	db $09		;[Note] 10
    3082.  0E:8DC2                      				;[Skip delay] 1
    3083.  0E:8DC2  09                  	db $09		;[Note] 10
    3084.  0E:8DC3  C1                  	db $C1		;[Wait] 2
    3085.  0E:8DC4  09                  	db $09		;[Note] 10
    3086.  0E:8DC5                      				;[Skip delay] 2
    3087.  0E:8DC5  09                  	db $09		;[Note] 10
    3088.  0E:8DC6                      				;[Skip delay] 2
    3089.  0E:8DC6  04                  	db $04		;[Note] 5
    3090.  0E:8DC7                      				;[Skip delay] 2
    3091.  0E:8DC7  09                  	db $09		;[Note] 10
    3092.  0E:8DC8                      				;[Skip delay] 2
    3093.  0E:8DC8  07                  	db $07		;[Note] 8
    3094.  0E:8DC9  C3                  	db $C3		;[Wait] 4
    3095.  0E:8DCA  07                  	db $07		;[Note] 8
    3096.  0E:8DCB                      				;[Skip delay] 4
    3097.  0E:8DCB  07                  	db $07		;[Note] 8
    3098.  0E:8DCC  C1                  	db $C1		;[Wait] 2
    3099.  0E:8DCD  02                  	db $02		;[Note] 3
    3100.  0E:8DCE  C3                  	db $C3		;[Wait] 4
    3101.  0E:8DCF  07                  	db $07		;[Note] 8
    3102.  0E:8DD0                      				;[Skip delay] 4
    3103.  0E:8DD0  05                  	db $05		;[Note] 6
    3104.  0E:8DD1  C1                  	db $C1		;[Wait] 2
    3105.  0E:8DD2  05                  	db $05		;[Note] 6
    3106.  0E:8DD3  C0                  	db $C0		;[Wait] 1
    3107.  0E:8DD4  05                  	db $05		;[Note] 6
    3108.  0E:8DD5                      				;[Skip delay] 1
    3109.  0E:8DD5  05                  	db $05		;[Note] 6
    3110.  0E:8DD6  C1                  	db $C1		;[Wait] 2
    3111.  0E:8DD7  05                  	db $05		;[Note] 6
    3112.  0E:8DD8                      				;[Skip delay] 2
    3113.  0E:8DD8  07                  	db $07		;[Note] 8
    3114.  0E:8DD9  C2                  	db $C2		;[Wait] 3
    3115.  0E:8DDA  07                  	db $07		;[Note] 8
    3116.  0E:8DDB                      				;[Skip delay] 3
    3117.  0E:8DDB  09                  	db $09		;[Note] 10
    3118.  0E:8DDC  C3                  	db $C3		;[Wait] 4
    3119.  0E:8DDD  09                  	db $09		;[Note] 10
    3120.  0E:8DDE                      				;[Skip delay] 4
    3121.  0E:8DDE  09                  	db $09		;[Note] 10
    3122.  0E:8DDF  C1                  	db $C1		;[Wait] 2
    3123.  0E:8DE0  04                  	db $04		;[Note] 5
    3124.  0E:8DE1                      				;[Skip delay] 2
    3125.  0E:8DE1  04                  	db $04		;[Note] 5
    3126.  0E:8DE2  C0                  	db $C0		;[Wait] 1
    3127.  0E:8DE3  04                  	db $04		;[Note] 5
    3128.  0E:8DE4                      				;[Skip delay] 1
    3129.  0E:8DE4  04                  	db $04		;[Note] 5
    3130.  0E:8DE5  C1                  	db $C1		;[Wait] 2
    3131.  0E:8DE6  07                  	db $07		;[Note] 8
    3132.  0E:8DE7  C0                  	db $C0		;[Wait] 1
    3133.  0E:8DE8  07                  	db $07		;[Note] 8
    3134.  0E:8DE9                      				;[Skip delay] 1
    3135.  0E:8DE9  BF                  	db $BF		;[End-Of-Track]
    3136.  0E:8DEA                      .track_34:
    3137.  0E:8DEA  23                  	db $23		;[Note] 36
    3138.  0E:8DEB  6F                  	db $6F		;[Volume] 15
    3139.  0E:8DEC  7A                  	db $7A		;[Instrument] 11
    3140.  0E:8DED  C1                  	db $C1		;[Wait] 2
    3141.  0E:8DEE  21                  	db $21		;[Note] 34
    3142.  0E:8DEF                      				;[Skip delay] 2
    3143.  0E:8DEF  1F                  	db $1F		;[Note] 32
    3144.  0E:8DF0  C3                  	db $C3		;[Wait] 4
    3145.  0E:8DF1  1C                  	db $1C		;[Note] 29
    3146.  0E:8DF2                      				;[Skip delay] 4
    3147.  0E:8DF2  24                  	db $24		;[Note] 37
    3148.  0E:8DF3                      				;[Skip delay] 4
    3149.  0E:8DF3  26                  	db $26		;[Note] 39
    3150.  0E:8DF4  C1                  	db $C1		;[Wait] 2
    3151.  0E:8DF5  24                  	db $24		;[Note] 37
    3152.  0E:8DF6                      				;[Skip delay] 2
    3153.  0E:8DF6  23                  	db $23		;[Note] 36
    3154.  0E:8DF7  C3                  	db $C3		;[Wait] 4
    3155.  0E:8DF8  23                  	db $23		;[Note] 36
    3156.  0E:8DF9  C1                  	db $C1		;[Wait] 2
    3157.  0E:8DFA  21                  	db $21		;[Note] 34
    3158.  0E:8DFB                      				;[Skip delay] 2
    3159.  0E:8DFB  1F                  	db $1F		;[Note] 32
    3160.  0E:8DFC  C3                  	db $C3		;[Wait] 4
    3161.  0E:8DFD  36                  	db $36		;[Note] 55
    3162.  0E:8DFE  6C                  	db $6C		;[Volume] 12
    3163.  0E:8DFF  7E                  	db $7E		;[Instrument] 15
    3164.  0E:8E00  C0                  	db $C0		;[Wait] 1
    3165.  0E:8E01  39                  	db $39		;[Note] 58
    3166.  0E:8E02                      				;[Skip delay] 1
    3167.  0E:8E02  3E                  	db $3E		;[Note] 63
    3168.  0E:8E03                      				;[Skip delay] 1
    3169.  0E:8E03  39                  	db $39		;[Note] 58
    3170.  0E:8E04                      				;[Skip delay] 1
    3171.  0E:8E04  39                  	db $39		;[Note] 58
    3172.  0E:8E05                      				;[Skip delay] 1
    3173.  0E:8E05  3E                  	db $3E		;[Note] 63
    3174.  0E:8E06                      				;[Skip delay] 1
    3175.  0E:8E06  42                  	db $42		;[Note] 67
    3176.  0E:8E07                      				;[Skip delay] 1
    3177.  0E:8E07  3E                  	db $3E		;[Note] 63
    3178.  0E:8E08                      				;[Skip delay] 1
    3179.  0E:8E08  3E                  	db $3E		;[Note] 63
    3180.  0E:8E09                      				;[Skip delay] 1
    3181.  0E:8E09  42                  	db $42		;[Note] 67
    3182.  0E:8E0A                      				;[Skip delay] 1
    3183.  0E:8E0A  45                  	db $45		;[Note] 70
    3184.  0E:8E0B                      				;[Skip delay] 1
    3185.  0E:8E0B  42                  	db $42		;[Note] 67
    3186.  0E:8E0C                      				;[Skip delay] 1
    3187.  0E:8E0C  42                  	db $42		;[Note] 67
    3188.  0E:8E0D                      				;[Skip delay] 1
    3189.  0E:8E0D  45                  	db $45		;[Note] 70
    3190.  0E:8E0E                      				;[Skip delay] 1
    3191.  0E:8E0E  4A                  	db $4A		;[Note] 75
    3192.  0E:8E0F                      				;[Skip delay] 1
    3193.  0E:8E0F  45                  	db $45		;[Note] 70
    3194.  0E:8E10                      				;[Skip delay] 1
    3195.  0E:8E10  38                  	db $38		;[Note] 57
    3196.  0E:8E11                      				;[Skip delay] 1
    3197.  0E:8E11  3B                  	db $3B		;[Note] 60
    3198.  0E:8E12                      				;[Skip delay] 1
    3199.  0E:8E12  40                  	db $40		;[Note] 65
    3200.  0E:8E13                      				;[Skip delay] 1
    3201.  0E:8E13  3B                  	db $3B		;[Note] 60
    3202.  0E:8E14                      				;[Skip delay] 1
    3203.  0E:8E14  38                  	db $38		;[Note] 57
    3204.  0E:8E15                      				;[Skip delay] 1
    3205.  0E:8E15  40                  	db $40		;[Note] 65
    3206.  0E:8E16                      				;[Skip delay] 1
    3207.  0E:8E16  44                  	db $44		;[Note] 69
    3208.  0E:8E17                      				;[Skip delay] 1
    3209.  0E:8E17  40                  	db $40		;[Note] 65
    3210.  0E:8E18                      				;[Skip delay] 1
    3211.  0E:8E18  40                  	db $40		;[Note] 65
    3212.  0E:8E19                      				;[Skip delay] 1
    3213.  0E:8E19  44                  	db $44		;[Note] 69
    3214.  0E:8E1A  69                  	db $69		;[Volume] 9
    3215.  0E:8E1B                      				;[Skip delay] 1
    3216.  0E:8E1B  47                  	db $47		;[Note] 72
    3217.  0E:8E1C  68                  	db $68		;[Volume] 8
    3218.  0E:8E1D                      				;[Skip delay] 1
    3219.  0E:8E1D  44                  	db $44		;[Note] 69
    3220.  0E:8E1E  66                  	db $66		;[Volume] 6
    3221.  0E:8E1F                      				;[Skip delay] 1
    3222.  0E:8E1F  44                  	db $44		;[Note] 69
    3223.  0E:8E20  65                  	db $65		;[Volume] 5
    3224.  0E:8E21                      				;[Skip delay] 1
    3225.  0E:8E21  47                  	db $47		;[Note] 72
    3226.  0E:8E22  63                  	db $63		;[Volume] 3
    3227.  0E:8E23                      				;[Skip delay] 1
    3228.  0E:8E23  4C                  	db $4C		;[Note] 77
    3229.  0E:8E24                      				;[Skip delay] 1
    3230.  0E:8E24  47                  	db $47		;[Note] 72
    3231.  0E:8E25                      				;[Skip delay] 1
    3232.  0E:8E25  BF                  	db $BF		;[End-Of-Track]
    3233.  0E:8E26                      .track_35:
    3234.  0E:8E26  21                  	db $21		;[Note] 34
    3235.  0E:8E27  6D                  	db $6D		;[Volume] 13
    3236.  0E:8E28  7B                  	db $7B		;[Instrument] 12
    3237.  0E:8E29  C0                  	db $C0		;[Wait] 1
    3238.  0E:8E2A  69                  	db $69		;[Volume] 9
    3239.  0E:8E2B  A5 10               	db $A5, $10; slide-down
    3240.  0E:8E2D                      				;[Skip delay] 1
    3241.  0E:8E2D  68                  	db $68		;[Volume] 8
    3242.  0E:8E2E  AF 02               	db $AF, $02; slide-down rep
    3243.  0E:8E30                      				;[Skip delay] 1
    3244.  0E:8E30  66                  	db $66		;[Volume] 6
    3245.  0E:8E31                      				;[Skip delay] 1
    3246.  0E:8E31  23                  	db $23		;[Note] 36
    3247.  0E:8E32  6B                  	db $6B		;[Volume] 11
    3248.  0E:8E33  7D                  	db $7D		;[Instrument] 14
    3249.  0E:8E34                      				;[Skip delay] 1
    3250.  0E:8E34  24                  	db $24		;[Note] 37
    3251.  0E:8E35  A6 07               	db $A6, $07; tone-slide
    3252.  0E:8E37                      				;[Skip delay] 1
    3253.  0E:8E37  B0 02               	db $B0, $02; tone-slide rep
    3254.  0E:8E39                      				;[Skip delay] 1
    3255.  0E:8E39  60                  	db $60		;[Note] 97
    3256.  0E:8E3A                      				;[Skip delay] 1
    3257.  0E:8E3A  23                  	db $23		;[Note] 36
    3258.  0E:8E3B  C2                  	db $C2		;[Wait] 3
    3259.  0E:8E3C  6A                  	db $6A		;[Volume] 10
    3260.  0E:8E3D  C0                  	db $C0		;[Wait] 1
    3261.  0E:8E3E  69                  	db $69		;[Volume] 9
    3262.  0E:8E3F                      				;[Skip delay] 1
    3263.  0E:8E3F  67                  	db $67		;[Volume] 7
    3264.  0E:8E40                      				;[Skip delay] 1
    3265.  0E:8E40  66                  	db $66		;[Volume] 6
    3266.  0E:8E41                      				;[Skip delay] 1
    3267.  0E:8E41  64                  	db $64		;[Volume] 4
    3268.  0E:8E42  C2                  	db $C2		;[Wait] 3
    3269.  0E:8E43  28                  	db $28		;[Note] 41
    3270.  0E:8E44  68                  	db $68		;[Volume] 8
    3271.  0E:8E45  89                  	db $89		;[Instrument] 26
    3272.  0E:8E46  C1                  	db $C1		;[Wait] 2
    3273.  0E:8E47  2D                  	db $2D		;[Note] 46
    3274.  0E:8E48  C2                  	db $C2		;[Wait] 3
    3275.  0E:8E49  32                  	db $32		;[Note] 51
    3276.  0E:8E4A                      				;[Skip delay] 3
    3277.  0E:8E4A  2D                  	db $2D		;[Note] 46
    3278.  0E:8E4B  C1                  	db $C1		;[Wait] 2
    3279.  0E:8E4C  30                  	db $30		;[Note] 49
    3280.  0E:8E4D                      				;[Skip delay] 2
    3281.  0E:8E4D  32                  	db $32		;[Note] 51
    3282.  0E:8E4E                      				;[Skip delay] 2
    3283.  0E:8E4E  36                  	db $36		;[Note] 55
    3284.  0E:8E4F  66                  	db $66		;[Volume] 6
    3285.  0E:8E50  87                  	db $87		;[Instrument] 24
    3286.  0E:8E51  C3                  	db $C3		;[Wait] 4
    3287.  0E:8E52  32                  	db $32		;[Note] 51
    3288.  0E:8E53  C0                  	db $C0		;[Wait] 1
    3289.  0E:8E54  64                  	db $64		;[Volume] 4
    3290.  0E:8E55                      				;[Skip delay] 1
    3291.  0E:8E55  62                  	db $62		;[Volume] 2
    3292.  0E:8E56  C2                  	db $C2		;[Wait] 3
    3293.  0E:8E57  60                  	db $60		;[Note] 97
    3294.  0E:8E58                      				;[Skip delay] 3
    3295.  0E:8E58  2B                  	db $2B		;[Note] 44
    3296.  0E:8E59  C1                  	db $C1		;[Wait] 2
    3297.  0E:8E5A  32                  	db $32		;[Note] 51
    3298.  0E:8E5B  C4                  	db $C4		;[Wait] 5
    3299.  0E:8E5C  A5 10               	db $A5, $10; slide-down
    3300.  0E:8E5E  C0                  	db $C0		;[Wait] 1
    3301.  0E:8E5F  AF 08               	db $AF, $08; slide-down rep
    3302.  0E:8E61  C7                  	db $C7		;[Wait] 8
    3303.  0E:8E62  60                  	db $60		;[Note] 97
    3304.  0E:8E63  C3                  	db $C3		;[Wait] 4
    3305.  0E:8E64  BF                  	db $BF		;[End-Of-Track]
    3306.  0E:8E65                      .track_36:
    3307.  0E:8E65  60                  	db $60		;[Note] 97
    3308.  0E:8E66  C3                  	db $C3		;[Wait] 4
    3309.  0E:8E67  37                  	db $37		;[Note] 56
    3310.  0E:8E68  6D                  	db $6D		;[Volume] 13
    3311.  0E:8E69  83                  	db $83		;[Instrument] 20
    3312.  0E:8E6A  C0                  	db $C0		;[Wait] 1
    3313.  0E:8E6B  39                  	db $39		;[Note] 58
    3314.  0E:8E6C  A6 09               	db $A6, $09; tone-slide
    3315.  0E:8E6E                      				;[Skip delay] 1
    3316.  0E:8E6E  B0 01               	db $B0, $01; tone-slide rep
    3317.  0E:8E70                      				;[Skip delay] 1
    3318.  0E:8E70  60                  	db $60		;[Note] 97
    3319.  0E:8E71                      				;[Skip delay] 1
    3320.  0E:8E71  37                  	db $37		;[Note] 56
    3321.  0E:8E72  C3                  	db $C3		;[Wait] 4
    3322.  0E:8E73  A7 55               	db $A7, $55	;[CMD vibrato]
    3323.  0E:8E75  C0                  	db $C0		;[Wait] 1
    3324.  0E:8E76  B1 03               	db $B1, $03	;[CMD vibrato] rep
    3325.  0E:8E78  C2                  	db $C2		;[Wait] 3
    3326.  0E:8E79  34                  	db $34		;[Note] 53
    3327.  0E:8E7A  C1                  	db $C1		;[Wait] 2
    3328.  0E:8E7B  32                  	db $32		;[Note] 51
    3329.  0E:8E7C                      				;[Skip delay] 2
    3330.  0E:8E7C  30                  	db $30		;[Note] 49
    3331.  0E:8E7D  C2                  	db $C2		;[Wait] 3
    3332.  0E:8E7E  2D                  	db $2D		;[Note] 46
    3333.  0E:8E7F  C0                  	db $C0		;[Wait] 1
    3334.  0E:8E80  6B                  	db $6B		;[Volume] 11
    3335.  0E:8E81                      				;[Skip delay] 1
    3336.  0E:8E81  66                  	db $66		;[Volume] 6
    3337.  0E:8E82                      				;[Skip delay] 1
    3338.  0E:8E82  2D                  	db $2D		;[Note] 46
    3339.  0E:8E83  6D                  	db $6D		;[Volume] 13
    3340.  0E:8E84                      				;[Skip delay] 1
    3341.  0E:8E84  68                  	db $68		;[Volume] 8
    3342.  0E:8E85                      				;[Skip delay] 1
    3343.  0E:8E85  2D                  	db $2D		;[Note] 46
    3344.  0E:8E86  6B                  	db $6B		;[Volume] 11
    3345.  0E:8E87  C1                  	db $C1		;[Wait] 2
    3346.  0E:8E88  30                  	db $30		;[Note] 49
    3347.  0E:8E89                      				;[Skip delay] 2
    3348.  0E:8E89  32                  	db $32		;[Note] 51
    3349.  0E:8E8A  6C                  	db $6C		;[Volume] 12
    3350.  0E:8E8B                      				;[Skip delay] 2
    3351.  0E:8E8B  66                  	db $66		;[Volume] 6
    3352.  0E:8E8C  C0                  	db $C0		;[Wait] 1
    3353.  0E:8E8D  63                  	db $63		;[Volume] 3
    3354.  0E:8E8E                      				;[Skip delay] 1
    3355.  0E:8E8E  32                  	db $32		;[Note] 51
    3356.  0E:8E8F  6C                  	db $6C		;[Volume] 12
    3357.  0E:8E90  C1                  	db $C1		;[Wait] 2
    3358.  0E:8E91  66                  	db $66		;[Volume] 6
    3359.  0E:8E92  C0                  	db $C0		;[Wait] 1
    3360.  0E:8E93  63                  	db $63		;[Volume] 3
    3361.  0E:8E94                      				;[Skip delay] 1
    3362.  0E:8E94  30                  	db $30		;[Note] 49
    3363.  0E:8E95  6A                  	db $6A		;[Volume] 10
    3364.  0E:8E96                      				;[Skip delay] 1
    3365.  0E:8E96  32                  	db $32		;[Note] 51
    3366.  0E:8E97  C2                  	db $C2		;[Wait] 3
    3367.  0E:8E98  30                  	db $30		;[Note] 49
    3368.  0E:8E99  C1                  	db $C1		;[Wait] 2
    3369.  0E:8E9A  34                  	db $34		;[Note] 53
    3370.  0E:8E9B  C3                  	db $C3		;[Wait] 4
    3371.  0E:8E9C  A7 56               	db $A7, $56	;[CMD vibrato]
    3372.  0E:8E9E  C0                  	db $C0		;[Wait] 1
    3373.  0E:8E9F  B1 03               	db $B1, $03	;[CMD vibrato] rep
    3374.  0E:8EA1  C2                  	db $C2		;[Wait] 3
    3375.  0E:8EA2  67                  	db $67		;[Volume] 7
    3376.  0E:8EA3  A7 55               	db $A7, $55	;[CMD vibrato]
    3377.  0E:8EA5  C0                  	db $C0		;[Wait] 1
    3378.  0E:8EA6  66                  	db $66		;[Volume] 6
    3379.  0E:8EA7  B1 01               	db $B1, $01	;[CMD vibrato] rep
    3380.  0E:8EA9                      				;[Skip delay] 1
    3381.  0E:8EA9  64                  	db $64		;[Volume] 4
    3382.  0E:8EAA  A5 10               	db $A5, $10; slide-down
    3383.  0E:8EAC                      				;[Skip delay] 1
    3384.  0E:8EAC  63                  	db $63		;[Volume] 3
    3385.  0E:8EAD  AF 01               	db $AF, $01; slide-down rep
    3386.  0E:8EAF                      				;[Skip delay] 1
    3387.  0E:8EAF  34                  	db $34		;[Note] 53
    3388.  0E:8EB0  6A                  	db $6A		;[Volume] 10
    3389.  0E:8EB1                      				;[Skip delay] 1
    3390.  0E:8EB1  66                  	db $66		;[Volume] 6
    3391.  0E:8EB2                      				;[Skip delay] 1
    3392.  0E:8EB2  34                  	db $34		;[Note] 53
    3393.  0E:8EB3  6A                  	db $6A		;[Volume] 10
    3394.  0E:8EB4  C1                  	db $C1		;[Wait] 2
    3395.  0E:8EB5  37                  	db $37		;[Note] 56
    3396.  0E:8EB6                      				;[Skip delay] 2
    3397.  0E:8EB6  BF                  	db $BF		;[End-Of-Track]
    3398.  0E:8EB7                      .track_37:
    3399.  0E:8EB7  60                  	db $60		;[Note] 97
    3400.  0E:8EB8  C3                  	db $C3		;[Wait] 4
    3401.  0E:8EB9  2F                  	db $2F		;[Note] 48
    3402.  0E:8EBA  69                  	db $69		;[Volume] 9
    3403.  0E:8EBB  83                  	db $83		;[Instrument] 20
    3404.  0E:8EBC  C0                  	db $C0		;[Wait] 1
    3405.  0E:8EBD  30                  	db $30		;[Note] 49
    3406.  0E:8EBE  A6 09               	db $A6, $09; tone-slide
    3407.  0E:8EC0                      				;[Skip delay] 1
    3408.  0E:8EC0  B0 01               	db $B0, $01; tone-slide rep
    3409.  0E:8EC2                      				;[Skip delay] 1
    3410.  0E:8EC2  60                  	db $60		;[Note] 97
    3411.  0E:8EC3                      				;[Skip delay] 1
    3412.  0E:8EC3  2F                  	db $2F		;[Note] 48
    3413.  0E:8EC4  C7                  	db $C7		;[Wait] 8
    3414.  0E:8EC5  30                  	db $30		;[Note] 49
    3415.  0E:8EC6  C1                  	db $C1		;[Wait] 2
    3416.  0E:8EC7  2F                  	db $2F		;[Note] 48
    3417.  0E:8EC8                      				;[Skip delay] 2
    3418.  0E:8EC8  2D                  	db $2D		;[Note] 46
    3419.  0E:8EC9  C2                  	db $C2		;[Wait] 3
    3420.  0E:8ECA  28                  	db $28		;[Note] 41
    3421.  0E:8ECB  6D                  	db $6D		;[Volume] 13
    3422.  0E:8ECC  C0                  	db $C0		;[Wait] 1
    3423.  0E:8ECD  6B                  	db $6B		;[Volume] 11
    3424.  0E:8ECE                      				;[Skip delay] 1
    3425.  0E:8ECE  66                  	db $66		;[Volume] 6
    3426.  0E:8ECF                      				;[Skip delay] 1
    3427.  0E:8ECF  28                  	db $28		;[Note] 41
    3428.  0E:8ED0  6D                  	db $6D		;[Volume] 13
    3429.  0E:8ED1  C1                  	db $C1		;[Wait] 2
    3430.  0E:8ED2  28                  	db $28		;[Note] 41
    3431.  0E:8ED3                      				;[Skip delay] 2
    3432.  0E:8ED3  2B                  	db $2B		;[Note] 44
    3433.  0E:8ED4  C0                  	db $C0		;[Wait] 1
    3434.  0E:8ED5  60                  	db $60		;[Note] 97
    3435.  0E:8ED6                      				;[Skip delay] 1
    3436.  0E:8ED6  2D                  	db $2D		;[Note] 46
    3437.  0E:8ED7  C3                  	db $C3		;[Wait] 4
    3438.  0E:8ED8  2A                  	db $2A		;[Note] 43
    3439.  0E:8ED9                      				;[Skip delay] 4
    3440.  0E:8ED9  2B                  	db $2B		;[Note] 44
    3441.  0E:8EDA  C0                  	db $C0		;[Wait] 1
    3442.  0E:8EDB  2D                  	db $2D		;[Note] 46
    3443.  0E:8EDC  C2                  	db $C2		;[Wait] 3
    3444.  0E:8EDD  2B                  	db $2B		;[Note] 44
    3445.  0E:8EDE  C1                  	db $C1		;[Wait] 2
    3446.  0E:8EDF  2C                  	db $2C		;[Note] 45
    3447.  0E:8EE0  C9                  	db $C9		;[Wait] 10
    3448.  0E:8EE1  A5 10               	db $A5, $10; slide-down
    3449.  0E:8EE3  C0                  	db $C0		;[Wait] 1
    3450.  0E:8EE4  AF 01               	db $AF, $01; slide-down rep
    3451.  0E:8EE6                      				;[Skip delay] 1
    3452.  0E:8EE6  2C                  	db $2C		;[Note] 45
    3453.  0E:8EE7  C1                  	db $C1		;[Wait] 2
    3454.  0E:8EE8  2F                  	db $2F		;[Note] 48
    3455.  0E:8EE9                      				;[Skip delay] 2
    3456.  0E:8EE9  32                  	db $32		;[Note] 51
    3457.  0E:8EEA                      				;[Skip delay] 2
    3458.  0E:8EEA  BF                  	db $BF		;[End-Of-Track]
    3459.  0E:8EEB                      .track_38:
    3460.  0E:8EEB  12                  	db $12		;[Note] 19
    3461.  0E:8EEC  6F                  	db $6F		;[Volume] 15
    3462.  0E:8EED  70                  	db $70		;[Instrument] 1
    3463.  0E:8EEE  C1                  	db $C1		;[Wait] 2
    3464.  0E:8EEF  5F                  	db $5F		;[Note] 96
    3465.  0E:8EF0  6E                  	db $6E		;[Volume] 14
    3466.  0E:8EF1  72                  	db $72		;[Instrument] 3
    3467.  0E:8EF2  C0                  	db $C0		;[Wait] 1
    3468.  0E:8EF3  5F                  	db $5F		;[Note] 96
    3469.  0E:8EF4  6D                  	db $6D		;[Volume] 13
    3470.  0E:8EF5                      				;[Skip delay] 1
    3471.  0E:8EF5  5F                  	db $5F		;[Note] 96
    3472.  0E:8EF6  6E                  	db $6E		;[Volume] 14
    3473.  0E:8EF7  C1                  	db $C1		;[Wait] 2
    3474.  0E:8EF8  5F                  	db $5F		;[Note] 96
    3475.  0E:8EF9  73                  	db $73		;[Instrument] 4
    3476.  0E:8EFA                      				;[Skip delay] 2
    3477.  0E:8EFA  12                  	db $12		;[Note] 19
    3478.  0E:8EFB  6F                  	db $6F		;[Volume] 15
    3479.  0E:8EFC  70                  	db $70		;[Instrument] 1
    3480.  0E:8EFD                      				;[Skip delay] 2
    3481.  0E:8EFD  5F                  	db $5F		;[Note] 96
    3482.  0E:8EFE  6E                  	db $6E		;[Volume] 14
    3483.  0E:8EFF  72                  	db $72		;[Instrument] 3
    3484.  0E:8F00                      				;[Skip delay] 2
    3485.  0E:8F00  5F                  	db $5F		;[Note] 96
    3486.  0E:8F01  6D                  	db $6D		;[Volume] 13
    3487.  0E:8F02  C0                  	db $C0		;[Wait] 1
    3488.  0E:8F03  60                  	db $60		;[Note] 97
    3489.  0E:8F04                      				;[Skip delay] 1
    3490.  0E:8F04  12                  	db $12		;[Note] 19
    3491.  0E:8F05  70                  	db $70		;[Instrument] 1
    3492.  0E:8F06  C1                  	db $C1		;[Wait] 2
    3493.  0E:8F07  5F                  	db $5F		;[Note] 96
    3494.  0E:8F08  6E                  	db $6E		;[Volume] 14
    3495.  0E:8F09  72                  	db $72		;[Instrument] 3
    3496.  0E:8F0A                      				;[Skip delay] 2
    3497.  0E:8F0A  5F                  	db $5F		;[Note] 96
    3498.  0E:8F0B  73                  	db $73		;[Instrument] 4
    3499.  0E:8F0C                      				;[Skip delay] 2
    3500.  0E:8F0C  12                  	db $12		;[Note] 19
    3501.  0E:8F0D  70                  	db $70		;[Instrument] 1
    3502.  0E:8F0E                      				;[Skip delay] 2
    3503.  0E:8F0E  5F                  	db $5F		;[Note] 96
    3504.  0E:8F0F  72                  	db $72		;[Instrument] 3
    3505.  0E:8F10                      				;[Skip delay] 2
    3506.  0E:8F10  5F                  	db $5F		;[Note] 96
    3507.  0E:8F11                      				;[Skip delay] 2
    3508.  0E:8F11  5F                  	db $5F		;[Note] 96
    3509.  0E:8F12  C0                  	db $C0		;[Wait] 1
    3510.  0E:8F13  5F                  	db $5F		;[Note] 96
    3511.  0E:8F14  6D                  	db $6D		;[Volume] 13
    3512.  0E:8F15                      				;[Skip delay] 1
    3513.  0E:8F15  5F                  	db $5F		;[Note] 96
    3514.  0E:8F16  6E                  	db $6E		;[Volume] 14
    3515.  0E:8F17  C1                  	db $C1		;[Wait] 2
    3516.  0E:8F18  5F                  	db $5F		;[Note] 96
    3517.  0E:8F19                      				;[Skip delay] 2
    3518.  0E:8F19  12                  	db $12		;[Note] 19
    3519.  0E:8F1A  6F                  	db $6F		;[Volume] 15
    3520.  0E:8F1B  70                  	db $70		;[Instrument] 1
    3521.  0E:8F1C                      				;[Skip delay] 2
    3522.  0E:8F1C  5F                  	db $5F		;[Note] 96
    3523.  0E:8F1D  6E                  	db $6E		;[Volume] 14
    3524.  0E:8F1E  72                  	db $72		;[Instrument] 3
    3525.  0E:8F1F  C0                  	db $C0		;[Wait] 1
    3526.  0E:8F20  5F                  	db $5F		;[Note] 96
    3527.  0E:8F21  6D                  	db $6D		;[Volume] 13
    3528.  0E:8F22                      				;[Skip delay] 1
    3529.  0E:8F22  5F                  	db $5F		;[Note] 96
    3530.  0E:8F23  6E                  	db $6E		;[Volume] 14
    3531.  0E:8F24  C1                  	db $C1		;[Wait] 2
    3532.  0E:8F25  5F                  	db $5F		;[Note] 96
    3533.  0E:8F26  73                  	db $73		;[Instrument] 4
    3534.  0E:8F27                      				;[Skip delay] 2
    3535.  0E:8F27  1F                  	db $1F		;[Note] 32
    3536.  0E:8F28  6F                  	db $6F		;[Volume] 15
    3537.  0E:8F29  71                  	db $71		;[Instrument] 2
    3538.  0E:8F2A                      				;[Skip delay] 2
    3539.  0E:8F2A  5F                  	db $5F		;[Note] 96
    3540.  0E:8F2B  6D                  	db $6D		;[Volume] 13
    3541.  0E:8F2C  72                  	db $72		;[Instrument] 3
    3542.  0E:8F2D                      				;[Skip delay] 2
    3543.  0E:8F2D  5F                  	db $5F		;[Note] 96
    3544.  0E:8F2E  6A                  	db $6A		;[Volume] 10
    3545.  0E:8F2F  C0                  	db $C0		;[Wait] 1
    3546.  0E:8F30  60                  	db $60		;[Note] 97
    3547.  0E:8F31                      				;[Skip delay] 1
    3548.  0E:8F31  12                  	db $12		;[Note] 19
    3549.  0E:8F32  6F                  	db $6F		;[Volume] 15
    3550.  0E:8F33  70                  	db $70		;[Instrument] 1
    3551.  0E:8F34  C1                  	db $C1		;[Wait] 2
    3552.  0E:8F35  5F                  	db $5F		;[Note] 96
    3553.  0E:8F36  6E                  	db $6E		;[Volume] 14
    3554.  0E:8F37  72                  	db $72		;[Instrument] 3
    3555.  0E:8F38                      				;[Skip delay] 2
    3556.  0E:8F38  1F                  	db $1F		;[Note] 32
    3557.  0E:8F39  71                  	db $71		;[Instrument] 2
    3558.  0E:8F3A                      				;[Skip delay] 2
    3559.  0E:8F3A  1F                  	db $1F		;[Note] 32
    3560.  0E:8F3B  6F                  	db $6F		;[Volume] 15
    3561.  0E:8F3C                      				;[Skip delay] 2
    3562.  0E:8F3C  1F                  	db $1F		;[Note] 32
    3563.  0E:8F3D                      				;[Skip delay] 2
    3564.  0E:8F3D  1F                  	db $1F		;[Note] 32
    3565.  0E:8F3E                      				;[Skip delay] 2
    3566.  0E:8F3E  12                  	db $12		;[Note] 19
    3567.  0E:8F3F  70                  	db $70		;[Instrument] 1
    3568.  0E:8F40                      				;[Skip delay] 2
    3569.  0E:8F40  5F                  	db $5F		;[Note] 96
    3570.  0E:8F41  73                  	db $73		;[Instrument] 4
    3571.  0E:8F42                      				;[Skip delay] 2
    3572.  0E:8F42  5F                  	db $5F		;[Note] 96
    3573.  0E:8F43  72                  	db $72		;[Instrument] 3
    3574.  0E:8F44  C0                  	db $C0		;[Wait] 1
    3575.  0E:8F45  5F                  	db $5F		;[Note] 96
    3576.  0E:8F46                      				;[Skip delay] 1
    3577.  0E:8F46  BF                  	db $BF		;[End-Of-Track]
    3578.  0E:8F47                      .track_39:
    3579.  0E:8F47  15                  	db $15		;[Note] 22
    3580.  0E:8F48  6F                  	db $6F		;[Volume] 15
    3581.  0E:8F49  76                  	db $76		;[Instrument] 7
    3582.  0E:8F4A  C1                  	db $C1		;[Wait] 2
    3583.  0E:8F4B  15                  	db $15		;[Note] 22
    3584.  0E:8F4C  C0                  	db $C0		;[Wait] 1
    3585.  0E:8F4D  15                  	db $15		;[Note] 22
    3586.  0E:8F4E                      				;[Skip delay] 1
    3587.  0E:8F4E  15                  	db $15		;[Note] 22
    3588.  0E:8F4F  C1                  	db $C1		;[Wait] 2
    3589.  0E:8F50  15                  	db $15		;[Note] 22
    3590.  0E:8F51                      				;[Skip delay] 2
    3591.  0E:8F51  15                  	db $15		;[Note] 22
    3592.  0E:8F52                      				;[Skip delay] 2
    3593.  0E:8F52  10                  	db $10		;[Note] 17
    3594.  0E:8F53                      				;[Skip delay] 2
    3595.  0E:8F53  15                  	db $15		;[Note] 22
    3596.  0E:8F54                      				;[Skip delay] 2
    3597.  0E:8F54  13                  	db $13		;[Note] 20
    3598.  0E:8F55  C3                  	db $C3		;[Wait] 4
    3599.  0E:8F56  13                  	db $13		;[Note] 20
    3600.  0E:8F57                      				;[Skip delay] 4
    3601.  0E:8F57  13                  	db $13		;[Note] 20
    3602.  0E:8F58  C1                  	db $C1		;[Wait] 2
    3603.  0E:8F59  0E                  	db $0E		;[Note] 15
    3604.  0E:8F5A  C3                  	db $C3		;[Wait] 4
    3605.  0E:8F5B  13                  	db $13		;[Note] 20
    3606.  0E:8F5C                      				;[Skip delay] 4
    3607.  0E:8F5C  11                  	db $11		;[Note] 18
    3608.  0E:8F5D  C1                  	db $C1		;[Wait] 2
    3609.  0E:8F5E  11                  	db $11		;[Note] 18
    3610.  0E:8F5F  C0                  	db $C0		;[Wait] 1
    3611.  0E:8F60  11                  	db $11		;[Note] 18
    3612.  0E:8F61                      				;[Skip delay] 1
    3613.  0E:8F61  11                  	db $11		;[Note] 18
    3614.  0E:8F62  C1                  	db $C1		;[Wait] 2
    3615.  0E:8F63  11                  	db $11		;[Note] 18
    3616.  0E:8F64                      				;[Skip delay] 2
    3617.  0E:8F64  13                  	db $13		;[Note] 20
    3618.  0E:8F65  C2                  	db $C2		;[Wait] 3
    3619.  0E:8F66  13                  	db $13		;[Note] 20
    3620.  0E:8F67                      				;[Skip delay] 3
    3621.  0E:8F67  15                  	db $15		;[Note] 22
    3622.  0E:8F68  C3                  	db $C3		;[Wait] 4
    3623.  0E:8F69  15                  	db $15		;[Note] 22
    3624.  0E:8F6A  C1                  	db $C1		;[Wait] 2
    3625.  0E:8F6B  15                  	db $15		;[Note] 22
    3626.  0E:8F6C                      				;[Skip delay] 2
    3627.  0E:8F6C  15                  	db $15		;[Note] 22
    3628.  0E:8F6D                      				;[Skip delay] 2
    3629.  0E:8F6D  15                  	db $15		;[Note] 22
    3630.  0E:8F6E  C1                  	db $C1		;[Wait..] 2
    3631.  0E:8F6F  6E                  	db $6E		;[Volume] 14
    3632.  0E:8F70  A5 10               	db $A5, $10; slide-down
    3633.  0E:8F72  C0                  	db $C0		;[Wait] 1
    3634.  0E:8F73  60                  	db $60		;[Note] 97
    3635.  0E:8F74  6D                  	db $6D		;[Volume] 13
    3636.  0E:8F75  AF 03               	db $AF, $03; slide-down rep
    3637.  0E:8F77                      				;[Skip delay] 1
    3638.  0E:8F77  6C                  	db $6C		;[Volume] 12
    3639.  0E:8F78                      				;[Skip delay] 1
    3640.  0E:8F78  6A                  	db $6A		;[Volume] 10
    3641.  0E:8F79                      				;[Skip delay] 1
    3642.  0E:8F79  1D                  	db $1D		;[Note] 30
    3643.  0E:8F7A  6D                  	db $6D		;[Volume] 13
    3644.  0E:8F7B  75                  	db $75		;[Instrument] 6
    3645.  0E:8F7C                      				;[Skip delay] 1
    3646.  0E:8F7C  17                  	db $17		;[Note] 24
    3647.  0E:8F7D                      				;[Skip delay] 1
    3648.  0E:8F7D  BF                  	db $BF		;[End-Of-Track]
    3649.  0E:8F7E                      .track_40:
    3650.  0E:8F7E  24                  	db $24		;[Note] 37
    3651.  0E:8F7F  6C                  	db $6C		;[Volume] 12
    3652.  0E:8F80  78                  	db $78		;[Instrument] 9
    3653.  0E:8F81  C7                  	db $C7		;[Wait] 8
    3654.  0E:8F82  21                  	db $21		;[Note] 34
    3655.  0E:8F83                      				;[Skip delay] 8
    3656.  0E:8F83  23                  	db $23		;[Note] 36
    3657.  0E:8F84                      				;[Skip delay] 8
    3658.  0E:8F84  26                  	db $26		;[Note] 39
    3659.  0E:8F85                      				;[Skip delay] 8
    3660.  0E:8F85  24                  	db $24		;[Note] 37
    3661.  0E:8F86  76                  	db $76		;[Instrument] 7
    3662.  0E:8F87  C1                  	db $C1		;[Wait] 2
    3663.  0E:8F88  24                  	db $24		;[Note] 37
    3664.  0E:8F89  C0                  	db $C0		;[Wait] 1
    3665.  0E:8F8A  24                  	db $24		;[Note] 37
    3666.  0E:8F8B                      				;[Skip delay] 1
    3667.  0E:8F8B  24                  	db $24		;[Note] 37
    3668.  0E:8F8C  C1                  	db $C1		;[Wait] 2
    3669.  0E:8F8D  24                  	db $24		;[Note] 37
    3670.  0E:8F8E                      				;[Skip delay] 2
    3671.  0E:8F8E  26                  	db $26		;[Note] 39
    3672.  0E:8F8F  C2                  	db $C2		;[Wait] 3
    3673.  0E:8F90  26                  	db $26		;[Note] 39
    3674.  0E:8F91                      				;[Skip delay] 3
    3675.  0E:8F91  28                  	db $28		;[Note] 41
    3676.  0E:8F92  C3                  	db $C3		;[Wait] 4
    3677.  0E:8F93  28                  	db $28		;[Note] 41
    3678.  0E:8F94  C1                  	db $C1		;[Wait] 2
    3679.  0E:8F95  28                  	db $28		;[Note] 41
    3680.  0E:8F96                      				;[Skip delay] 2
    3681.  0E:8F96  28                  	db $28		;[Note] 41
    3682.  0E:8F97                      				;[Skip delay] 2
    3683.  0E:8F97  28                  	db $28		;[Note] 41
    3684.  0E:8F98  C1                  	db $C1		;[Wait..] 2
    3685.  0E:8F99  6E                  	db $6E		;[Volume] 14
    3686.  0E:8F9A  A5 10               	db $A5, $10; slide-down
    3687.  0E:8F9C  C0                  	db $C0		;[Wait] 1
    3688.  0E:8F9D  6D                  	db $6D		;[Volume] 13
    3689.  0E:8F9E  AF 03               	db $AF, $03; slide-down rep
    3690.  0E:8FA0                      				;[Skip delay] 1
    3691.  0E:8FA0  6C                  	db $6C		;[Volume] 12
    3692.  0E:8FA1                      				;[Skip delay] 1
    3693.  0E:8FA1  6A                  	db $6A		;[Volume] 10
    3694.  0E:8FA2                      				;[Skip delay] 1
    3695.  0E:8FA2  60                  	db $60		;[Note] 97
    3696.  0E:8FA3  C1                  	db $C1		;[Wait] 2
    3697.  0E:8FA4  BF                  	db $BF		;[End-Of-Track]
    3698.  0E:8FA5                      .track_41:
    3699.  0E:8FA5  09                  	db $09		;[Note] 10
    3700.  0E:8FA6  6F                  	db $6F		;[Volume] 15
    3701.  0E:8FA7  79                  	db $79		;[Instrument] 10
    3702.  0E:8FA8  C1                  	db $C1		;[Wait] 2
    3703.  0E:8FA9  09                  	db $09		;[Note] 10
    3704.  0E:8FAA  C0                  	db $C0		;[Wait] 1
    3705.  0E:8FAB  09                  	db $09		;[Note] 10
    3706.  0E:8FAC                      				;[Skip delay] 1
    3707.  0E:8FAC  09                  	db $09		;[Note] 10
    3708.  0E:8FAD  C1                  	db $C1		;[Wait] 2
    3709.  0E:8FAE  09                  	db $09		;[Note] 10
    3710.  0E:8FAF                      				;[Skip delay] 2
    3711.  0E:8FAF  09                  	db $09		;[Note] 10
    3712.  0E:8FB0                      				;[Skip delay] 2
    3713.  0E:8FB0  04                  	db $04		;[Note] 5
    3714.  0E:8FB1                      				;[Skip delay] 2
    3715.  0E:8FB1  09                  	db $09		;[Note] 10
    3716.  0E:8FB2                      				;[Skip delay] 2
    3717.  0E:8FB2  07                  	db $07		;[Note] 8
    3718.  0E:8FB3  C3                  	db $C3		;[Wait] 4
    3719.  0E:8FB4  07                  	db $07		;[Note] 8
    3720.  0E:8FB5                      				;[Skip delay] 4
    3721.  0E:8FB5  07                  	db $07		;[Note] 8
    3722.  0E:8FB6  C1                  	db $C1		;[Wait] 2
    3723.  0E:8FB7  02                  	db $02		;[Note] 3
    3724.  0E:8FB8  C3                  	db $C3		;[Wait] 4
    3725.  0E:8FB9  07                  	db $07		;[Note] 8
    3726.  0E:8FBA                      				;[Skip delay] 4
    3727.  0E:8FBA  05                  	db $05		;[Note] 6
    3728.  0E:8FBB  C1                  	db $C1		;[Wait] 2
    3729.  0E:8FBC  05                  	db $05		;[Note] 6
    3730.  0E:8FBD  C0                  	db $C0		;[Wait] 1
    3731.  0E:8FBE  05                  	db $05		;[Note] 6
    3732.  0E:8FBF                      				;[Skip delay] 1
    3733.  0E:8FBF  05                  	db $05		;[Note] 6
    3734.  0E:8FC0  C1                  	db $C1		;[Wait] 2
    3735.  0E:8FC1  05                  	db $05		;[Note] 6
    3736.  0E:8FC2                      				;[Skip delay] 2
    3737.  0E:8FC2  07                  	db $07		;[Note] 8
    3738.  0E:8FC3  C2                  	db $C2		;[Wait] 3
    3739.  0E:8FC4  07                  	db $07		;[Note] 8
    3740.  0E:8FC5                      				;[Skip delay] 3
    3741.  0E:8FC5  09                  	db $09		;[Note] 10
    3742.  0E:8FC6  C3                  	db $C3		;[Wait] 4
    3743.  0E:8FC7  09                  	db $09		;[Note] 10
    3744.  0E:8FC8  C1                  	db $C1		;[Wait] 2
    3745.  0E:8FC9  09                  	db $09		;[Note] 10
    3746.  0E:8FCA                      				;[Skip delay] 2
    3747.  0E:8FCA  09                  	db $09		;[Note] 10
    3748.  0E:8FCB                      				;[Skip delay] 2
    3749.  0E:8FCB  09                  	db $09		;[Note] 10
    3750.  0E:8FCC  C1                  	db $C1		;[Wait..] 2
    3751.  0E:8FCD  6D                  	db $6D		;[Volume] 13
    3752.  0E:8FCE  A5 10               	db $A5, $10; slide-down
    3753.  0E:8FD0  C0                  	db $C0		;[Wait] 1
    3754.  0E:8FD1  6A                  	db $6A		;[Volume] 10
    3755.  0E:8FD2  AF 03               	db $AF, $03; slide-down rep
    3756.  0E:8FD4                      				;[Skip delay] 1
    3757.  0E:8FD4  69                  	db $69		;[Volume] 9
    3758.  0E:8FD5                      				;[Skip delay] 1
    3759.  0E:8FD5  67                  	db $67		;[Volume] 7
    3760.  0E:8FD6                      				;[Skip delay] 1
    3761.  0E:8FD6  60                  	db $60		;[Note] 97
    3762.  0E:8FD7  C1                  	db $C1		;[Wait] 2
    3763.  0E:8FD8  BF                  	db $BF		;[End-Of-Track]
    3764.  0E:8FD9                      .track_42:
    3765.  0E:8FD9  23                  	db $23		;[Note] 36
    3766.  0E:8FDA  6F                  	db $6F		;[Volume] 15
    3767.  0E:8FDB  7A                  	db $7A		;[Instrument] 11
    3768.  0E:8FDC  C1                  	db $C1		;[Wait] 2
    3769.  0E:8FDD  21                  	db $21		;[Note] 34
    3770.  0E:8FDE                      				;[Skip delay] 2
    3771.  0E:8FDE  1F                  	db $1F		;[Note] 32
    3772.  0E:8FDF  C3                  	db $C3		;[Wait] 4
    3773.  0E:8FE0  1C                  	db $1C		;[Note] 29
    3774.  0E:8FE1                      				;[Skip delay] 4
    3775.  0E:8FE1  24                  	db $24		;[Note] 37
    3776.  0E:8FE2                      				;[Skip delay] 4
    3777.  0E:8FE2  26                  	db $26		;[Note] 39
    3778.  0E:8FE3  C1                  	db $C1		;[Wait] 2
    3779.  0E:8FE4  24                  	db $24		;[Note] 37
    3780.  0E:8FE5                      				;[Skip delay] 2
    3781.  0E:8FE5  23                  	db $23		;[Note] 36
    3782.  0E:8FE6  C3                  	db $C3		;[Wait] 4
    3783.  0E:8FE7  23                  	db $23		;[Note] 36
    3784.  0E:8FE8  C1                  	db $C1		;[Wait] 2
    3785.  0E:8FE9  21                  	db $21		;[Note] 34
    3786.  0E:8FEA                      				;[Skip delay] 2
    3787.  0E:8FEA  1F                  	db $1F		;[Note] 32
    3788.  0E:8FEB  C2                  	db $C2		;[Wait] 3
    3789.  0E:8FEC  60                  	db $60		;[Note] 97
    3790.  0E:8FED  C0                  	db $C0		;[Wait] 1
    3791.  0E:8FEE  2B                  	db $2B		;[Note] 44
    3792.  0E:8FEF  84                  	db $84		;[Instrument] 21
    3793.  0E:8FF0  C3                  	db $C3		;[Wait] 4
    3794.  0E:8FF1  28                  	db $28		;[Note] 41
    3795.  0E:8FF2  C1                  	db $C1		;[Wait] 2
    3796.  0E:8FF3  2B                  	db $2B		;[Note] 44
    3797.  0E:8FF4  C0                  	db $C0		;[Wait] 1
    3798.  0E:8FF5  28                  	db $28		;[Note] 41
    3799.  0E:8FF6                      				;[Skip delay] 1
    3800.  0E:8FF6  21                  	db $21		;[Note] 34
    3801.  0E:8FF7  C2                  	db $C2		;[Wait] 3
    3802.  0E:8FF8  1C                  	db $1C		;[Note] 29
    3803.  0E:8FF9                      				;[Skip delay] 3
    3804.  0E:8FF9  1A                  	db $1A		;[Note] 27
    3805.  0E:8FFA  C3                  	db $C3		;[Wait] 4
    3806.  0E:8FFB  10                  	db $10		;[Note] 17
    3807.  0E:8FFC  8A                  	db $8A		;[Instrument] 27
    3808.  0E:8FFD  C1                  	db $C1		;[Wait] 2
    3809.  0E:8FFE  10                  	db $10		;[Note] 17
    3810.  0E:8FFF                      				;[Skip delay] 2
    3811.  0E:8FFF  10                  	db $10		;[Note] 17
    3812.  0E:9000                      				;[Skip delay] 2
    3813.  0E:9000  10                  	db $10		;[Note] 17
    3814.  0E:9001  C0                  	db $C0		;[Wait] 1
    3815.  0E:9002  A5 10               	db $A5, $10; slide-down
    3816.  0E:9004                      				;[Skip delay] 1
    3817.  0E:9004  6D                  	db $6D		;[Volume] 13
    3818.  0E:9005  AF 03               	db $AF, $03; slide-down rep
    3819.  0E:9007                      				;[Skip delay] 1
    3820.  0E:9007  6A                  	db $6A		;[Volume] 10
    3821.  0E:9008                      				;[Skip delay] 1
    3822.  0E:9008  69                  	db $69		;[Volume] 9
    3823.  0E:9009                      				;[Skip delay] 1
    3824.  0E:9009  67                  	db $67		;[Volume] 7
    3825.  0E:900A                      				;[Skip delay] 1
    3826.  0E:900A  60                  	db $60		;[Note] 97
    3827.  0E:900B  C1                  	db $C1		;[Wait] 2
    3828.  0E:900C  BF                  	db $BF		;[End-Of-Track]
    3829.  0E:900D                      .track_43:
    3830.  0E:900D  09                  	db $09		;[Note] 10
    3831.  0E:900E  6A                  	db $6A		;[Volume] 10
    3832.  0E:900F  7B                  	db $7B		;[Instrument] 12
    3833.  0E:9010  C0                  	db $C0		;[Wait] 1
    3834.  0E:9011  69                  	db $69		;[Volume] 9
    3835.  0E:9012                      				;[Skip delay] 1
    3836.  0E:9012  68                  	db $68		;[Volume] 8
    3837.  0E:9013                      				;[Skip delay] 1
    3838.  0E:9013  66                  	db $66		;[Volume] 6
    3839.  0E:9014                      				;[Skip delay] 1
    3840.  0E:9014  23                  	db $23		;[Note] 36
    3841.  0E:9015  6B                  	db $6B		;[Volume] 11
    3842.  0E:9016  7D                  	db $7D		;[Instrument] 14
    3843.  0E:9017                      				;[Skip delay] 1
    3844.  0E:9017  24                  	db $24		;[Note] 37
    3845.  0E:9018  A6 07               	db $A6, $07; tone-slide
    3846.  0E:901A                      				;[Skip delay] 1
    3847.  0E:901A  B0 02               	db $B0, $02; tone-slide rep
    3848.  0E:901C                      				;[Skip delay] 1
    3849.  0E:901C  60                  	db $60		;[Note] 97
    3850.  0E:901D                      				;[Skip delay] 1
    3851.  0E:901D  23                  	db $23		;[Note] 36
    3852.  0E:901E  C2                  	db $C2		;[Wait] 3
    3853.  0E:901F  6A                  	db $6A		;[Volume] 10
    3854.  0E:9020  C0                  	db $C0		;[Wait] 1
    3855.  0E:9021  69                  	db $69		;[Volume] 9
    3856.  0E:9022                      				;[Skip delay] 1
    3857.  0E:9022  67                  	db $67		;[Volume] 7
    3858.  0E:9023                      				;[Skip delay] 1
    3859.  0E:9023  66                  	db $66		;[Volume] 6
    3860.  0E:9024                      				;[Skip delay] 1
    3861.  0E:9024  64                  	db $64		;[Volume] 4
    3862.  0E:9025  C2                  	db $C2		;[Wait] 3
    3863.  0E:9026  28                  	db $28		;[Note] 41
    3864.  0E:9027  68                  	db $68		;[Volume] 8
    3865.  0E:9028  89                  	db $89		;[Instrument] 26
    3866.  0E:9029  C1                  	db $C1		;[Wait] 2
    3867.  0E:902A  2D                  	db $2D		;[Note] 46
    3868.  0E:902B  C2                  	db $C2		;[Wait] 3
    3869.  0E:902C  32                  	db $32		;[Note] 51
    3870.  0E:902D                      				;[Skip delay] 3
    3871.  0E:902D  2D                  	db $2D		;[Note] 46
    3872.  0E:902E  C1                  	db $C1		;[Wait] 2
    3873.  0E:902F  30                  	db $30		;[Note] 49
    3874.  0E:9030                      				;[Skip delay] 2
    3875.  0E:9030  32                  	db $32		;[Note] 51
    3876.  0E:9031                      				;[Skip delay] 2
    3877.  0E:9031  2D                  	db $2D		;[Note] 46
    3878.  0E:9032  69                  	db $69		;[Volume] 9
    3879.  0E:9033  83                  	db $83		;[Instrument] 20
    3880.  0E:9034                      				;[Skip delay] 2
    3881.  0E:9034  67                  	db $67		;[Volume] 7
    3882.  0E:9035  C0                  	db $C0		;[Wait] 1
    3883.  0E:9036  66                  	db $66		;[Volume] 6
    3884.  0E:9037                      				;[Skip delay] 1
    3885.  0E:9037  30                  	db $30		;[Note] 49
    3886.  0E:9038  69                  	db $69		;[Volume] 9
    3887.  0E:9039                      				;[Skip delay] 1
    3888.  0E:9039  64                  	db $64		;[Volume] 4
    3889.  0E:903A                      				;[Skip delay] 1
    3890.  0E:903A  62                  	db $62		;[Volume] 2
    3891.  0E:903B  C1                  	db $C1		;[Wait] 2
    3892.  0E:903C  2F                  	db $2F		;[Note] 48
    3893.  0E:903D  69                  	db $69		;[Volume] 9
    3894.  0E:903E  C0                  	db $C0		;[Wait] 1
    3895.  0E:903F  65                  	db $65		;[Volume] 5
    3896.  0E:9040                      				;[Skip delay] 1
    3897.  0E:9040  63                  	db $63		;[Volume] 3
    3898.  0E:9041                      				;[Skip delay] 1
    3899.  0E:9041  2B                  	db $2B		;[Note] 44
    3900.  0E:9042  68                  	db $68		;[Volume] 8
    3901.  0E:9043  C2                  	db $C2		;[Wait] 3
    3902.  0E:9044  28                  	db $28		;[Note] 41
    3903.  0E:9045  C1                  	db $C1		;[Wait] 2
    3904.  0E:9046  A7 55               	db $A7, $55	;[CMD vibrato]
    3905.  0E:9048  C0                  	db $C0		;[Wait] 1
    3906.  0E:9049  65                  	db $65		;[Volume] 5
    3907.  0E:904A  B1 03               	db $B1, $03	;[CMD vibrato] rep
    3908.  0E:904C                      				;[Skip delay] 1
    3909.  0E:904C  64                  	db $64		;[Volume] 4
    3910.  0E:904D                      				;[Skip delay] 1
    3911.  0E:904D  63                  	db $63		;[Volume] 3
    3912.  0E:904E                      				;[Skip delay] 1
    3913.  0E:904E  60                  	db $60		;[Note] 97
    3914.  0E:904F  CB                  	db $CB		;[Wait] 12
    3915.  0E:9050  BF                  	db $BF		;[End-Of-Track]
    3916.  0E:9051                      .track_44:
    3917.  0E:9051  60                  	db $60		;[Note] 97
    3918.  0E:9052  C3                  	db $C3		;[Wait] 4
    3919.  0E:9053  37                  	db $37		;[Note] 56
    3920.  0E:9054  6D                  	db $6D		;[Volume] 13
    3921.  0E:9055  83                  	db $83		;[Instrument] 20
    3922.  0E:9056  C0                  	db $C0		;[Wait] 1
    3923.  0E:9057  39                  	db $39		;[Note] 58
    3924.  0E:9058  A6 07               	db $A6, $07; tone-slide
    3925.  0E:905A                      				;[Skip delay] 1
    3926.  0E:905A  B0 01               	db $B0, $01; tone-slide rep
    3927.  0E:905C                      				;[Skip delay] 1
    3928.  0E:905C  60                  	db $60		;[Note] 97
    3929.  0E:905D                      				;[Skip delay] 1
    3930.  0E:905D  37                  	db $37		;[Note] 56
    3931.  0E:905E  C3                  	db $C3		;[Wait] 4
    3932.  0E:905F  A7 55               	db $A7, $55	;[CMD vibrato]
    3933.  0E:9061  C0                  	db $C0		;[Wait] 1
    3934.  0E:9062  B1 03               	db $B1, $03	;[CMD vibrato] rep
    3935.  0E:9064  C2                  	db $C2		;[Wait] 3
    3936.  0E:9065  3E                  	db $3E		;[Note] 63
    3937.  0E:9066  C0                  	db $C0		;[Wait] 1
    3938.  0E:9067  40                  	db $40		;[Note] 65
    3939.  0E:9068  A6 07               	db $A6, $07; tone-slide
    3940.  0E:906A                      				;[Skip delay] 1
    3941.  0E:906A  3E                  	db $3E		;[Note] 63
    3942.  0E:906B  C1                  	db $C1		;[Wait] 2
    3943.  0E:906C  3C                  	db $3C		;[Note] 61
    3944.  0E:906D  C1                  	db $C1		;[Wait..] 2
    3945.  0E:906E  A7 55               	db $A7, $55	;[CMD vibrato]
    3946.  0E:9070  C0                  	db $C0		;[Wait] 1
    3947.  0E:9071  39                  	db $39		;[Note] 58
    3948.  0E:9072  C0                  	db $C0		;[Wait..] 1
    3949.  0E:9073  67                  	db $67		;[Volume] 7
    3950.  0E:9074                      				;[Skip delay] 1
    3951.  0E:9074  65                  	db $65		;[Volume] 5
    3952.  0E:9075                      				;[Skip delay] 1
    3953.  0E:9075  39                  	db $39		;[Note] 58
    3954.  0E:9076  6D                  	db $6D		;[Volume] 13
    3955.  0E:9077                      				;[Skip delay] 1
    3956.  0E:9077  68                  	db $68		;[Volume] 8
    3957.  0E:9078                      				;[Skip delay] 1
    3958.  0E:9078  39                  	db $39		;[Note] 58
    3959.  0E:9079  6D                  	db $6D		;[Volume] 13
    3960.  0E:907A  C1                  	db $C1		;[Wait] 2
    3961.  0E:907B  40                  	db $40		;[Note] 65
    3962.  0E:907C                      				;[Skip delay] 2
    3963.  0E:907C  3E                  	db $3E		;[Note] 63
    3964.  0E:907D  C1                  	db $C1		;[Wait..] 2
    3965.  0E:907E  66                  	db $66		;[Volume] 6
    3966.  0E:907F  C0                  	db $C0		;[Wait] 1
    3967.  0E:9080  63                  	db $63		;[Volume] 3
    3968.  0E:9081                      				;[Skip delay] 1
    3969.  0E:9081  3C                  	db $3C		;[Note] 61
    3970.  0E:9082  6D                  	db $6D		;[Volume] 13
    3971.  0E:9083  C1                  	db $C1		;[Wait] 2
    3972.  0E:9084  66                  	db $66		;[Volume] 6
    3973.  0E:9085  C0                  	db $C0		;[Wait] 1
    3974.  0E:9086  63                  	db $63		;[Volume] 3
    3975.  0E:9087                      				;[Skip delay] 1
    3976.  0E:9087  3B                  	db $3B		;[Note] 60
    3977.  0E:9088  6D                  	db $6D		;[Volume] 13
    3978.  0E:9089  C1                  	db $C1		;[Wait] 2
    3979.  0E:908A  69                  	db $69		;[Volume] 9
    3980.  0E:908B  C0                  	db $C0		;[Wait] 1
    3981.  0E:908C  37                  	db $37		;[Note] 56
    3982.  0E:908D  6D                  	db $6D		;[Volume] 13
    3983.  0E:908E  C1                  	db $C1		;[Wait] 2
    3984.  0E:908F  69                  	db $69		;[Volume] 9
    3985.  0E:9090  C0                  	db $C0		;[Wait] 1
    3986.  0E:9091  39                  	db $39		;[Note] 58
    3987.  0E:9092  6B                  	db $6B		;[Volume] 11
    3988.  0E:9093  C1                  	db $C1		;[Wait] 2
    3989.  0E:9094  A7 55               	db $A7, $55	;[CMD vibrato]
    3990.  0E:9096  C0                  	db $C0		;[Wait] 1
    3991.  0E:9097  69                  	db $69		;[Volume] 9
    3992.  0E:9098  B1 03               	db $B1, $03	;[CMD vibrato] rep
    3993.  0E:909A                      				;[Skip delay] 1
    3994.  0E:909A  67                  	db $67		;[Volume] 7
    3995.  0E:909B                      				;[Skip delay] 1
    3996.  0E:909B  66                  	db $66		;[Volume] 6
    3997.  0E:909C                      				;[Skip delay] 1
    3998.  0E:909C  60                  	db $60		;[Note] 97
    3999.  0E:909D  CB                  	db $CB		;[Wait] 12
    4000.  0E:909E  BF                  	db $BF		;[End-Of-Track]
    4001.  0E:909F                      .track_45:
    4002.  0E:909F  60                  	db $60		;[Note] 97
    4003.  0E:90A0  C3                  	db $C3		;[Wait] 4
    4004.  0E:90A1  2F                  	db $2F		;[Note] 48
    4005.  0E:90A2  69                  	db $69		;[Volume] 9
    4006.  0E:90A3  83                  	db $83		;[Instrument] 20
    4007.  0E:90A4  C0                  	db $C0		;[Wait] 1
    4008.  0E:90A5  30                  	db $30		;[Note] 49
    4009.  0E:90A6  A6 08               	db $A6, $08; tone-slide
    4010.  0E:90A8                      				;[Skip delay] 1
    4011.  0E:90A8  B0 01               	db $B0, $01; tone-slide rep
    4012.  0E:90AA                      				;[Skip delay] 1
    4013.  0E:90AA  60                  	db $60		;[Note] 97
    4014.  0E:90AB                      				;[Skip delay] 1
    4015.  0E:90AB  2F                  	db $2F		;[Note] 48
    4016.  0E:90AC  C7                  	db $C7		;[Wait] 8
    4017.  0E:90AD  3B                  	db $3B		;[Note] 60
    4018.  0E:90AE  C0                  	db $C0		;[Wait] 1
    4019.  0E:90AF  3C                  	db $3C		;[Note] 61
    4020.  0E:90B0  A6 06               	db $A6, $06; tone-slide
    4021.  0E:90B2                      				;[Skip delay] 1
    4022.  0E:90B2  3B                  	db $3B		;[Note] 60
    4023.  0E:90B3  C1                  	db $C1		;[Wait] 2
    4024.  0E:90B4  39                  	db $39		;[Note] 58
    4025.  0E:90B5  C2                  	db $C2		;[Wait] 3
    4026.  0E:90B6  34                  	db $34		;[Note] 53
    4027.  0E:90B7                      				;[Skip delay] 3
    4028.  0E:90B7  34                  	db $34		;[Note] 53
    4029.  0E:90B8  C1                  	db $C1		;[Wait] 2
    4030.  0E:90B9  34                  	db $34		;[Note] 53
    4031.  0E:90BA                      				;[Skip delay] 2
    4032.  0E:90BA  39                  	db $39		;[Note] 58
    4033.  0E:90BB  C0                  	db $C0		;[Wait] 1
    4034.  0E:90BC  60                  	db $60		;[Note] 97
    4035.  0E:90BD                      				;[Skip delay] 1
    4036.  0E:90BD  3B                  	db $3B		;[Note] 60
    4037.  0E:90BE  6D                  	db $6D		;[Volume] 13
    4038.  0E:90BF  C1                  	db $C1		;[Wait] 2
    4039.  0E:90C0  66                  	db $66		;[Volume] 6
    4040.  0E:90C1  C0                  	db $C0		;[Wait] 1
    4041.  0E:90C2  63                  	db $63		;[Volume] 3
    4042.  0E:90C3                      				;[Skip delay] 1
    4043.  0E:90C3  39                  	db $39		;[Note] 58
    4044.  0E:90C4  6D                  	db $6D		;[Volume] 13
    4045.  0E:90C5  C1                  	db $C1		;[Wait] 2
    4046.  0E:90C6  66                  	db $66		;[Volume] 6
    4047.  0E:90C7  C0                  	db $C0		;[Wait] 1
    4048.  0E:90C8  63                  	db $63		;[Volume] 3
    4049.  0E:90C9                      				;[Skip delay] 1
    4050.  0E:90C9  37                  	db $37		;[Note] 56
    4051.  0E:90CA  6D                  	db $6D		;[Volume] 13
    4052.  0E:90CB  C1                  	db $C1		;[Wait] 2
    4053.  0E:90CC  69                  	db $69		;[Volume] 9
    4054.  0E:90CD  C0                  	db $C0		;[Wait] 1
    4055.  0E:90CE  34                  	db $34		;[Note] 53
    4056.  0E:90CF  6D                  	db $6D		;[Volume] 13
    4057.  0E:90D0  C1                  	db $C1		;[Wait] 2
    4058.  0E:90D1  69                  	db $69		;[Volume] 9
    4059.  0E:90D2  C0                  	db $C0		;[Wait] 1
    4060.  0E:90D3  34                  	db $34		;[Note] 53
    4061.  0E:90D4  6B                  	db $6B		;[Volume] 11
    4062.  0E:90D5  C2                  	db $C2		;[Wait] 3
    4063.  0E:90D6  68                  	db $68		;[Volume] 8
    4064.  0E:90D7  C0                  	db $C0		;[Wait] 1
    4065.  0E:90D8  65                  	db $65		;[Volume] 5
    4066.  0E:90D9                      				;[Skip delay] 1
    4067.  0E:90D9  63                  	db $63		;[Volume] 3
    4068.  0E:90DA                      				;[Skip delay] 1
    4069.  0E:90DA  60                  	db $60		;[Note] 97
    4070.  0E:90DB  CB                  	db $CB		;[Wait] 12
    4071.  0E:90DC  BF                  	db $BF		;[End-Of-Track]
    4072.  0E:90DD                      .track_46:
    4073.  0E:90DD  FF                  	db $FF		;[Wait] 64
    4074.  0E:90DE  BF                  	db $BF		;[End-Of-Track]
    4075.  0E:90DF                      ; [ Song sub-track data ]
     716   0E:90DF  (0F)                	page 15
     717   0F:A000                      	include	"..\code\ttreplayDAT.asm"
       1.  0F:A000                      _VOLUME_TABLE 
       2.  0F:A000  (0100)              	incbin ".\voltable_combined.bin"	
       3.  0F:A100                      
       4.  0F:A100                      ;Konami values found in	Nemesis 2 replayer.
       5.  0F:A100  (0F:0D40)           C_PER		equ	$6a*32	
       6.  0F:A100  (0F:0C80)           C1_PER	equ	$64*32
       7.  0F:A100  (0F:0BC0)           D_PER		equ	$5e*32
       8.  0F:A100  (0F:0B20)           D1_PER	equ	$59*32
       9.  0F:A100  (0F:0A80)           E_PER		equ	$54*32
      10.  0F:A100  (0F:09E0)           F_PER		equ	$4f*32
      11.  0F:A100  (0F:0940)           F1_PER	equ	$4a*32
      12.  0F:A100  (0F:08C0)           G_PER		equ	$46*32
      13.  0F:A100  (0F:0840)           G1_PER	equ	$42*32
      14.  0F:A100  (0F:07E0)           A_PER		equ	$3f*32
      15.  0F:A100  (0F:0760)           A1_PER	equ	$3b*32
      16.  0F:A100  (0F:0700)           B_PER		equ	$38*32
      17.  0F:A100                      
      18.  0F:A100                      TRACK_ToneTable:	
      19.  0F:A100                      	dw C_PER/1	,C1_PER/1  ,D_PER/1  ,D1_PER/1  ,E_PER/1	,F_PER/1  ,F1_PER/1  ,G_PER/1	 ,G1_PER/1	,A_PER/1  ,A1_PER/1  ,B_PER/1
      19.  0F:A100  40 0D 80 0C C0 0B 20 0B 80 0A E0 09 40 09 C0 08 
      19.  0F:A110  40 08 E0 07 60 07 00 07 
      20.  0F:A118                      	dw C_PER/2	,C1_PER/2  ,D_PER/2  ,D1_PER/2  ,E_PER/2	,F_PER/2  ,F1_PER/2  ,G_PER/2	 ,G1_PER/2	,A_PER/2  ,A1_PER/2  ,B_PER/2
      20.  0F:A118  A0 06 40 06 E0 05 90 05 40 05 F0 04 A0 04 60 04 
      20.  0F:A128  20 04 F0 03 B0 03 80 03 
      21.  0F:A130                      	dw C_PER/4	,C1_PER/4  ,D_PER/4  ,D1_PER/4  ,E_PER/4	,F_PER/4  ,F1_PER/4  ,G_PER/4	 ,G1_PER/4	,A_PER/4  ,A1_PER/4  ,B_PER/4
      21.  0F:A130  50 03 20 03 F0 02 C8 02 A0 02 78 02 50 02 30 02 
      21.  0F:A140  10 02 F8 01 D8 01 C0 01 
      22.  0F:A148                      	dw C_PER/8	,C1_PER/8  ,D_PER/8  ,D1_PER/8  ,E_PER/8	,F_PER/8  ,F1_PER/8  ,G_PER/8	 ,G1_PER/8	,A_PER/8  ,A1_PER/8  ,B_PER/8
      22.  0F:A148  A8 01 90 01 78 01 64 01 50 01 3C 01 28 01 18 01 
      22.  0F:A158  08 01 FC 00 EC 00 E0 00 
      23.  0F:A160                      	dw C_PER/16	,C1_PER/16 ,D_PER/16 ,D1_PER/16 ,E_PER/16	,F_PER/16 ,F1_PER/16 ,G_PER/16 ,G1_PER/16	,A_PER/16 ,A1_PER/16 ,B_PER/16
      23.  0F:A160  D4 00 C8 00 BC 00 B2 00 A8 00 9E 00 94 00 8C 00 
      23.  0F:A170  84 00 7E 00 76 00 70 00 
      24.  0F:A178                      	dw C_PER/32	,C1_PER/32 ,D_PER/32 ,D1_PER/32 ,E_PER/32	,F_PER/32 ,F1_PER/32 ,G_PER/32 ,G1_PER/32	,A_PER/32 ,A1_PER/32 ,B_PER/32
      24.  0F:A178  6A 00 64 00 5E 00 59 00 54 00 4F 00 4A 00 46 00 
      24.  0F:A188  42 00 3F 00 3B 00 38 00 
      25.  0F:A190                      	dw C_PER/64	,C1_PER/64 ,D_PER/64 ,D1_PER/64 ,E_PER/64	,F_PER/64 ,F1_PER/64 ,G_PER/64 ,G1_PER/64	,A_PER/64 ,A1_PER/64 ,B_PER/64
      25.  0F:A190  35 00 32 00 2F 00 2C 00 2A 00 27 00 25 00 23 00 
      25.  0F:A1A0  21 00 1F 00 1D 00 1C 00 
      26.  0F:A1A8                      	dw C_PER/128,C1_PER/128,D_PER/128,D1_PER/128,E_PER/128,F_PER/128,F1_PER/128,G_PER/128,G1_PER/128,A_PER/128,A1_PER/128,B_PER/128
      26.  0F:A1A8  1A 00 19 00 17 00 16 00 15 00 13 00 12 00 11 00 
      26.  0F:A1B8  10 00 0F 00 0E 00 0E 00 
      27.  0F:A1C0                      
      28.  0F:A1C0                      
      29.  0F:A1C0                      TRACK_Vibrato_sine:
      30.  0F:A1C0                      	db	 0*2,	2*2, 4*2, 7*2,11*2,16*2,22*2,28*2,35*2,43*2,51*2,59*2,68*2,77*2,87*2,96*2
      30.  0F:A1C0  00 04 08 0E 16 20 2C 38 46 56 66 76 88 9A AE C0 
      31.  0F:A1D0                      	db	96*2,86*2,77*2,68*2,59*2,51*2,43*2,35*2,28*2,22*2,16*2,11*2, 7*2,	4*2, 2*2, 0*2
      31.  0F:A1D0  C0 AC 9A 88 76 66 56 46 38 2C 20 16 0E 08 04 00 
      32.  0F:A1E0                      
      33.  0F:A1E0                      TRACK_Vibrato_triangle:
      34.  0F:A1E0                      	db	 0, 6,12,18,24,30,36,42,48,54,60,66,72,78,84,90
      34.  0F:A1E0  00 06 0C 12 18 1E 24 2A 30 36 3C 42 48 4E 54 5A 
      35.  0F:A1F0                      	db	96,90,84,78,72,66,60,54,48,42,36,30,24,18,12, 6
      35.  0F:A1F0  60 5A 54 4E 48 42 3C 36 30 2A 24 1E 18 12 0C 06 
      36.  0F:A200                      
      37.  0F:A200                      TRACK_Vibrato_pulse:
      38.  0F:A200                      	db	255,255,255,255,255,255,255,255,255,255,255,255,255,255,255,255
      38.  0F:A200  FF FF FF FF FF FF FF FF FF FF FF FF FF FF FF FF 
      39.  0F:A210                      	db      0,  0,  0,  0,  0,  0,  0,  0,  0,  0,  0,  0,  0,  0,  0,  0	
      39.  0F:A210  00 00 00 00 00 00 00 00 00 00 00 00 00 00 00 00 
      40.  0F:A220                      	
     718   0F:A220                      	page 0,1
     719   01:66F6                      	include	"..\code\ttreplay.asm"
       1.  01:66F6                      ;=================================
       2.  01:66F6                      ; TriloTracker re-player v0.2
       3.  01:66F6                      ;
       4.  01:66F6                      ; 
       5.  01:66F6                      ; Also expects the code to run as a cartridge with SCC mapper
       6.  01:66F6                      ;================================
       7.  01:66F6                      	
       8.  01:66F6                      ;===============================
       9.  01:66F6                      ; todo:
      10.  01:66F6                      ; - add external SCC support through conditional code.
      11.  01:66F6                      ; - add replayer speed up through conditional code.
      12.  01:66F6                      ; - optimize replayer code
      13.  01:66F6                      ; - decide on to re-enable the macro offset effect command
      14.  01:66F6                      ; - add fade option.
      15.  01:66F6                      ; - add pause function.
      16.  01:66F6                      ; - instructions for external usage of the RAM variables (setting PSG/SCC base volumes etc)
      17.  01:66F6                      
      18.  01:66F6                      	
      19.  01:66F6                      	
      20.  01:66F6                      ;===========================================================
      21.  01:66F6                      ; ---	replay_init
      22.  01:66F6                      ; Initialize all data for playback
      23.  01:66F6                      ; 
      24.  01:66F6                      ; Input [HL] points to start song
      25.  01:66F6                      ;===========================================================
      26.  01:66F6                      replay_init:
      27.  01:66F6                      	;--- Get the start speed.
      28.  01:66F6                      ;	ld	hl,(replay_songbase)
      29.  01:66F6                      ;	inc	hl				; here previously was the restart position.
      30.  01:66F6                      ;	inc	hl
      31.  01:66F6  7E                  	ld	a,(hl)	
      32.  01:66F7  23                  	inc	hl
      33.  01:66F8  32 0A C0            	ld	(replay_speed),a
      34.  01:66FB                      
      35.  01:66FB                      ;	;--- Set track pointers to start
      36.  01:66FB                      ;	inc	hl
      37.  01:66FB                      ;	ld	de,TRACK_pointer1
      38.  01:66FB                      ;	ld	bc,16
      39.  01:66FB                      ;	ldir
      40.  01:66FB                      ;	ld	(replay_orderpointer),hl		; store pointer for next set
      41.  01:66FB                      ;								; of strack pointers
      42.  01:66FB                      
      43.  01:66FB                      	;--- Set waveform start
      44.  01:66FB  5E                  	ld	e,(hl)
      45.  01:66FC  23                  	inc	hl
      46.  01:66FD  56                  	ld 	d,(hl)
      47.  01:66FE  23                  	inc	hl
      48.  01:66FF  ED 53 04 C0         	ld	(replay_wavebase),de
      49.  01:6703                      	
      50.  01:6703                      	;--- Set the instrument start
      51.  01:6703  5E                  	ld	e,(hl)
      52.  01:6704  23                  	inc	hl
      53.  01:6705  56                  	ld 	d,(hl)
      54.  01:6706  23                  	inc	hl
      55.  01:6707  ED 53 06 C0         	ld	(replay_insbase),de
      56.  01:670B                      
      57.  01:670B                      	;--- Set track pointers to start
      58.  01:670B                      ;	inc	hl
      59.  01:670B  11 89 C1            	ld	de,TRACK_pointer1
      60.  01:670E  01 10 00            	ld	bc,16
      61.  01:6711  ED B0               	ldir
      62.  01:6713  22 08 C0            	ld	(replay_orderpointer),hl		; store pointer for next set
      63.  01:6716                      								; of track pointers
      64.  01:6716                      	
      65.  01:6716                      	
      66.  01:6716                      								
      67.  01:6716                      	;--- Initialize replayer variables.
      68.  01:6716  AF                  	xor	a
      69.  01:6717  32 0B C0            	ld	(replay_speed_subtimer),a
      70.  01:671A  32 14 C0            	ld	(replay_morph_active),a
      71.  01:671D  32 58 C0            	ld	(replay_morph_waveform),a
      72.  01:6720                      	
      73.  01:6720                      	;--- Erase channel data	in RAM
      74.  01:6720  01 2F 01            	ld	bc,(TRACK_REC_SIZE*8)-1
      75.  01:6723  21 59 C0            	ld	hl,TRACK_Chan1
      76.  01:6726  11 5A C0            	ld	de,TRACK_Chan1+1
      77.  01:6729  77                  	ld	(hl),a
      78.  01:672A  ED B0               	ldir
      79.  01:672C                      	
      80.  01:672C                      	;--- Silence the chips
      81.  01:672C  32 36 C2            	ld	(SCC_regMIXER),a
      82.  01:672F  32 A1 C1            	ld	(AY_regVOLA),a
      83.  01:6732  32 A2 C1            	ld	(AY_regVOLB),a	
      84.  01:6735  32 A3 C1            	ld	(AY_regVOLC),a
      85.  01:6738  32 9F C1            	ld	(AY_regNOISE),a
      86.  01:673B  3E 3F               	ld	a,0x3f
      87.  01:673D  32 A0 C1            	ld	(AY_regMIXER),a
      88.  01:6740                      
      89.  01:6740                      	;--- Set vibrato table
      90.  01:6740  21 C0 A1            	ld	hl,TRACK_Vibrato_sine
      91.  01:6743  22 10 C0            	ld	(replay_vib_table),hl
      92.  01:6746                      	
      93.  01:6746                      	;--- Set the tone table base
      94.  01:6746  21 00 A1            	ld	hl,TRACK_ToneTable
      95.  01:6749  22 12 C0            	ld	(replay_Tonetable),hl
      96.  01:674C                      
      97.  01:674C  3E 01               	ld	a,1
      98.  01:674E  32 0C C0            	ld	(replay_speed_timer),a
      99.  01:6751  32 15 C0            	ld	(replay_morph_timer),a
     100.  01:6754  32 16 C0            	ld	(replay_morph_speed),a
     101.  01:6757  32 7B C0            	ld	(TRACK_Chan1+17+TRACK_Delay),a	
     102.  01:675A  32 A1 C0            	ld	(TRACK_Chan2+17+TRACK_Delay),a		
     103.  01:675D  32 C7 C0            	ld	(TRACK_Chan3+17+TRACK_Delay),a	
     104.  01:6760  32 ED C0            	ld	(TRACK_Chan4+17+TRACK_Delay),a	
     105.  01:6763  32 13 C1            	ld	(TRACK_Chan5+17+TRACK_Delay),a		
     106.  01:6766  32 39 C1            	ld	(TRACK_Chan6+17+TRACK_Delay),a		
     107.  01:6769  32 5F C1            	ld	(TRACK_Chan7+17+TRACK_Delay),a		
     108.  01:676C  32 85 C1            	ld	(TRACK_Chan8+17+TRACK_Delay),a		
     109.  01:676F                      		
     110.  01:676F                      	;--- Init the SCC	(waveforms too)
     111.  01:676F                      ;	ld	a,(SCC_slot)
     112.  01:676F                      ;	ld	h,0x80
     113.  01:676F                      ;	call enaslt
     114.  01:676F                      	
     115.  01:676F  3E FF               	ld	a,255
     116.  01:6771  32 CC C0            	ld	(TRACK_Chan4+17+TRACK_Waveform),a
     117.  01:6774  32 F2 C0            	ld	(TRACK_Chan5+17+TRACK_Waveform),a
     118.  01:6777  32 18 C1            	ld	(TRACK_Chan6+17+TRACK_Waveform),a	
     119.  01:677A  32 3E C1            	ld	(TRACK_Chan7+17+TRACK_Waveform),a	
     120.  01:677D  3E 80               	ld	a,128
     121.  01:677F  32 D5 C0            	ld	(TRACK_Chan4+17+TRACK_Flags),a
     122.  01:6782  32 FB C0            	ld	(TRACK_Chan5+17+TRACK_Flags),a
     123.  01:6785  32 21 C1            	ld	(TRACK_Chan6+17+TRACK_Flags),a	
     124.  01:6788  32 47 C1            	ld	(TRACK_Chan7+17+TRACK_Flags),a	
     125.  01:678B                      	
     126.  01:678B  CD 9F 71            	call scc_reg_update
     127.  01:678E                      	
     128.  01:678E                      ;	ld	a,(mapper_slot)				
     129.  01:678E                      ;	ld	h,0x80
     130.  01:678E                      ;	call enaslt
     131.  01:678E                      	
     132.  01:678E  CD 16 71            	call	replay_route
     133.  01:6791                      	
     134.  01:6791                      	; end	is here
     135.  01:6791  3E 01               	ld	a,1
     136.  01:6793  32 0D C0            	ld	(replay_mode),a	
     137.  01:6796                      	
     138.  01:6796                      	
     139.  01:6796  C9                  	ret
     140.  01:6797                      
     141.  01:6797                      
     142.  01:6797                      
     143.  01:6797                      _replay_check_patternend:
     144.  01:6797  3A 7B C0            	ld 	a,(TRACK_Chan1+17+TRACK_Delay)
     145.  01:679A  3D                  	dec	a
     146.  01:679B  C2 FD 68            	jp	nz,replay_decodedata_NO
     147.  01:679E                      	
     148.  01:679E  2A 89 C1            	ld	hl,(TRACK_pointer1)
     149.  01:67A1  7E                  	ld	a,(hl)
     150.  01:67A2                      	
     151.  01:67A2                      
     152.  01:67A2                      	;--- check for end of pattern
     153.  01:67A2  FE BF               	cp	191	
     154.  01:67A4  C2 FD 68            	jp	nz,replay_decodedata_NO
     155.  01:67A7                      
     156.  01:67A7                      	;-- next_pattern
     157.  01:67A7                      	;--- Set track pointers to start
     158.  01:67A7  2A 08 C0            	ld	hl,(replay_orderpointer)
     159.  01:67AA  AF                  	xor	a
     160.  01:67AB  BE                  	cp	(hl)
     161.  01:67AC  C2 BB 67            	jp	nz,99f
     162.  01:67AF  23                  	inc	hl
     163.  01:67B0  BE                  	cp	(hl)
     164.  01:67B1  2B                  	dec	hl
     165.  01:67B2  C2 BB 67            	jp	nz,99f
     166.  01:67B5                      	;--- next is restart order
     167.  01:67B5  23                  	inc	hl
     168.  01:67B6  23                  	inc	hl
     169.  01:67B7  7E                  	ld	a,(hl)
     170.  01:67B8  23                  	inc	hl
     171.  01:67B9  66                  	ld	h,(hl)
     172.  01:67BA  6F                  	ld	l,a
     173.  01:67BB                      99:	
     174.  01:67BB  11 89 C1            	ld	de,TRACK_pointer1
     175.  01:67BE  01 10 00            	ld	bc,16
     176.  01:67C1  ED B0               	ldir
     177.  01:67C3  22 08 C0            	ld	(replay_orderpointer),hl		; store pointer for next set
     178.  01:67C6                      								; of strack pointers
     179.  01:67C6                      ; ==================================
     180.  01:67C6                      ; This part is only for debugging 
     181.  01:67C6                      ; compiled music data correctness.
     182.  01:67C6                      ; ==================================
     183.  01:67C6                      ;	jp	replay_decodedata_NO
     184.  01:67C6                      ;
     185.  01:67C6                      ;	;/// DEBUG
     186.  01:67C6                      ;	ld	a,(TRACK_Chan1+17+TRACK_Delay)
     187.  01:67C6                      ;	dec	a
     188.  01:67C6                      ;	jp	z,0f
     189.  01:67C6                      ;	halt
     190.  01:67C6                      ;0:
     191.  01:67C6                      ;	ld	a,(TRACK_Chan2+17+TRACK_Delay)
     192.  01:67C6                      ;	dec	a
     193.  01:67C6                      ;	jp	z,0f
     194.  01:67C6                      ;	halt
     195.  01:67C6                      ;0:	ld	a,(TRACK_Chan3+17+TRACK_Delay)
     196.  01:67C6                      ;	dec	a
     197.  01:67C6                      ;	jp	z,0f
     198.  01:67C6                      ;	halt
     199.  01:67C6                      ;0:	ld	a,(TRACK_Chan4+17+TRACK_Delay)
     200.  01:67C6                      ;	dec	a
     201.  01:67C6                      ;	jp	z,0f
     202.  01:67C6                      ;	halt
     203.  01:67C6                      ;0:	ld	a,(TRACK_Chan5+17+TRACK_Delay)
     204.  01:67C6                      ;	dec	a
     205.  01:67C6                      ;	jp	z,0f
     206.  01:67C6                      ;	halt
     207.  01:67C6                      ;0:	ld	a,(TRACK_Chan6+17+TRACK_Delay)
     208.  01:67C6                      ;	dec	a
     209.  01:67C6                      ;	jp	z,0f
     210.  01:67C6                      ;	halt
     211.  01:67C6                      ;0:	ld	a,(TRACK_Chan7+17+TRACK_Delay)
     212.  01:67C6                      ;	dec	a
     213.  01:67C6                      ;	jp	z,0f
     214.  01:67C6                      ;	halt
     215.  01:67C6                      ;0:	ld	a,(TRACK_Chan8+17+TRACK_Delay)
     216.  01:67C6                      ;	dec	a
     217.  01:67C6                      ;	jp	z,0f
     218.  01:67C6                      ;	halt
     219.  01:67C6                      ;0:
     220.  01:67C6                      ;
     221.  01:67C6  C3 FD 68            	jp	replay_decodedata_NO
     222.  01:67C9                      
     223.  01:67C9                      	
     224.  01:67C9                      ;--- Replay	music
     225.  01:67C9                      replay_play:
     226.  01:67C9  3A 0D C0            	ld	a,(replay_mode)
     227.  01:67CC  A7                  	and	a
     228.  01:67CD  C8                  	ret	z
     229.  01:67CE                      
     230.  01:67CE                      
     231.  01:67CE                      	;--- The speed timer
     232.  01:67CE  21 0C C0            	ld	hl,replay_speed_timer
     233.  01:67D1  35                  	dec	(hl)
     234.  01:67D2                      
     235.  01:67D2  C2 97 67            	jp	nz,_replay_check_patternend	
     236.  01:67D5                      	
     237.  01:67D5                      	;--- Re-init Timer == 0
     238.  01:67D5  AF                  	xor	a
     239.  01:67D6  ED 4B 0A C0         	ld	bc,(replay_speed)		; [b]	subtimer [c] speed
     240.  01:67DA  CB 39               	srl	c				; bit	0 is halve speedstep
     241.  01:67DC  8F                  	adc	a,a
     242.  01:67DD  A8                  	xor	b				; alternate	speed	to have halve speed.
     243.  01:67DE  32 0B C0            	ld	(replay_speed_subtimer),a
     244.  01:67E1  81                  	add	c
     245.  01:67E2  32 0C C0            	ld	(replay_speed_timer),a
     246.  01:67E5                      
     247.  01:67E5                      ;	jp	replay_decodedata	
     248.  01:67E5                      	
     249.  01:67E5                      ;===========================================================
     250.  01:67E5                      ; ---	replay_decodedata
     251.  01:67E5                      ; Process the patterndata 
     252.  01:67E5                      ; 
     253.  01:67E5                      ; 
     254.  01:67E5                      ;===========================================================
     255.  01:67E5                      replay_decodedata:
     256.  01:67E5                      	;--- process the channels (tracks)
     257.  01:67E5  21 7B C0            	ld 	hl,TRACK_Chan1+17+TRACK_Delay
     258.  01:67E8  35                  	dec	(hl)
     259.  01:67E9  C2 08 68            	jp	nz,0f
     260.  01:67EC                      
     261.  01:67EC  3A 63 C0            	ld	a,(TRACK_Chan1+17+TRACK_Flags)
     262.  01:67EF  E6 F3               	and	11110011b		; reset B_TRGENV and B_TRGCMD
     263.  01:67F1  57                  	ld	d,a
     264.  01:67F2  3A 61 C0            	ld	a,(TRACK_Chan1+17+TRACK_Note)	
     265.  01:67F5  DD 21 6A C0         	ld	ix,TRACK_Chan1+17
     266.  01:67F9  ED 4B 89 C1         	ld	bc,(TRACK_pointer1)
     267.  01:67FD  CD E4 69            	call	replay_decode_chan
     268.  01:6800  ED 43 89 C1         	ld	(TRACK_pointer1),bc
     269.  01:6804  7A                  	ld	a,d
     270.  01:6805  32 63 C0            	ld	(TRACK_Chan1+17+TRACK_Flags),a	
     271.  01:6808                      
     272.  01:6808                      
     273.  01:6808                      0:	
     274.  01:6808  21 A1 C0            	ld 	hl,TRACK_Chan2+17+TRACK_Delay
     275.  01:680B  35                  	dec	(hl)
     276.  01:680C  C2 2B 68            	jp	nz,0f
     277.  01:680F                      
     278.  01:680F  3A 89 C0            	ld	a,(TRACK_Chan2+17+TRACK_Flags)
     279.  01:6812  E6 F3               	and	11110011b		; reset B_TRGENV and B_TRGCMD
     280.  01:6814  57                  	ld	d,a
     281.  01:6815  3A 87 C0            	ld	a,(TRACK_Chan2+17+TRACK_Note)	
     282.  01:6818  DD 21 90 C0         	ld	ix,TRACK_Chan2+17
     283.  01:681C  ED 4B 8B C1         	ld	bc,(TRACK_pointer2)
     284.  01:6820  CD E4 69            	call	replay_decode_chan
     285.  01:6823  ED 43 8B C1         	ld	(TRACK_pointer2),bc
     286.  01:6827  7A                  	ld	a,d				;'
     287.  01:6828  32 89 C0            	ld	(TRACK_Chan2+17+TRACK_Flags),a	
     288.  01:682B                      
     289.  01:682B                      
     290.  01:682B                      0:
     291.  01:682B  21 C7 C0            	ld 	hl,TRACK_Chan3+17+TRACK_Delay
     292.  01:682E  35                  	dec	(hl)
     293.  01:682F  C2 4E 68            	jp	nz,0f
     294.  01:6832                      
     295.  01:6832  3A AF C0            	ld	a,(TRACK_Chan3+17+TRACK_Flags)
     296.  01:6835  E6 F3               	and	11110011b		; reset B_TRGENV and B_TRGCMD
     297.  01:6837  57                  	ld	d,a		;'
     298.  01:6838  3A AD C0            	ld	a,(TRACK_Chan3+17+TRACK_Note)	
     299.  01:683B  DD 21 B6 C0         	ld	ix,TRACK_Chan3+17
     300.  01:683F  ED 4B 8D C1         	ld	bc,(TRACK_pointer3)
     301.  01:6843  CD E4 69            	call	replay_decode_chan
     302.  01:6846  ED 43 8D C1         	ld	(TRACK_pointer3),bc
     303.  01:684A  7A                  	ld	a,d				;'
     304.  01:684B  32 AF C0            	ld	(TRACK_Chan3+17+TRACK_Flags),a	
     305.  01:684E                      
     306.  01:684E                      
     307.  01:684E                      0:
     308.  01:684E  21 ED C0            	ld 	hl,TRACK_Chan4+17+TRACK_Delay
     309.  01:6851  35                  	dec	(hl)
     310.  01:6852  C2 71 68            	jp	nz,0f
     311.  01:6855                      
     312.  01:6855  3A D5 C0            	ld	a,(TRACK_Chan4+17+TRACK_Flags)
     313.  01:6858  E6 F3               	and	11110011b		; reset B_TRGENV and B_TRGCMD
     314.  01:685A  57                  	ld 	d,a		;'
     315.  01:685B  3A D3 C0            	ld	a,(TRACK_Chan4+17+TRACK_Note)	
     316.  01:685E  DD 21 DC C0         	ld	ix,TRACK_Chan4+17
     317.  01:6862  ED 4B 8F C1         	ld	bc,(TRACK_pointer4)
     318.  01:6866  CD E4 69            	call	replay_decode_chan
     319.  01:6869  ED 43 8F C1         	ld	(TRACK_pointer4),bc
     320.  01:686D  7A                  	ld	a,d			;'
     321.  01:686E  32 D5 C0            	ld	(TRACK_Chan4+17+TRACK_Flags),a	
     322.  01:6871                      
     323.  01:6871                      
     324.  01:6871                      0:
     325.  01:6871  21 13 C1            	ld 	hl,TRACK_Chan5+17+TRACK_Delay
     326.  01:6874  35                  	dec	(hl)
     327.  01:6875  C2 94 68            	jp	nz,0f
     328.  01:6878                      
     329.  01:6878  3A FB C0            	ld	a,(TRACK_Chan5+17+TRACK_Flags)
     330.  01:687B  E6 F3               	and	11110011b		; reset B_TRGENV and B_TRGCMD
     331.  01:687D  57                  	ld	d,a		;'
     332.  01:687E  3A F9 C0            	ld	a,(TRACK_Chan5+17+TRACK_Note)	
     333.  01:6881  DD 21 02 C1         	ld	ix,TRACK_Chan5+17
     334.  01:6885  ED 4B 91 C1         	ld	bc,(TRACK_pointer5)
     335.  01:6889  CD E4 69            	call	replay_decode_chan
     336.  01:688C  ED 43 91 C1         	ld	(TRACK_pointer5),bc
     337.  01:6890  7A                  	ld	a,d			;'
     338.  01:6891  32 FB C0            	ld	(TRACK_Chan5+17+TRACK_Flags),a	
     339.  01:6894                      
     340.  01:6894                      
     341.  01:6894                      0:
     342.  01:6894  21 39 C1            	ld 	hl,TRACK_Chan6+17+TRACK_Delay
     343.  01:6897  35                  	dec	(hl)
     344.  01:6898  C2 B7 68            	jp	nz,0f
     345.  01:689B                      
     346.  01:689B  3A 21 C1            	ld	a,(TRACK_Chan6+17+TRACK_Flags)
     347.  01:689E  E6 F3               	and	11110011b		; reset B_TRGENV and B_TRGCMD
     348.  01:68A0  57                  	ld	d,a		;'
     349.  01:68A1  3A 1F C1            	ld	a,(TRACK_Chan6+17+TRACK_Note)	
     350.  01:68A4  DD 21 28 C1         	ld	ix,TRACK_Chan6+17
     351.  01:68A8  ED 4B 93 C1         	ld	bc,(TRACK_pointer6)
     352.  01:68AC  CD E4 69            	call	replay_decode_chan
     353.  01:68AF  ED 43 93 C1         	ld	(TRACK_pointer6),bc
     354.  01:68B3  7A                  	ld	a,d				;'
     355.  01:68B4  32 21 C1            	ld	(TRACK_Chan6+17+TRACK_Flags),a	
     356.  01:68B7                      
     357.  01:68B7                      
     358.  01:68B7                      
     359.  01:68B7                      0:
     360.  01:68B7  21 5F C1            	ld 	hl,TRACK_Chan7+17+TRACK_Delay
     361.  01:68BA  35                  	dec	(hl)
     362.  01:68BB  C2 DA 68            	jp	nz,0f
     363.  01:68BE                      
     364.  01:68BE  3A 47 C1            	ld	a,(TRACK_Chan7+17+TRACK_Flags)
     365.  01:68C1  E6 F3               	and	11110011b		; reset B_TRGENV and B_TRGCMD
     366.  01:68C3  57                  	ld	d,a		;'
     367.  01:68C4  3A 45 C1            	ld	a,(TRACK_Chan7+17+TRACK_Note)	
     368.  01:68C7  DD 21 4E C1         	ld	ix,TRACK_Chan7+17
     369.  01:68CB  ED 4B 95 C1         	ld	bc,(TRACK_pointer7)
     370.  01:68CF  CD E4 69            	call	replay_decode_chan
     371.  01:68D2  ED 43 95 C1         	ld	(TRACK_pointer7),bc
     372.  01:68D6  7A                  	ld	a,d				;'
     373.  01:68D7  32 47 C1            	ld	(TRACK_Chan7+17+TRACK_Flags),a	
     374.  01:68DA                      
     375.  01:68DA                      
     376.  01:68DA                      
     377.  01:68DA                      0:
     378.  01:68DA  21 85 C1            	ld 	hl,TRACK_Chan8+17+TRACK_Delay
     379.  01:68DD  35                  	dec	(hl)
     380.  01:68DE  C2 FD 68            	jp	nz,0f
     381.  01:68E1                      
     382.  01:68E1  3A 6D C1            	ld	a,(TRACK_Chan8+17+TRACK_Flags)
     383.  01:68E4  E6 F3               	and	11110011b		; reset B_TRGENV and B_TRGCMD
     384.  01:68E6  57                  	ld	d,a		;'
     385.  01:68E7  3A 6B C1            	ld	a,(TRACK_Chan8+17+TRACK_Note)	
     386.  01:68EA  DD 21 74 C1         	ld	ix,TRACK_Chan8+17
     387.  01:68EE  ED 4B 97 C1         	ld	bc,(TRACK_pointer8)
     388.  01:68F2  CD E4 69            	call	replay_decode_chan
     389.  01:68F5  ED 43 97 C1         	ld	(TRACK_pointer8),bc
     390.  01:68F9  7A                  	ld	a,d				;'
     391.  01:68FA  32 6D C1            	ld	(TRACK_Chan8+17+TRACK_Flags),a	
     392.  01:68FD                      0:
     393.  01:68FD                      
     394.  01:68FD                      	; continue to process data
     395.  01:68FD                      ;===========================================================
     396.  01:68FD                      ; ---	replay_decodedata_NO
     397.  01:68FD                      ; Process changes.
     398.  01:68FD                      ; 
     399.  01:68FD                      ; 
     400.  01:68FD                      ;===========================================================
     401.  01:68FD                      replay_decodedata_NO:
     402.  01:68FD                      
     403.  01:68FD                      ; ==============================
     404.  01:68FD                      ; Debugging only 
     405.  01:68FD                      ; for display of used CPU time	
     406.  01:68FD                      ; ==============================
     407.  01:68FD                      ;	;--- test for 5th sprite
     408.  01:68FD                      ;	ld	a,0
     409.  01:68FD                      ;	out (0x99),a
     410.  01:68FD                      ;	ld a,7+128
     411.  01:68FD                      ;	out (0x99),a 
     412.  01:68FD                      ;0:	in	a,(0x99)
     413.  01:68FD                      ;	and	0x40
     414.  01:68FD                      ;	ld	a,11
     415.  01:68FD                      ;	out (0x99),a
     416.  01:68FD                      ;	ld a,7+128
     417.  01:68FD                      ;	out (0x99),a 
     418.  01:68FD                      
     419.  01:68FD                      
     420.  01:68FD                      
     421.  01:68FD                      	;---- morph routine here
     422.  01:68FD  3A 14 C0            	ld	a,(replay_morph_active)
     423.  01:6900  A7                  	and	a
     424.  01:6901  C4 E3 71            	call	nz,replay_process_morph
     425.  01:6904                      
     426.  01:6904                      	;--- Initialize PSG Mixer and volume
     427.  01:6904  AF                  	xor	a
     428.  01:6905  32 36 C2            	ld	(SCC_regMIXER),a
     429.  01:6908  3A 02 C0            	ld	a,(replay_mainPSGvol)
     430.  01:690B  32 0F C0            	ld	(replay_mainvol),a
     431.  01:690E                      
     432.  01:690E                      	;--- Process track 1
     433.  01:690E  DD 21 6A C0         	ld	ix,TRACK_Chan1+17
     434.  01:6912  3A 63 C0            	ld	a,(TRACK_Chan1+17+TRACK_Flags)
     435.  01:6915  57                  	ld	d,a
     436.  01:6916  CD 1D 6D            	call	replay_process_chan_AY
     437.  01:6919  22 99 C1            	ld	(AY_regToneA),hl
     438.  01:691C  7A                  	ld	a,d
     439.  01:691D  32 63 C0            	ld	(TRACK_Chan1+17+TRACK_Flags),a	
     440.  01:6920  3A 35 C2            	ld	a,(SCC_regVOLE)
     441.  01:6923  32 A1 C1            	ld	(AY_regVOLA),a	
     442.  01:6926                      
     443.  01:6926                      	;--- Process track 2
     444.  01:6926  DD 21 90 C0         	ld	ix,TRACK_Chan2+17
     445.  01:692A  3A 89 C0            	ld	a,(TRACK_Chan2+17+TRACK_Flags)
     446.  01:692D  57                  	ld	d,a
     447.  01:692E  CD 1D 6D            	call	replay_process_chan_AY
     448.  01:6931  22 9B C1            	ld	(AY_regToneB),hl
     449.  01:6934  7A                  	ld	a,d
     450.  01:6935  32 89 C0            	ld	(TRACK_Chan2+17+TRACK_Flags),a	
     451.  01:6938  3A 35 C2            	ld	a,(SCC_regVOLE)
     452.  01:693B  32 A2 C1            	ld	(AY_regVOLB),a	
     453.  01:693E                      
     454.  01:693E                      	;--- Process track 3	
     455.  01:693E  DD 21 B6 C0         	ld	ix,TRACK_Chan3+17
     456.  01:6942  3A AF C0            	ld	a,(TRACK_Chan3+17+TRACK_Flags)
     457.  01:6945  57                  	ld	d,a
     458.  01:6946  CD 1D 6D            	call	replay_process_chan_AY
     459.  01:6949  22 9D C1            	ld	(AY_regToneC),hl
     460.  01:694C  7A                  	ld	a,d
     461.  01:694D  32 AF C0            	ld	(TRACK_Chan3+17+TRACK_Flags),a	
     462.  01:6950  3A 35 C2            	ld	a,(SCC_regVOLE)
     463.  01:6953  32 A3 C1            	ld	(AY_regVOLC),a	
     464.  01:6956                      
     465.  01:6956                      	;-- Convert mixer to AY
     466.  01:6956  3A 36 C2            	ld	a,(SCC_regMIXER)		
     467.  01:6959  CB 3F               	srl	a
     468.  01:695B  CB 3F               	srl	a
     469.  01:695D  EE 3F               	xor	0x3f
     470.  01:695F  32 A0 C1            	ld	(AY_regMIXER),a
     471.  01:6962                      
     472.  01:6962                      ;================
     473.  01:6962                      ; For debug only.
     474.  01:6962                      ; Display CPU time PSG and SCC processing
     475.  01:6962                      ;================
     476.  01:6962                      ;	ld	a,15
     477.  01:6962                      ;	out (0x99),a
     478.  01:6962                      ;	ld a,7+128
     479.  01:6962                      ;	out (0x99),a 
     480.  01:6962                      
     481.  01:6962                      	;--- set SCC base volume
     482.  01:6962  3A 03 C0            	ld	a,(replay_mainSCCvol)
     483.  01:6965  32 0F C0            	ld	(replay_mainvol),a
     484.  01:6968                      	
     485.  01:6968                      	
     486.  01:6968  FD 26 00            	ld	iyh,0			; iyh stores the SCC chan#
     487.  01:696B                      					; used for waveform updates
     488.  01:696B                      	;--- Process track 4
     489.  01:696B  DD 21 DC C0         	ld	ix,TRACK_Chan4+17
     490.  01:696F  3A D5 C0            	ld	a,(TRACK_Chan4+17+TRACK_Flags)
     491.  01:6972  57                  	ld	d,a
     492.  01:6973  CD 1D 6D            	call	replay_process_chan_AY
     493.  01:6976  22 27 C2            	ld	(SCC_regToneA),hl
     494.  01:6979  7A                  	ld	a,d
     495.  01:697A  32 D5 C0            	ld	(TRACK_Chan4+17+TRACK_Flags),a	
     496.  01:697D  3A 35 C2            	ld	a,(SCC_regVOLE)
     497.  01:6980  32 31 C2            	ld	(SCC_regVOLA),a	
     498.  01:6983                      
     499.  01:6983                      	;--- Process track 5
     500.  01:6983  FD 24               	inc	iyh
     501.  01:6985                      	
     502.  01:6985  DD 21 02 C1         	ld	ix,TRACK_Chan5+17
     503.  01:6989  3A FB C0            	ld	a,(TRACK_Chan5+17+TRACK_Flags)
     504.  01:698C  57                  	ld	d,a
     505.  01:698D  CD 1D 6D            	call	replay_process_chan_AY
     506.  01:6990  22 29 C2            	ld	(SCC_regToneB),hl
     507.  01:6993  7A                  	ld	a,d
     508.  01:6994  32 FB C0            	ld	(TRACK_Chan5+17+TRACK_Flags),a	
     509.  01:6997  3A 35 C2            	ld	a,(SCC_regVOLE)
     510.  01:699A  32 32 C2            	ld	(SCC_regVOLB),a	
     511.  01:699D                      
     512.  01:699D                      	;--- Process track 6
     513.  01:699D  FD 24               	inc	iyh
     514.  01:699F                      		
     515.  01:699F  DD 21 28 C1         	ld	ix,TRACK_Chan6+17
     516.  01:69A3  3A 21 C1            	ld	a,(TRACK_Chan6+17+TRACK_Flags)
     517.  01:69A6  57                  	ld	d,a
     518.  01:69A7  CD 1D 6D            	call	replay_process_chan_AY
     519.  01:69AA  22 2B C2            	ld	(SCC_regToneC),hl
     520.  01:69AD  7A                  	ld	a,d
     521.  01:69AE  32 21 C1            	ld	(TRACK_Chan6+17+TRACK_Flags),a	
     522.  01:69B1  3A 35 C2            	ld	a,(SCC_regVOLE)
     523.  01:69B4  32 33 C2            	ld	(SCC_regVOLC),a	
     524.  01:69B7                      
     525.  01:69B7                      	;--- Process track 7
     526.  01:69B7  FD 24               	inc	iyh
     527.  01:69B9                      		
     528.  01:69B9  DD 21 4E C1         	ld	ix,TRACK_Chan7+17
     529.  01:69BD  3A 47 C1            	ld	a,(TRACK_Chan7+17+TRACK_Flags)
     530.  01:69C0  57                  	ld	d,a
     531.  01:69C1  CD 1D 6D            	call	replay_process_chan_AY
     532.  01:69C4  22 2D C2            	ld	(SCC_regToneD),hl
     533.  01:69C7  7A                  	ld	a,d
     534.  01:69C8  32 47 C1            	ld	(TRACK_Chan7+17+TRACK_Flags),a	
     535.  01:69CB  3A 35 C2            	ld	a,(SCC_regVOLE)
     536.  01:69CE  32 34 C2            	ld	(SCC_regVOLD),a		
     537.  01:69D1                      
     538.  01:69D1                      	;--- Process track 8
     539.  01:69D1                      ;	inc	iyh			; no waveform for SCC channel 5
     540.  01:69D1                      		
     541.  01:69D1  DD 21 74 C1         	ld	ix,TRACK_Chan8+17
     542.  01:69D5  3A 6D C1            	ld	a,(TRACK_Chan8+17+TRACK_Flags)
     543.  01:69D8  57                  	ld	d,a
     544.  01:69D9  CD 1D 6D            	call	replay_process_chan_AY
     545.  01:69DC  22 2F C2            	ld	(SCC_regToneE),hl
     546.  01:69DF  7A                  	ld	a,d
     547.  01:69E0  32 6D C1            	ld	(TRACK_Chan8+17+TRACK_Flags),a	
     548.  01:69E3                      
     549.  01:69E3  C9                  	ret
     550.  01:69E4                      
     551.  01:69E4                      
     552.  01:69E4                      
     553.  01:69E4                      
     554.  01:69E4                      replay_decode_chan:
     555.  01:69E4                      	;--- initialize data
     556.  01:69E4                      ;	ld	a,(ix+TRACK_Note)
     557.  01:69E4  32 0E C0            	ld	(replay_previous_note),a
     558.  01:69E7                      
     559.  01:69E7                      	;--- Check if retrig has ended
     560.  01:69E7  DD 35 13            	dec	(ix+TRACK_Retrig)
     561.  01:69EA  C2 F1 69            	jp	nz,99f
     562.  01:69ED  DD CB F9 9E         	res 	B_TRGCMD,(ix+TRACK_Flags)
     563.  01:69F1                      
     564.  01:69F1                      99:
     565.  01:69F1                      	;=============
     566.  01:69F1                      	; Note 
     567.  01:69F1                      	;=============
     568.  01:69F1  0A                  	ld	a,(bc)
     569.  01:69F2  FE 60               	cp	96
     570.  01:69F4                      
     571.  01:69F4  DA 35 6A            	jp	c,_replay_decode_note
     572.  01:69F7  CA 41 6A            	jp	z,_replay_decode_rest
     573.  01:69FA  FE 70               _rdn2:cp	112;128
     574.  01:69FC  DA 88 6A            	jp	c,_replay_decode_vol
     575.  01:69FF  FE 8F               _rdv2:cp	143
     576.  01:6A01  DA 4A 6A            	jp	c,_replay_decode_ins
     577.  01:6A04                      _rdi2:
     578.  01:6A04  FE BF               	cp	191
     579.  01:6A06  D2 9D 6A            	jp	nc,_replay_decode_delay
     580.  01:6A09  DA AA 6A            	jp	c,_replay_decode_cmd
     581.  01:6A0C                      
     582.  01:6A0C                      _rdn:
     583.  01:6A0C  FE 61               	cp	97
     584.  01:6A0E  DA 2E 6A            	jp	c,_rd_delay
     585.  01:6A11  C3 FA 69            	jp	_rdn2
     586.  01:6A14                      
     587.  01:6A14                      _rdi:
     588.  01:6A14  FE 8F               	cp	143
     589.  01:6A16  DA 2E 6A            	jp	c,_rd_delay
     590.  01:6A19  C3 04 6A            	jp	_rdi2
     591.  01:6A1C                      
     592.  01:6A1C                      _rdv:
     593.  01:6A1C  FE 70               	cp	112
     594.  01:6A1E  DA 2E 6A            	jp	c,_rd_delay
     595.  01:6A21  C3 FF 69            	jp	_rdv2
     596.  01:6A24                      _rdc:
     597.  01:6A24  03                  	inc	bc
     598.  01:6A25  0A                  	ld	a,(bc)
     599.  01:6A26  FE BF               	cp	191
     600.  01:6A28  DA 2E 6A            	jp	c,_rd_delay
     601.  01:6A2B  C3 9D 6A            	jp	_replay_decode_delay
     602.  01:6A2E                      
     603.  01:6A2E                      	;--- re-init previous delay
     604.  01:6A2E                      _rd_delay:
     605.  01:6A2E  DD 7E 12            	ld	a,(ix+TRACK_prevDelay)
     606.  01:6A31  DD 77 11            	ld	(ix+TRACK_Delay),a
     607.  01:6A34                      
     608.  01:6A34  C9                  	ret
     609.  01:6A35                      
     610.  01:6A35                      
     611.  01:6A35                      
     612.  01:6A35                      _replay_decode_note:
     613.  01:6A35                      
     614.  01:6A35  DD 77 F7            	ld	(ix+TRACK_Note),a
     615.  01:6A38                      
     616.  01:6A38  CB C2               	set 	B_TRGNOT,d
     617.  01:6A3A  CB A2               	res	B_ACTMOR,d
     618.  01:6A3C                      ;	set	B_TRGNOT,(ix+TRACK_Flags)	; set note trigger
     619.  01:6A3C                      ;	res	B_ACTMOR,(ix+TRACK_Flags)	; reset morph slave mode
     620.  01:6A3C                      
     621.  01:6A3C  03                  	inc	bc
     622.  01:6A3D  0A                  	ld	a,(bc)
     623.  01:6A3E                      	
     624.  01:6A3E                      
     625.  01:6A3E  C3 0C 6A            	jp	_rdn
     626.  01:6A41                      	
     627.  01:6A41                      _replay_decode_rest:
     628.  01:6A41  CB 8A               	res	B_ACTNOT,d				; set	note bit to	0
     629.  01:6A43  CB A2               	res	B_ACTMOR,d				; reset morph slave mode
     630.  01:6A45                      ;	res	B_ACTNOT,(ix+TRACK_Flags)	; set	note bit to	0
     631.  01:6A45                      ;	res	B_ACTMOR,(ix+TRACK_Flags)	; reset morph slave mode
     632.  01:6A45                      
     633.  01:6A45                      ;	ld	a,(replay_previous_note)
     634.  01:6A45                      ;	ld	(ix+TRACK_Note),a
     635.  01:6A45                      
     636.  01:6A45  03                  	inc	bc
     637.  01:6A46  0A                  	ld	a,(bc)
     638.  01:6A47  C3 0C 6A            	jp	_rdn
     639.  01:6A4A                      
     640.  01:6A4A                      _replay_decode_ins:
     641.  01:6A4A  CB A2               	res	B_ACTMOR,d				; reset morph slave mode
     642.  01:6A4C                      ;	set	B_TRGINS,d
     643.  01:6A4C                      	
     644.  01:6A4C  D6 70               	sub	112;97
     645.  01:6A4E  DD BE EF            	cp	(ix+TRACK_Instrument)
     646.  01:6A51  CA 83 6A            	jp	z,0f
     647.  01:6A54                      	
     648.  01:6A54  DD 77 EF            	ld	(ix+TRACK_Instrument),a
     649.  01:6A57                      
     650.  01:6A57                      	;--- set instrument pointer
     651.  01:6A57  87                  	add	a
     652.  01:6A58  2A 06 C0            	ld	hl,(replay_insbase)
     653.  01:6A5B  85                  	add	a,l
     654.  01:6A5C  6F                  	ld	l,a
     655.  01:6A5D  D2 61 6A            	jp	nc,99f
     656.  01:6A60  24                  	inc	h
     657.  01:6A61                      99:
     658.  01:6A61  7E                  	ld	a,(hl)
     659.  01:6A62  23                  	inc	hl
     660.  01:6A63  66                  	ld	h,(hl)
     661.  01:6A64  6F                  	ld	l,a
     662.  01:6A65                      
     663.  01:6A65                      	;-- get waveform
     664.  01:6A65  7E                  	ld	a,(hl)
     665.  01:6A66  23                  	inc	hl
     666.  01:6A67                      	
     667.  01:6A67  5E                  	ld	e,(hl)
     668.  01:6A68  23                  	inc	hl
     669.  01:6A69                      
     670.  01:6A69                      	;---- Store the restart offset
     671.  01:6A69  DD 73 F6            	ld	(ix+TRACK_MacroRestart),e
     672.  01:6A6C                      	;--- Store the macro start
     673.  01:6A6C  DD 75 F2            	ld	(ix+TRACK_MacroPointer),l
     674.  01:6A6F  DD 74 F3            	ld	(ix+TRACK_MacroPointer+1),h	
     675.  01:6A72                      	;--- Store the macro re-start
     676.  01:6A72  DD 75 F4            	ld	(ix+TRACK_MacroStart),l
     677.  01:6A75  DD 74 F5            	ld	(ix+TRACK_MacroStart+1),h		
     678.  01:6A78                      	;--- Set the waveform  (if needed)
     679.  01:6A78  DD BE F0            	cp	(ix+TRACK_Waveform)
     680.  01:6A7B  CA 83 6A            	jp	z,0f
     681.  01:6A7E                      	
     682.  01:6A7E                      	;--- this is a new waveform
     683.  01:6A7E  DD 77 F0            	ld	(ix+TRACK_Waveform),a
     684.  01:6A81  CB F2               	set	B_TRGWAV,d
     685.  01:6A83                      ;	set	B_TRGWAV,(ix+TRACK_Flags)
     686.  01:6A83                      	
     687.  01:6A83                      0:	
     688.  01:6A83  03                  	inc	bc
     689.  01:6A84  0A                  	ld	a,(bc)
     690.  01:6A85  C3 14 6A            	jp	_rdi
     691.  01:6A88                      
     692.  01:6A88                      
     693.  01:6A88                      _replay_decode_vol:
     694.  01:6A88  D6 60               	sub	96;127
     695.  01:6A8A  87                  	add	a
     696.  01:6A8B  87                  	add	a
     697.  01:6A8C  87                  	add	a
     698.  01:6A8D  87                  	add	a
     699.  01:6A8E                      	
     700.  01:6A8E                      	;--- Set new base	volume (high byte) but keep relative offset (low byte)
     701.  01:6A8E  5F                  	ld	e,a
     702.  01:6A8F  DD 7E F8            	ld	a,(ix+TRACK_Volume)
     703.  01:6A92  E6 0F               	and	0xf
     704.  01:6A94  B3                  	or	e
     705.  01:6A95  DD 77 F8            	ld	(ix+TRACK_Volume),a
     706.  01:6A98                      
     707.  01:6A98  03                  	inc	bc
     708.  01:6A99  0A                  	ld	a,(bc)
     709.  01:6A9A  C3 1C 6A            	jp	_rdv
     710.  01:6A9D                      
     711.  01:6A9D                      
     712.  01:6A9D                      _replay_decode_delay:
     713.  01:6A9D  D6 BF               	sub	191
     714.  01:6A9F  CA 2E 6A            	jp	z,_rd_delay		; EOT found
     715.  01:6AA2  DD 77 11            	ld	(ix+TRACK_Delay),a
     716.  01:6AA5  DD 77 12            	ld	(ix+TRACK_prevDelay),a
     717.  01:6AA8                      
     718.  01:6AA8  03                  	inc	bc
     719.  01:6AA9  C9                  	ret
     720.  01:6AAA                      
     721.  01:6AAA                      
     722.  01:6AAA                      _replay_decode_cmd:
     723.  01:6AAA                      
     724.  01:6AAA  D6 8E               	sub	142
     725.  01:6AAC  DD 77 F1            	ld	(ix+TRACK_Command),a
     726.  01:6AAF                      ;	add	13
     727.  01:6AAF  21 C0 6A            	ld	hl,DECODE_CMDLIST
     728.  01:6AB2  87                  	add	a,a
     729.  01:6AB3  85                  	add	a,l
     730.  01:6AB4  6F                  	ld	l,a
     731.  01:6AB5  D2 B9 6A            	jp	nc,99f
     732.  01:6AB8  24                  	inc	h
     733.  01:6AB9                      99:
     734.  01:6AB9                      ;	ld	d,0
     735.  01:6AB9                      ;	ld	e,a
     736.  01:6AB9                      ;	add	hl,de
     737.  01:6AB9  7E                  	ld	a,(hl)
     738.  01:6ABA  23                  	inc	hl
     739.  01:6ABB  66                  	ld	h,(hl)
     740.  01:6ABC  6F                  	ld	l,a
     741.  01:6ABD                      	
     742.  01:6ABD  03                  	inc	bc
     743.  01:6ABE  0A                  	ld	a,(bc)
     744.  01:6ABF  E9                  	jp	(hl)
     745.  01:6AC0                      
     746.  01:6AC0                      DECODE_CMDLIST:
     747.  01:6AC0  AF 6B               	dw	_CHIPcmdA_env_mul			;0
     748.  01:6AC2  C4 6B               	dw	_CHIPcmdB_wave_res		;1
     749.  01:6AC4  D6 6B               	dw	_CHIPcmdF_wave_set		;2
     750.  01:6AC6  E0 6B               	dw	_CHIPcmd10_morph_slave		;3
     751.  01:6AC8  E6 6B               	dw	_CHIPcmd11_morph_start		;4
     752.  01:6ACA  0F 6C               	dw	_CHIPcmd12_morph_cont		;5
     753.  01:6ACC  3E 6C               	dw	_CHIPcmd16_vib_ctrl		;6
     754.  01:6ACE  64 6C               	dw	_CHIPcmd17_track_detune		;7
     755.  01:6AD0  87 6C               	dw	_CHIPcmd18_transpose		;8
     756.  01:6AD2  D4 6C               	dw	_CHIPcmd1A_trigger		;9
     757.  01:6AD4  DA 6C               	dw	_CHIPcmd1B_speed			;a
     758.  01:6AD6  ED 6C               	dw	_CHIPcmd1C_call			;b	
     759.  01:6AD8  ED 6C               	dw	_CHIPcmd1D_ret			;c
     760.  01:6ADA                      	
     761.  01:6ADA  CC 6B               	dw	_CHIPcmdC_wave_duty		;d
     762.  01:6ADC  CC 6B               	dw	_CHIPcmdD_wave_cut		;e
     763.  01:6ADE  CC 6B               	dw	_CHIPcmdE_wave_compr		;f
     764.  01:6AE0  26 6C               	dw	_CHIPcmd13_short_arp		;10
     765.  01:6AE2  32 6C               	dw	_CHIPcmd14_fine_up		;11
     766.  01:6AE4  32 6C               	dw	_CHIPcmd15_fine_down		;12
     767.  01:6AE6  B6 6C               	dw	_CHIPcmd19_note_delay		;13
     768.  01:6AE8  AD 6C               	dw	_CHIPcmdXX_note_cut		;14
     769.  01:6AEA                      
     770.  01:6AEA                      	
     771.  01:6AEA  12 6B               	dw	_CHIPcmd0_arpeggio		;15
     772.  01:6AEC  1E 6B               	dw	_CHIPcmd1_port_up			;16
     773.  01:6AEE  26 6B               	dw	_CHIPcmd2_port_down		;17
     774.  01:6AF0  34 6B               	dw	_CHIPcmd3_port_tone		;18
     775.  01:6AF2  7E 6B               	dw	_CHIPcmd4_vibrato			;19
     776.  01:6AF4  98 6B               	dw	_CHIPcmd5_vibrato_port_tone	;1a
     777.  01:6AF6  98 6B               	dw	_CHIPcmd6_vibrato_vol		;1b
     778.  01:6AF8  98 6B               	dw	_CHIPcmd7_vol_slide		;1c
     779.  01:6AFA  A4 6B               	dw	_CHIPcmd8_macro_offset		;1d
     780.  01:6AFC  A7 6B               	dw	_CHIPcmd9_env_shape		;1e
     781.  01:6AFE                      
     782.  01:6AFE  F1 6C               	dw	_CHIPcmd0_RE_arpeggio		;1f
     783.  01:6B00  F5 6C               	dw	_CHIPcmd1_RE_port_up		;20
     784.  01:6B02  F5 6C               	dw	_CHIPcmd2_RE_port_down		;21
     785.  01:6B04  2E 6B               	dw	_CHIPcmd3_RE_port_tone		;22
     786.  01:6B06  F5 6C               	dw	_CHIPcmd4_RE_vibrato		;23
     787.  01:6B08  FD 6C               	dw	_CHIPcmd5_RE_vibrato_port_tone;24
     788.  01:6B0A  FD 6C               	dw	_CHIPcmd6_RE_vibrato_vol	;25
     789.  01:6B0C  FD 6C               	dw	_CHIPcmd7_RE_vol_slide		;26
     790.  01:6B0E  09 6D               	dw	_CHIPcmd8_RE_macro_offset	;27
     791.  01:6B10  15 6D               	dw	_CHIPcmd9_RE_env_shape		;28
     792.  01:6B12                      
     793.  01:6B12                      
     794.  01:6B12                      
     795.  01:6B12                      _CHIPcmd0_arpeggio:
     796.  01:6B12                      	; in:	[A] contains the paramvalue
     797.  01:6B12                      	; 
     798.  01:6B12                      	; ! do not change	[BC] this is the data pointer
     799.  01:6B12                      	;--------------------------------------------------
     800.  01:6B12                      	; Cycles between note, note+x	halftones, note+y
     801.  01:6B12                      	; halftones. 
     802.  01:6B12                      	; Ex:	(MOD/XM: C-4 01 .. 037)	This will play 
     803.  01:6B12                      	; C-4, C-4+3 semitones andC-4+7 semitones. 
     804.  01:6B12  DD 77 05            	ld	(ix+TRACK_cmd_0),a
     805.  01:6B15  CB DA               	set	B_TRGCMD,d
     806.  01:6B17                      ;	set	B_TRGCMD,(ix+TRACK_Flags)
     807.  01:6B17  DD 36 0F 00         	ld	(ix+TRACK_Timer),0
     808.  01:6B1B                      
     809.  01:6B1B                      ;	inc	bc
     810.  01:6B1B                      ;	ld	a,(bc)
     811.  01:6B1B  C3 24 6A            	jp	_rdc
     812.  01:6B1E                      	
     813.  01:6B1E                      _CHIPcmd1_port_up:
     814.  01:6B1E                      	; in:	[A] contains the paramvalue
     815.  01:6B1E                      	; 
     816.  01:6B1E                      	; ! do not change	[BC] this is the data pointer
     817.  01:6B1E                      	;--------------------------------------------------
     818.  01:6B1E                      	; This will	slide	up the pitch of the current note
     819.  01:6B1E                      	; being played by	the given speed. 
     820.  01:6B1E  DD 77 06            	ld	(ix+TRACK_cmd_1),a
     821.  01:6B21  CB DA               	set	B_TRGCMD,d
     822.  01:6B23                      ;	set	B_TRGCMD,(ix+TRACK_Flags)
     823.  01:6B23                      
     824.  01:6B23                      ;	inc	bc
     825.  01:6B23                      ;	ld	a,(bc)
     826.  01:6B23  C3 24 6A            	jp	_rdc
     827.  01:6B26                      	
     828.  01:6B26                      	
     829.  01:6B26                      	 
     830.  01:6B26                      _CHIPcmd2_port_down:
     831.  01:6B26                      	; in:	[A] contains the paramvalue
     832.  01:6B26                      	; 
     833.  01:6B26                      	; ! do not change	[BC] this is the data pointer
     834.  01:6B26                      	;--------------------------------------------------
     835.  01:6B26                      	; This will	slide	down the pitch of	the current	note
     836.  01:6B26                      	; being played by	the given speed.	
     837.  01:6B26  DD 77 07            	ld	(ix+TRACK_cmd_2),a
     838.  01:6B29  CB DA               	set	B_TRGCMD,d
     839.  01:6B2B                      ;	set	B_TRGCMD,(ix+TRACK_Flags)
     840.  01:6B2B                      
     841.  01:6B2B                      ;	inc	bc
     842.  01:6B2B                      ;	ld	a,(bc)
     843.  01:6B2B  C3 24 6A            	jp	_rdc
     844.  01:6B2E                      	
     845.  01:6B2E                      
     846.  01:6B2E                      _CHIPcmd3_RE_port_tone:
     847.  01:6B2E                      ;	dec	bc
     848.  01:6B2E  DD 77 13            	ld	(ix+TRACK_Retrig),a
     849.  01:6B31                      
     850.  01:6B31  C3 3B 6B            	jp	0f	
     851.  01:6B34                      _CHIPcmd3_port_tone:
     852.  01:6B34                      	; in:	[A] contains the paramvalue
     853.  01:6B34                      	; 
     854.  01:6B34                      	; ! do not change	[BC] this is the data pointer
     855.  01:6B34                      	;--------------------------------------------------
     856.  01:6B34                      	; This command is	used together with a note, and 
     857.  01:6B34                      	; will bend	the current	pitch	at the given speed
     858.  01:6B34                      	; towards the specified	note.	Example:
     859.  01:6B34                      	;	C-4 1....
     860.  01:6B34                      	;	F-4 ..305 (bend the note up towards	F-4)
     861.  01:6B34                      	;	... ..300 (continue to slide up, until F-4
     862.  01:6B34                      	;						  is reached
     863.  01:6B34                      
     864.  01:6B34  DD 77 08            	ld	(ix+TRACK_cmd_3),a
     865.  01:6B37  DD 36 0F 02         	ld	(ix+TRACK_Timer),2
     866.  01:6B3B                      0:
     867.  01:6B3B  CB DA               	set	B_TRGCMD,d
     868.  01:6B3D  CB CA               	set	B_ACTNOT,d
     869.  01:6B3F                      ;	set	B_TRGCMD,(ix+TRACK_Flags)
     870.  01:6B3F                      ;	set	B_ACTNOT,(ix+TRACK_Flags)
     871.  01:6B3F                      	;--- Check if we have a	note on the	same event
     872.  01:6B3F  CB 42               	bit	B_TRGNOT,d
     873.  01:6B41                      ;	bit	B_TRGNOT,(ix+TRACK_Flags)
     874.  01:6B41  CA 24 6A            	jp	z,_rdc
     875.  01:6B44                      
     876.  01:6B44                      
     877.  01:6B44                      	;-- get the	previous note freq
     878.  01:6B44  3A 0E C0            	ld	a,(replay_previous_note)
     879.  01:6B47  87                  	add	a
     880.  01:6B48                      	
     881.  01:6B48  D9                  	exx
     882.  01:6B49                      	
     883.  01:6B49                      	
     884.  01:6B49  2A 12 C0            	ld	hl,(replay_Tonetable)	;TRACK_ToneTable
     885.  01:6B4C  85                  	add	a,l
     886.  01:6B4D  6F                  	ld	l,a
     887.  01:6B4E  D2 52 6B            	jp	nc,99f
     888.  01:6B51  24                  	inc	h
     889.  01:6B52                      99:
     890.  01:6B52  5E                  	ld	e,(hl)
     891.  01:6B53  23                  	inc	hl
     892.  01:6B54  56                  	ld	d,(hl)
     893.  01:6B55                      
     894.  01:6B55                      	; add	the toneadd
     895.  01:6B55  DD 6E 00            	ld	l,(ix+TRACK_cmd_ToneSlideAdd)
     896.  01:6B58  DD 66 01            	ld	h,(ix+TRACK_cmd_ToneSlideAdd+1)
     897.  01:6B5B                      
     898.  01:6B5B  19                  	add	hl,de	
     899.  01:6B5C  EB                  	ex	de,hl				; store current freq in	[de]
     900.  01:6B5D                      
     901.  01:6B5D                      	;--- get the current note freq
     902.  01:6B5D  DD 7E F7            	ld	a,(ix+TRACK_Note)
     903.  01:6B60  87                  	add	a
     904.  01:6B61  2A 12 C0            	ld	hl,(replay_Tonetable)	;TRACK_ToneTable
     905.  01:6B64  85                  	add	a,l
     906.  01:6B65  6F                  	ld	l,a
     907.  01:6B66  D2 6A 6B            	jp	nc,99f
     908.  01:6B69  24                  	inc	h
     909.  01:6B6A                      99:
     910.  01:6B6A  7E                  	ld	a,(hl)
     911.  01:6B6B  23                  	inc	hl
     912.  01:6B6C  66                  	ld	h,(hl)
     913.  01:6B6D  6F                  	ld	l,a				; destination freq in [hl]
     914.  01:6B6E                      	
     915.  01:6B6E                      	;--- Calculate the delta
     916.  01:6B6E  AF                  	xor	a
     917.  01:6B6F  EB                  	ex	de,hl
     918.  01:6B70  ED 52               	sbc	hl,de				; results in pos/neg delta
     919.  01:6B72                      	
     920.  01:6B72  DD 75 00            	ld	(ix+TRACK_cmd_ToneSlideAdd),l
     921.  01:6B75  DD 74 01            	ld	(ix+TRACK_cmd_ToneSlideAdd+1),h	
     922.  01:6B78                      	
     923.  01:6B78  D9                  	exx
     924.  01:6B79                      	
     925.  01:6B79  CB 82               	res	B_TRGNOT,d
     926.  01:6B7B                      ;	res	B_TRGNOT,(ix+TRACK_Flags)
     927.  01:6B7B                      
     928.  01:6B7B                      
     929.  01:6B7B                      ;	inc	bc
     930.  01:6B7B                      ;	ld	a,(bc)
     931.  01:6B7B  C3 24 6A            	jp	_rdc	
     932.  01:6B7E                      
     933.  01:6B7E                      	
     934.  01:6B7E                      _CHIPcmd4_vibrato:
     935.  01:6B7E                      	; in:	[A] contains the paramvalue
     936.  01:6B7E                      	; 
     937.  01:6B7E                      	; ! do not change	[BC] this is the data pointer
     938.  01:6B7E                      	;--------------------------------------------------
     939.  01:6B7E                      	; Vibrato with speed x and depth y.	This command 
     940.  01:6B7E                      	; will oscillate the frequency of the current note
     941.  01:6B7E                      	; with a sine wave. (You can change	the vibrato
     942.  01:6B7E                      	; waveform to a triangle wave, a square wave, or a
     943.  01:6B7E                      	; random table by	using	the E4x command).
     944.  01:6B7E                      	;--- Init values
     945.  01:6B7E  5F                  	ld	e,a
     946.  01:6B7F  E6 07               	and	$07
     947.  01:6B81                      
     948.  01:6B81                      ;	inc	a  ; perhaps re-enable this
     949.  01:6B81  DD 77 09            	ld	(ix+TRACK_cmd_4_depth),a
     950.  01:6B84  7B                  	ld	a,e
     951.  01:6B85  1F                  	rra
     952.  01:6B86  1F                  	rra
     953.  01:6B87  1F                  	rra
     954.  01:6B88  1F                  	rra
     955.  01:6B89  E6 0F               	and	$0f
     956.  01:6B8B  DD 77 0A            	ld	(ix+TRACK_cmd_4_step),a
     957.  01:6B8E  ED 44               	neg	
     958.  01:6B90  DD 77 10            	ld	(ix+TRACK_Step),a
     959.  01:6B93                      
     960.  01:6B93  CB DA               	set	B_TRGCMD,d
     961.  01:6B95                      ;	set	B_TRGCMD,(ix+TRACK_Flags)
     962.  01:6B95                      
     963.  01:6B95                      ;	inc	bc
     964.  01:6B95                      ;	ld	a,(bc)
     965.  01:6B95  C3 24 6A            	jp	_rdc
     966.  01:6B98                      
     967.  01:6B98                      	
     968.  01:6B98                      	
     969.  01:6B98                      
     970.  01:6B98                      
     971.  01:6B98                      _CHIPcmd5_vibrato_port_tone:
     972.  01:6B98                      	; in:	[A] contains the paramvalue
     973.  01:6B98                      	; 
     974.  01:6B98                      	; ! do not change	[BC] this is the data pointer
     975.  01:6B98                      	;--------------------------------------------------
     976.  01:6B98                      	; portTone	+ volumeslide
     977.  01:6B98                      	;--- Init values
     978.  01:6B98                      _CHIPcmd6_vibrato_vol:
     979.  01:6B98                      	; in:	[A] contains the paramvalue
     980.  01:6B98                      	; 
     981.  01:6B98                      	; ! do not change	[BC] this is the data pointer
     982.  01:6B98                      	;--------------------------------------------------
     983.  01:6B98                      _CHIPcmd7_vol_slide:
     984.  01:6B98                      	; in:	[A] contains the paramvalue
     985.  01:6B98                      	; 
     986.  01:6B98                      	; ! do not change	[BC] this is the data pointer
     987.  01:6B98                      	;--------------------------------------------------
     988.  01:6B98                      	; slide the	volume up or down	1 step.
     989.  01:6B98                      	; The	x or y param  set	the delay*2	(x=up,y=down)
     990.  01:6B98                      	; With A00 the previous	value	is used.
     991.  01:6B98                      	
     992.  01:6B98                      	;--- neg or	pos
     993.  01:6B98  DD 77 0C            	ld	(ix+TRACK_cmd_A),a
     994.  01:6B9B  CB DA               	set	B_TRGCMD,d
     995.  01:6B9D                      ;	set	B_TRGCMD,(ix+TRACK_Flags)
     996.  01:6B9D  DD 36 0F 01         	ld	(ix+TRACK_Timer),1
     997.  01:6BA1                      
     998.  01:6BA1  C3 24 6A            	jp	_rdc
     999.  01:6BA4                      
    1000.  01:6BA4                      
    1001.  01:6BA4                      
    1002.  01:6BA4                      _CHIPcmd8_macro_offset:
    1003.  01:6BA4                      	; in:	[A] contains the paramvalue
    1004.  01:6BA4                      	; 
    1005.  01:6BA4                      	; ! do not change	[BC] this is the data pointer
    1006.  01:6BA4                      	;--------------------------------------------------
    1007.  01:6BA4                      	; This command, when used together with a	note,	
    1008.  01:6BA4                      	; will start playing the sample at the position	xx 
    1009.  01:6BA4                      	; (instead of position 0). If	xx is	00 (900), the 
    1010.  01:6BA4                      	; previous value will be used.
    1011.  01:6BA4                      
    1012.  01:6BA4                      	;--- Init values
    1013.  01:6BA4                      ;	ld	(ix+TRACK_cmd_9),a
    1014.  01:6BA4                      ;	set	B_TRGCMD,(ix+TRACK_Flags)
    1015.  01:6BA4                      ;	ld	(ix+TRACK_Timer),2		; timer is set as	we process cmd
    1016.  01:6BA4                      							; before new notes.
    1017.  01:6BA4                      	
    1018.  01:6BA4                      ;	inc	bc
    1019.  01:6BA4                      ;	ld	a,(bc)
    1020.  01:6BA4  C3 24 6A            	jp	_rdc
    1021.  01:6BA7                      
    1022.  01:6BA7                      
    1023.  01:6BA7                      
    1024.  01:6BA7                      
    1025.  01:6BA7                      _CHIPcmd9_env_shape:
    1026.  01:6BA7                      
    1027.  01:6BA7  CB D2               	set	B_TRGENV,d
    1028.  01:6BA9                      ;	set	B_TRGENV,(IX+TRACK_Flags)
    1029.  01:6BA9                      	;--- store new envelope shape (anything other than 0 is written)
    1030.  01:6BA9  32 A6 C1            	ld	(AY_regEnvShape),a
    1031.  01:6BAC                      
    1032.  01:6BAC                      ;	inc	bc
    1033.  01:6BAC                      ;	ld	a,(bc)
    1034.  01:6BAC  C3 24 6A            	jp	_rdc
    1035.  01:6BAF                      
    1036.  01:6BAF                      
    1037.  01:6BAF                      	; in:	[A] contains the paramvalue
    1038.  01:6BAF                      	; 
    1039.  01:6BAF                      	; ! do not change	[BC] this is the data pointer
    1040.  01:6BAF                      	;--------------------------------------------------
    1041.  01:6BAF                      	; This command set the envelope frequency using a
    1042.  01:6BAF                      	; multiplier value (00-ff)
    1043.  01:6BAF                      _CHIPcmdA_env_mul:
    1044.  01:6BAF  57                  	ld	d,a
    1045.  01:6BB0  AF                  	xor	a
    1046.  01:6BB1  CB 3A               	srl	d
    1047.  01:6BB3  1F                  	rra	
    1048.  01:6BB4  CB 3A               	srl	d
    1049.  01:6BB6  1F                  	rra		
    1050.  01:6BB7  CB 3A               	srl	d
    1051.  01:6BB9  1F                  	rra	
    1052.  01:6BBA  32 A4 C1            	ld	(AY_regEnvL),a
    1053.  01:6BBD  7A                  	ld	a,d
    1054.  01:6BBE  32 A5 C1            	ld	(AY_regEnvH),a
    1055.  01:6BC1                      	
    1056.  01:6BC1                      ;	inc	bc
    1057.  01:6BC1                      ;	ld	a,(bc)
    1058.  01:6BC1  C3 24 6A            	jp	_rdc	
    1059.  01:6BC4                      
    1060.  01:6BC4                      
    1061.  01:6BC4                      
    1062.  01:6BC4                      _CHIPcmdB_wave_res:
    1063.  01:6BC4  CB F2               	set	B_TRGWAV,d
    1064.  01:6BC6  CB A2               	res	B_ACTMOR,d
    1065.  01:6BC8                      ;	set	B_TRGWAV,(ix+TRACK_Flags)
    1066.  01:6BC8                      ;	res	B_ACTMOR,(ix+TRACK_Flags)
    1067.  01:6BC8                      
    1068.  01:6BC8  0B                  	dec 	bc
    1069.  01:6BC9  C3 24 6A            	jp	_rdc
    1070.  01:6BCC                      
    1071.  01:6BCC                      
    1072.  01:6BCC                      _CHIPcmdC_wave_duty:
    1073.  01:6BCC                      _CHIPcmdD_wave_cut:
    1074.  01:6BCC                      _CHIPcmdE_wave_compr:
    1075.  01:6BCC  DD 77 0D            	ld	(ix+TRACK_cmd_B),a
    1076.  01:6BCF  CB DA               	set	B_TRGCMD,d
    1077.  01:6BD1  CB A2               	res	B_ACTMOR,d
    1078.  01:6BD3                      ;	set	B_TRGCMD,(ix+TRACK_Flags)
    1079.  01:6BD3                      ;	res	B_ACTMOR,(ix+TRACK_Flags)
    1080.  01:6BD3                      
    1081.  01:6BD3                      ;	inc	bc
    1082.  01:6BD3                      ;	ld	a,(bc)
    1083.  01:6BD3  C3 24 6A            	jp	_rdc	
    1084.  01:6BD6                      
    1085.  01:6BD6                      
    1086.  01:6BD6                      _CHIPcmdF_wave_set:
    1087.  01:6BD6  DD 77 F0            	ld	(ix+TRACK_Waveform),a
    1088.  01:6BD9  CB F2               	set	B_TRGWAV,d
    1089.  01:6BDB  CB A2               	res	B_ACTMOR,d
    1090.  01:6BDD                      ;	set	B_TRGWAV,(ix+TRACK_Flags)
    1091.  01:6BDD                      ;	res	B_ACTMOR,(ix+TRACK_Flags)
    1092.  01:6BDD                      
    1093.  01:6BDD                      ;	inc	bc
    1094.  01:6BDD                      ;	ld	a,(bc)
    1095.  01:6BDD  C3 24 6A            	jp	_rdc	
    1096.  01:6BE0                      
    1097.  01:6BE0                      
    1098.  01:6BE0                      _CHIPcmd10_morph_slave:
    1099.  01:6BE0  CB E2               	set	B_ACTMOR,d
    1100.  01:6BE2                      ;	set	B_ACTMOR,(ix+TRACK_Flags)
    1101.  01:6BE2                      	
    1102.  01:6BE2  0B                  	dec 	bc
    1103.  01:6BE3  C3 24 6A            	jp	_rdc	
    1104.  01:6BE6                      	
    1105.  01:6BE6                      _CHIPcmd11_morph_start:
    1106.  01:6BE6                      ;	ld	d,a
    1107.  01:6BE6  E6 0F               	and	0x0f
    1108.  01:6BE8  32 16 C0            	ld	(replay_morph_speed),a
    1109.  01:6BEB                      	
    1110.  01:6BEB  D9                  	exx
    1111.  01:6BEC                      	
    1112.  01:6BEC                      	;--- load the waveformbuffer
    1113.  01:6BEC  DD 7E F0            	ld	a,(ix+TRACK_Waveform)
    1114.  01:6BEF  87                  	add	a,a
    1115.  01:6BF0  87                  	add	a,a
    1116.  01:6BF1  87                  	add	a,a	
    1117.  01:6BF2                      
    1118.  01:6BF2  6F                  	ld	l,a
    1119.  01:6BF3  26 00               	ld	h,0
    1120.  01:6BF5  29                  	add	hl,hl
    1121.  01:6BF6  29                  	add	hl,hl
    1122.  01:6BF7                      		
    1123.  01:6BF7  ED 5B 04 C0         	ld	de,(replay_wavebase)
    1124.  01:6BFB  19                  	add	hl,de
    1125.  01:6BFC                      
    1126.  01:6BFC  11 18 C0            	ld	de,replay_morph_buffer
    1127.  01:6BFF  3E 20               	ld	a,32
    1128.  01:6C01                      44:
    1129.  01:6C01  08                  	ex	af,af'	;'
    1130.  01:6C02  7E                  	ld	a,(hl)
    1131.  01:6C03  12                  	ld	(de),a		; copy value to both wave and delta pos
    1132.  01:6C04  13                  	inc	de
    1133.  01:6C05  12                  	ld	(de),a
    1134.  01:6C06  23                  	inc	hl
    1135.  01:6C07  13                  	inc	de
    1136.  01:6C08  08                  	ex	af,af'	;'
    1137.  01:6C09  3D                  	dec	a
    1138.  01:6C0A  C2 01 6C            	jp	nz,44b
    1139.  01:6C0D                      
    1140.  01:6C0D  D9                  	exx
    1141.  01:6C0E  0A                  	ld	a,(bc)
    1142.  01:6C0F                      
    1143.  01:6C0F                      _CHIPcmd12_morph_cont:
    1144.  01:6C0F                      ;	ld	a,d
    1145.  01:6C0F                      	;---- init new morph
    1146.  01:6C0F  E6 F0               	and	0xf0	
    1147.  01:6C11  32 58 C0            	ld	(replay_morph_waveform),a	; store dest form offset
    1148.  01:6C14                      	
    1149.  01:6C14  AF                  	xor	a
    1150.  01:6C15  32 17 C0            	ld	(replay_morph_counter),a
    1151.  01:6C18  3C                  	inc	a
    1152.  01:6C19  32 15 C0            	ld	(replay_morph_timer),a
    1153.  01:6C1C                      
    1154.  01:6C1C                      	;--- calculate the delta's	
    1155.  01:6C1C  3E FF               	ld	a,255				; 255 triggers calc init
    1156.  01:6C1E  32 14 C0            	ld	(replay_morph_active),a	
    1157.  01:6C21                      
    1158.  01:6C21  CB E2               	set	B_ACTMOR,d
    1159.  01:6C23                      ;	set	B_ACTMOR,(ix+TRACK_Flags)	
    1160.  01:6C23                      
    1161.  01:6C23                      ;	inc	bc
    1162.  01:6C23                      ;	ld	a,(bc)
    1163.  01:6C23  C3 24 6A            	jp	_rdc		
    1164.  01:6C26                      	
    1165.  01:6C26                      
    1166.  01:6C26                      _CHIPcmd13_short_arp:
    1167.  01:6C26  DD 77 0E            	ld	(ix+TRACK_cmd_E),a		; store the halve not to add
    1168.  01:6C29  DD 36 0F 00         	ld	(ix+TRACK_Timer),0
    1169.  01:6C2D                      
    1170.  01:6C2D  CB DA               	set	B_TRGCMD,d		; command active
    1171.  01:6C2F                      ;	set	B_TRGCMD,(ix+TRACK_Flags)		; command active		
    1172.  01:6C2F                      
    1173.  01:6C2F                      ;	inc	bc
    1174.  01:6C2F                      ;	ld	a,(bc)
    1175.  01:6C2F  C3 24 6A            	jp	_rdc	
    1176.  01:6C32                      	
    1177.  01:6C32                      	
    1178.  01:6C32                      _CHIPcmd14_fine_up:
    1179.  01:6C32                      _CHIPcmd15_fine_down:
    1180.  01:6C32  DD 77 0E            	ld	(ix+TRACK_cmd_E),a
    1181.  01:6C35  DD 36 0F 02         	ld	(ix+TRACK_Timer),2
    1182.  01:6C39  CB DA               	set	B_TRGCMD,d		; command active
    1183.  01:6C3B                      ;	set	B_TRGCMD,(ix+TRACK_Flags)		; command active
    1184.  01:6C3B                      
    1185.  01:6C3B                      ;	inc	bc
    1186.  01:6C3B                      ;	ld	a,(bc)
    1187.  01:6C3B  C3 24 6A            	jp	_rdc	
    1188.  01:6C3E                      
    1189.  01:6C3E                      
    1190.  01:6C3E                      _CHIPcmd16_vib_ctrl:
    1191.  01:6C3E                      ;	res	B_TRGCMD,(ix+TRACK_Flags)		; command in-active
    1192.  01:6C3E  21 C0 A1            	ld	hl,TRACK_Vibrato_sine
    1193.  01:6C41  FE 01               	cp	1
    1194.  01:6C43  DA 5B 6C            	jp	c,_cmd16_sine
    1195.  01:6C46  CA 52 6C            	jp	z,_cmd16_tri
    1196.  01:6C49                      _cmd16_pulse:
    1197.  01:6C49  21 00 A2            	ld	hl,TRACK_Vibrato_pulse
    1198.  01:6C4C  22 10 C0            	ld	(replay_vib_table),hl
    1199.  01:6C4F  C3 24 6A            	jp	_rdc
    1200.  01:6C52                      _cmd16_tri:
    1201.  01:6C52  21 E0 A1            	ld	hl,TRACK_Vibrato_triangle
    1202.  01:6C55  22 10 C0            	ld	(replay_vib_table),hl
    1203.  01:6C58  C3 24 6A            	jp	_rdc	
    1204.  01:6C5B                      
    1205.  01:6C5B                      _cmd16_sine:
    1206.  01:6C5B  21 C0 A1            	ld	hl,TRACK_Vibrato_sine
    1207.  01:6C5E  22 10 C0            	ld	(replay_vib_table),hl
    1208.  01:6C61  C3 24 6A            	jp	_rdc
    1209.  01:6C64                      
    1210.  01:6C64                      
    1211.  01:6C64                      
    1212.  01:6C64                      
    1213.  01:6C64                      _CHIPcmd17_track_detune:
    1214.  01:6C64  DD CB F9 9E         	res	B_TRGCMD,(ix+TRACK_Flags)		; command in-active
    1215.  01:6C68                      	
    1216.  01:6C68                      	; This command sets the	detune of the track.
    1217.  01:6C68  5F                  	ld	e,a
    1218.  01:6C69  E6 07               	and	0x07		; low	4 bits is value
    1219.  01:6C6B  CB 5B               	bit	3,e		; Center around 8
    1220.  01:6C6D  CA 7D 6C            	jp	z,99f
    1221.  01:6C70  3C                  	inc	a
    1222.  01:6C71  ED 44               	neg			; make correct value
    1223.  01:6C73  DD 77 04            	ld	(ix+TRACK_cmd_detune),a
    1224.  01:6C76  DD 36 05 FF         	ld	(ix+TRACK_cmd_detune+1),0xff
    1225.  01:6C7A                      
    1226.  01:6C7A                      ;	inc	bc
    1227.  01:6C7A                      ;	ld	a,(bc)
    1228.  01:6C7A  C3 24 6A            	jp	_rdc	
    1229.  01:6C7D                      
    1230.  01:6C7D                      
    1231.  01:6C7D                      99:
    1232.  01:6C7D  DD 77 04            	ld	(ix+TRACK_cmd_detune),a
    1233.  01:6C80  DD 36 05 00         	ld	(ix+TRACK_cmd_detune+1),0x00	
    1234.  01:6C84                      
    1235.  01:6C84                      ;	inc	bc
    1236.  01:6C84                      ;	ld	a,(bc)
    1237.  01:6C84  C3 24 6A            	jp	_rdc	
    1238.  01:6C87                      
    1239.  01:6C87                      
    1240.  01:6C87                      	
    1241.  01:6C87                      _CHIPcmd18_transpose:
    1242.  01:6C87                      ;	jp	_rdc
    1243.  01:6C87                      
    1244.  01:6C87  5F                  	ld	e,a
    1245.  01:6C88  87                  	add	a
    1246.  01:6C89  21 00 A1            	ld	hl,TRACK_ToneTable;(replay_Tonetable)
    1247.  01:6C8C                      	; This comment sets the	detune of the track.
    1248.  01:6C8C  E6 0F               	and	15		; low	4 bits is value
    1249.  01:6C8E  CB 5B               	bit	3,e		; Center around 8
    1250.  01:6C90                      ;	ld	d,0
    1251.  01:6C90                      ;	ld	e,a
    1252.  01:6C90                      
    1253.  01:6C90  CA A1 6C            	jp	z,0f
    1254.  01:6C93                      ;neg	
    1255.  01:6C93  ED 44               	neg	
    1256.  01:6C95  85                  	add	a,l
    1257.  01:6C96  6F                  	ld	l,a
    1258.  01:6C97  D2 A1 6C            	jp	nc,0f
    1259.  01:6C9A  25                  	dec	h
    1260.  01:6C9B                      99:
    1261.  01:6C9B  22 12 C0            	ld	(replay_Tonetable),hl
    1262.  01:6C9E                      
    1263.  01:6C9E                      ;	inc	bc
    1264.  01:6C9E                      ;	ld	a,(bc)
    1265.  01:6C9E  C3 24 6A            	jp	_rdc
    1266.  01:6CA1                      ; pos
    1267.  01:6CA1                      0:	
    1268.  01:6CA1  85                  	add	a,l
    1269.  01:6CA2  6F                  	ld	l,a
    1270.  01:6CA3  D2 BB 6C            	jp	nc,0f
    1271.  01:6CA6  24                  	inc	h
    1272.  01:6CA7                      99:
    1273.  01:6CA7  22 12 C0            	ld	(replay_Tonetable),hl
    1274.  01:6CAA                      ;	inc	bc
    1275.  01:6CAA                      ;	ld	a,(bc)
    1276.  01:6CAA  C3 24 6A            	jp	_rdc
    1277.  01:6CAD                      
    1278.  01:6CAD                      _CHIPcmdXX_note_cut:
    1279.  01:6CAD  CB DA               	set	B_TRGCMD,d
    1280.  01:6CAF  3C                  	inc	a
    1281.  01:6CB0  DD 77 0F            	ld	(ix+TRACK_Timer),a		; set	the timer to param y
    1282.  01:6CB3  C3 24 6A            	jp 	_rdc
    1283.  01:6CB6                      
    1284.  01:6CB6                      
    1285.  01:6CB6                      _CHIPcmd19_note_delay:
    1286.  01:6CB6  CB 42               	bit	B_TRGNOT,d		; is there a note	in this eventstep?
    1287.  01:6CB8                      ;	bit	B_TRGNOT,(ix+TRACK_Flags)		; is there a note	in this eventstep?
    1288.  01:6CB8  CA 24 6A            	jp	z,_rdc
    1289.  01:6CBB                      
    1290.  01:6CBB                      	
    1291.  01:6CBB                      0:	
    1292.  01:6CBB  CB DA               	set	B_TRGCMD,d					; command active
    1293.  01:6CBD                      ;	set	B_TRGCMD,(ix+TRACK_Flags)		; command active
    1294.  01:6CBD                      ;	and	0x0f
    1295.  01:6CBD  3C                  	inc	a
    1296.  01:6CBE  DD 77 0F            	ld	(ix+TRACK_Timer),a			; set	the timer to param y
    1297.  01:6CC1  DD 7E F7            	ld	a,(ix+TRACK_Note)
    1298.  01:6CC4  DD 77 0E            	ld	(ix+TRACK_cmd_E),a			; store the	new note
    1299.  01:6CC7  3A 0E C0            	ld	a,(replay_previous_note)
    1300.  01:6CCA  DD 77 F7            	ld	(ix+TRACK_Note),a				; restore the old	note
    1301.  01:6CCD  DD CB F9 86         	res	B_TRGNOT,(ix+TRACK_Flags)		; reset any	triggernote
    1302.  01:6CD1                      
    1303.  01:6CD1                      ;	inc	bc
    1304.  01:6CD1                      ;	ld	a,(bc)
    1305.  01:6CD1  C3 24 6A            	jp	_rdc	
    1306.  01:6CD4                      
    1307.  01:6CD4                      
    1308.  01:6CD4                      
    1309.  01:6CD4                      _CHIPcmd1A_trigger:
    1310.  01:6CD4                      ;	res	B_TRGCMD,(ix+TRACK_Flags)		; command in-active
    1311.  01:6CD4  32 01 C0            	ld	(replay_trigger),a
    1312.  01:6CD7                      	
    1313.  01:6CD7                      ;	inc	bc
    1314.  01:6CD7                      ;	ld	a,(bc)
    1315.  01:6CD7  C3 24 6A            	jp	_rdc		
    1316.  01:6CDA                      
    1317.  01:6CDA                      
    1318.  01:6CDA                      
    1319.  01:6CDA                      _CHIPcmd1B_speed:
    1320.  01:6CDA                      ;	res	B_TRGCMD,(ix+TRACK_Flags)		; command in-active
    1321.  01:6CDA  32 0A C0            	ld	(replay_speed),a
    1322.  01:6CDD                      	;--- Reset Timer == 0
    1323.  01:6CDD  CB 3F               	srl	a				; divide speed with 2
    1324.  01:6CDF  5F                  	ld	e,a
    1325.  01:6CE0  3E 00               	ld	a,0				
    1326.  01:6CE2  8F                  	adc	a				; store carry of shift as subtimer
    1327.  01:6CE3  32 0B C0            	ld	(replay_speed_subtimer),a
    1328.  01:6CE6  83                  	add	a,e
    1329.  01:6CE7  32 0C C0            	ld	(replay_speed_timer),a
    1330.  01:6CEA                      
    1331.  01:6CEA                      ;	inc	bc
    1332.  01:6CEA                      ;	ld	a,(bc)
    1333.  01:6CEA  C3 24 6A            	jp	_rdc	
    1334.  01:6CED                      	
    1335.  01:6CED                      
    1336.  01:6CED                      
    1337.  01:6CED                      _CHIPcmd1C_call:
    1338.  01:6CED                      _CHIPcmd1D_ret:
    1339.  01:6CED                      ;	res	B_TRGCMD,(ix+TRACK_Flags)		; command in-active
    1340.  01:6CED                      	;< not implemented yet>
    1341.  01:6CED  0B                  	dec 	bc
    1342.  01:6CEE  C3 24 6A            	jp	_rdc	
    1343.  01:6CF1                      
    1344.  01:6CF1                      
    1345.  01:6CF1                      
    1346.  01:6CF1                      
    1347.  01:6CF1                      _CHIPcmd0_RE_arpeggio:
    1348.  01:6CF1  DD 36 0F 00         	ld	(ix+TRACK_Timer),0
    1349.  01:6CF5                      	
    1350.  01:6CF5                      _CHIPcmd1_RE_port_up:	
    1351.  01:6CF5                      _CHIPcmd2_RE_port_down:
    1352.  01:6CF5                      _CHIPcmd4_RE_vibrato:
    1353.  01:6CF5  CB DA               	set	B_TRGCMD,d
    1354.  01:6CF7                      ;	set	B_TRGCMD,(ix+TRACK_Flags)
    1355.  01:6CF7                      	
    1356.  01:6CF7                      	;dec	bc
    1357.  01:6CF7  DD 77 13            	ld	(ix+TRACK_Retrig),a
    1358.  01:6CFA  C3 24 6A            	jp	_rdc		
    1359.  01:6CFD                      	
    1360.  01:6CFD                      _CHIPcmd5_RE_vibrato_port_tone:
    1361.  01:6CFD                      _CHIPcmd6_RE_vibrato_vol:
    1362.  01:6CFD                      _CHIPcmd7_RE_vol_slide:
    1363.  01:6CFD  CB DA               	set	B_TRGCMD,d
    1364.  01:6CFF                      ;	set	B_TRGCMD,(ix+TRACK_Flags)
    1365.  01:6CFF  DD 36 0F 01         	ld	(ix+TRACK_Timer),1
    1366.  01:6D03                      	;dec	bc
    1367.  01:6D03  DD 77 13            	ld	(ix+TRACK_Retrig),a
    1368.  01:6D06  C3 24 6A            	jp	_rdc
    1369.  01:6D09                      	
    1370.  01:6D09                      		
    1371.  01:6D09                      _CHIPcmd8_RE_macro_offset:	
    1372.  01:6D09  CB DA               	set	B_TRGCMD,d
    1373.  01:6D0B                      ;	set	B_TRGCMD,(ix+TRACK_Flags)
    1374.  01:6D0B  DD 36 0F 02         	ld	(ix+TRACK_Timer),2
    1375.  01:6D0F                      	
    1376.  01:6D0F                      	;dec	bc
    1377.  01:6D0F  DD 77 13            	ld	(ix+TRACK_Retrig),a
    1378.  01:6D12  C3 24 6A            	jp	_rdc			
    1379.  01:6D15                      
    1380.  01:6D15                      
    1381.  01:6D15                      
    1382.  01:6D15                      _CHIPcmd9_RE_env_shape:
    1383.  01:6D15  CB D2               	set	B_TRGENV,d
    1384.  01:6D17                      ;	set	B_TRGENV,(IX+TRACK_Flags)
    1385.  01:6D17                      	
    1386.  01:6D17                      	;dec	bc
    1387.  01:6D17  DD 77 13            	ld	(ix+TRACK_Retrig),a
    1388.  01:6D1A  C3 24 6A            	jp	_rdc	
    1389.  01:6D1D                      
    1390.  01:6D1D                      
    1391.  01:6D1D                      
    1392.  01:6D1D                      
    1393.  01:6D1D                      
    1394.  01:6D1D                      ;===========================================================
    1395.  01:6D1D                      ; ---replay_route
    1396.  01:6D1D                      ; Output the data	to the CHIP	registers
    1397.  01:6D1D                      ; 
    1398.  01:6D1D                      ; in HL is the current tone freq
    1399.  01:6D1D                      ; in D is TRACK_FLAGS  
    1400.  01:6D1D                      ;===========================================================
    1401.  01:6D1D                      replay_process_chan_AY:
    1402.  01:6D1D                      
    1403.  01:6D1D                      	;-- set the	mixer	right
    1404.  01:6D1D  21 36 C2            	ld	hl,SCC_regMIXER   
    1405.  01:6D20  CB 3E               	srl	(hl)
    1406.  01:6D22                      
    1407.  01:6D22                      	;=====
    1408.  01:6D22                      	; COMMAND
    1409.  01:6D22                      	;=====
    1410.  01:6D22  CB 5A               	bit	B_TRGCMD,d	;(ix+TRACK_Flags)
    1411.  01:6D24  CA 39 6D            	jp	z,_pcAY_noCommand
    1412.  01:6D27                      	
    1413.  01:6D27  21 76 6E            	ld	hl,_pcAY_cmdlist-26
    1414.  01:6D2A  DD 7E F1            	ld	a,(ix+TRACK_Command)
    1415.  01:6D2D  87                  	add	a
    1416.  01:6D2E  85                  	add	a,l
    1417.  01:6D2F  6F                  	ld	l,a
    1418.  01:6D30  D2 34 6D            	jp	nc,99f
    1419.  01:6D33  24                  	inc	h
    1420.  01:6D34                      99:
    1421.  01:6D34  7E                  	ld	a,(hl)
    1422.  01:6D35  23                  	inc	hl
    1423.  01:6D36  66                  	ld	h,(hl)
    1424.  01:6D37  6F                  	ld	l,a	
    1425.  01:6D38  E9                  	jp	(hl)
    1426.  01:6D39                      	
    1427.  01:6D39                      _pcAY_noCommand:	
    1428.  01:6D39                      _pcAY_commandEND:
    1429.  01:6D39                      
    1430.  01:6D39                      	;=====
    1431.  01:6D39                      	; NOTE
    1432.  01:6D39                      	;=====
    1433.  01:6D39                      	;--- Check if we need to trigger a new note
    1434.  01:6D39  CB 42               	bit	B_TRGNOT,d	;(ix+TRACK_Flags)
    1435.  01:6D3B  CA 62 6D            	jp	z,_pcAY_noNoteTrigger
    1436.  01:6D3E                      	
    1437.  01:6D3E                      
    1438.  01:6D3E                      _pcAY_triggerNote:	
    1439.  01:6D3E                      	;--- get new Note
    1440.  01:6D3E  CB 82               	res	B_TRGNOT,d		;(ix+TRACK_Flags)		; reset trigger note flag
    1441.  01:6D40  CB CA               	set	B_ACTNOT,d		;(ix+TRACK_Flags)		; set	note active	flag
    1442.  01:6D42                      
    1443.  01:6D42  DD 6E F4            	ld	l,(ix+TRACK_MacroStart)
    1444.  01:6D45  DD 66 F5            	ld	h,(ix+TRACK_MacroStart+1)
    1445.  01:6D48                      	;--- Store the macro start	
    1446.  01:6D48  DD 75 F2            	ld	(ix+TRACK_MacroPointer),l
    1447.  01:6D4B  DD 74 F3            	ld	(ix+TRACK_MacroPointer+1),h	
    1448.  01:6D4E                      
    1449.  01:6D4E                      ;	; init macrostep but check for cmd9
    1450.  01:6D4E                      ;	ld	b,0
    1451.  01:6D4E                      ;	bit	B_TRGCMD,(ix+TRACK_Flags)
    1452.  01:6D4E                      ;	jp	z,99f
    1453.  01:6D4E                      ;	ld	a,0x09		; Macro offset
    1454.  01:6D4E                      ;	cp	(ix+TRACK_Command)
    1455.  01:6D4E                      ;	jp	nz,99f
    1456.  01:6D4E                      ;	ld	b,(ix+TRACK_cmd_9)
    1457.  01:6D4E                      ;99:	ld	(ix+TRACK_MacroStep),b
    1458.  01:6D4E                      
    1459.  01:6D4E  21 00 00            	ld	hl,0
    1460.  01:6D51  ED 73 00 C0         	ld	(_SP_Storage),sp
    1461.  01:6D55  DD F9               	ld	sp,ix
    1462.  01:6D57  F1                  	pop	af
    1463.  01:6D58  F1                  	pop	af
    1464.  01:6D59  E5                  	push	hl
    1465.  01:6D5A  E5                  	push	hl		
    1466.  01:6D5B  E5                  	push	hl
    1467.  01:6D5C  E5                  	push	hl
    1468.  01:6D5D  E5                  	push	hl
    1469.  01:6D5E                      	
    1470.  01:6D5E  ED 7B 00 C0         	ld	sp,(_SP_Storage)
    1471.  01:6D62                      ;	ld	(ix+TRACK_ToneAdd),0
    1472.  01:6D62                      ;	ld	(ix+TRACK_ToneAdd+1),0
    1473.  01:6D62                      ;	ld	(ix+TRACK_VolumeAdd),0	
    1474.  01:6D62                      ;	ld	(ix+TRACK_cmd_ToneAdd),0
    1475.  01:6D62                      ;	ld	(ix+TRACK_cmd_ToneAdd+1),0
    1476.  01:6D62                      ;	ld	(ix+TRACK_cmd_VolumeAdd),0
    1477.  01:6D62                      ;	ld	(ix+TRACK_Noise),0
    1478.  01:6D62                      ;	ld	(ix+TRACK_cmd_ToneSlideAdd),0
    1479.  01:6D62                      ;	ld	(ix+TRACK_cmd_ToneSlideAdd+1),0
    1480.  01:6D62                      
    1481.  01:6D62                      _pcAY_noNoteTrigger:
    1482.  01:6D62                      	;Get note freq
    1483.  01:6D62  DD 7E F7            	ld	a,(ix+TRACK_Note)
    1484.  01:6D65  DD 86 0B            	add	a,(ix+TRACK_cmd_NoteAdd)
    1485.  01:6D68  87                  	add	a
    1486.  01:6D69  08                  	ex	af,af'			;'store the	note offset
    1487.  01:6D6A  DD 36 0B 00         	ld	(ix+TRACK_cmd_NoteAdd),0	
    1488.  01:6D6E                      	
    1489.  01:6D6E                      
    1490.  01:6D6E                      	;==============
    1491.  01:6D6E                      	; Macro instrument
    1492.  01:6D6E                      	;==============
    1493.  01:6D6E  CB 4A               	bit	B_ACTNOT,d			;(ix+TRACK_Flags)
    1494.  01:6D70  CA 6D 6E            	jp	z,_pcAY_noNoteActive
    1495.  01:6D73                      	
    1496.  01:6D73                      ;	ld	(_SP_Storage),SP
    1497.  01:6D73                      ;	
    1498.  01:6D73                      ;	;--- Get the macro len and loop
    1499.  01:6D73  DD 6E F2            	ld	l,(ix+TRACK_MacroPointer)
    1500.  01:6D76  DD 66 F3            	ld	h,(ix+TRACK_MacroPointer+1)
    1501.  01:6D79                      
    1502.  01:6D79  5E                  	ld	e,(hl)				; info byte
    1503.  01:6D7A  23                  	inc	hl
    1504.  01:6D7B  CB 43               	bit	0,e					; Volume change
    1505.  01:6D7D  C2 86 6D            	jp	nz,_vol_change
    1506.  01:6D80  DD 7E FD            	ld	a,(ix+TRACK_VolumeAdd)
    1507.  01:6D83  C3 B0 6D            	jp	_noEnv
    1508.  01:6D86                      	
    1509.  01:6D86                      	;--- Volume change
    1510.  01:6D86                      _vol_change:
    1511.  01:6D86  7E                  	ld	a,(hl)
    1512.  01:6D87  23                  	inc	hl
    1513.  01:6D88                      	
    1514.  01:6D88  CB 4B               	bit	1,e
    1515.  01:6D8A  CA A0 6D            	jp	z,_vol_base
    1516.  01:6D8D                      _vol_rel:
    1517.  01:6D8D  DD 86 FD            	add	 (ix+TRACK_VolumeAdd)
    1518.  01:6D90  FE 10               	cp	16
    1519.  01:6D92  DA A0 6D            	jp	c,_vol_base
    1520.  01:6D95  FE 80               	cp	128
    1521.  01:6D97  DA 9F 6D            	jp	c,1f
    1522.  01:6D9A  3E 0F               	ld	a,$0f
    1523.  01:6D9C  C3 A0 6D            	jp	_vol_base
    1524.  01:6D9F  AF                  1:	xor	a
    1525.  01:6DA0                      _vol_base:
    1526.  01:6DA0  DD 77 FD            	ld	(ix+TRACK_VolumeAdd),a
    1527.  01:6DA3                      
    1528.  01:6DA3                      	;---- envelope check
    1529.  01:6DA3                      	; is done here to be able to continue
    1530.  01:6DA3                      	; macro volume values.
    1531.  01:6DA3  CB 52               	bit	B_TRGENV,d		;'(IX+TRACK_Flags)
    1532.  01:6DA5  CA B0 6D            	jp	z,_noEnv		; if not set then normal volume calculation
    1533.  01:6DA8  3E 10               	ld	a,16			; set volume to 16 == envelope
    1534.  01:6DAA  32 35 C2            	ld	(SCC_regVOLE),a
    1535.  01:6DAD  C3 DE 6D            	jp	_noVolume	
    1536.  01:6DB0                      	
    1537.  01:6DB0                      _noEnv:
    1538.  01:6DB0  DD 86 FF            	add 	a,(ix+TRACK_cmd_VolumeAdd)
    1539.  01:6DB3  FE 80               	cp  	128
    1540.  01:6DB5  DA BC 6D            	jp 	c,1f
    1541.  01:6DB8  AF                  	xor 	a
    1542.  01:6DB9  C3 C3 6D            	jp 	2f
    1543.  01:6DBC  FE 10               1:  	cp 	16
    1544.  01:6DBE  DA C3 6D            	jp 	c,2f
    1545.  01:6DC1  3E 0F                	ld 	a,$f
    1546.  01:6DC3                      2:
    1547.  01:6DC3  DD B6 F8            	or	(ix+TRACK_Volume)
    1548.  01:6DC6                      	
    1549.  01:6DC6                      ;	;--- make this faster precalculate
    1550.  01:6DC6                      ;	ld	c,a
    1551.  01:6DC6                      ;	ld	a,(IX+TRACK_cmd_VolumeAdd)	
    1552.  01:6DC6                      ;	rla						; C flag contains devitation bit (C flag was reset in the previous OR)
    1553.  01:6DC6                      ;	jp	c,_sub_Vadd
    1554.  01:6DC6                      ;_add_Vadd:
    1555.  01:6DC6                      ;	add	a,c
    1556.  01:6DC6                      ;	jp	nc,_Vadd
    1557.  01:6DC6                      ;	ld	a,c
    1558.  01:6DC6                      ;	or	0xf0
    1559.  01:6DC6                      ;	jp	_Vadd
    1560.  01:6DC6                      ;_sub_Vadd:
    1561.  01:6DC6                      ;	ld	b,a
    1562.  01:6DC6                      ;	xor	a
    1563.  01:6DC6                      ;	sub	b
    1564.  01:6DC6                      ;	ld	b,a
    1565.  01:6DC6                      ;	ld	a,c
    1566.  01:6DC6                      ;	sub	a,b
    1567.  01:6DC6                      ;	jp	nc,_Vadd
    1568.  01:6DC6                      ;	ld	a,c
    1569.  01:6DC6                      ;	and	0x0f	
    1570.  01:6DC6                      
    1571.  01:6DC6                      	;-- next is _Vadd
    1572.  01:6DC6                      _Vadd:
    1573.  01:6DC6                      ;	;--- apply main volume balance
    1574.  01:6DC6                      ;	ld	hl,replay_mainvol
    1575.  01:6DC6                      ;	CP	(HL)
    1576.  01:6DC6                      ;	JP	C,88F
    1577.  01:6DC6                      ;	sub	(hl)
    1578.  01:6DC6                      ;	jp	99f
    1579.  01:6DC6                      ;88:	xor	a
    1580.  01:6DC6                      ;99:	
    1581.  01:6DC6                      ;	ld	l,a
    1582.  01:6DC6                      ;	ld	h,0
    1583.  01:6DC6  01 00 A0            	ld	bc,_VOLUME_TABLE
    1584.  01:6DC9  81                  	add	a,c
    1585.  01:6DCA  4F                  	ld	c,a
    1586.  01:6DCB  D2 CF 6D            	jp	nc,99f
    1587.  01:6DCE  04                  	inc	b
    1588.  01:6DCF                      99:
    1589.  01:6DCF  0A                  	ld	a,(bc)	
    1590.  01:6DD0                      	; Test which CHIP.
    1591.  01:6DD0  CB 7A               	bit	B_PSGSCC,d		;(ix+TRACK_Flags)
    1592.  01:6DD2  C2 D9 6D            	jp	nz,99f
    1593.  01:6DD5  1F                  	rra
    1594.  01:6DD6  1F                  	rra
    1595.  01:6DD7  1F                  	rra
    1596.  01:6DD8  1F                  	rra
    1597.  01:6DD9                      99:
    1598.  01:6DD9  E6 0F               	and	0x0f
    1599.  01:6DDB  32 35 C2            	ld	(SCC_regVOLE),a
    1600.  01:6DDE                      
    1601.  01:6DDE                      _noVolume:
    1602.  01:6DDE                      	;-------------------------------
    1603.  01:6DDE                      	;
    1604.  01:6DDE                      	; NOISE
    1605.  01:6DDE                      	;
    1606.  01:6DDE                      	;-------------------------------
    1607.  01:6DDE  CB 7B               	bit 	7,e			; test if noise
    1608.  01:6DE0  CA 05 6E            	jp	z,_noNoise
    1609.  01:6DE3                      	
    1610.  01:6DE3                      	;--- prevent SCC and noise
    1611.  01:6DE3  CB 7A               	bit	B_PSGSCC,d		;(ix+TRACK_Flags)
    1612.  01:6DE5  C2 05 6E            	jp	nz,_noNoise
    1613.  01:6DE8                      
    1614.  01:6DE8                      	;--- Set the mixer for noise
    1615.  01:6DE8  3A 36 C2            	ld	a,(SCC_regMIXER)
    1616.  01:6DEB  F6 80               	or	128
    1617.  01:6DED  32 36 C2            	ld	(SCC_regMIXER),a
    1618.  01:6DF0                      
    1619.  01:6DF0  CB 6B               	bit	5,e
    1620.  01:6DF2  CA 05 6E            	jp	z,_noNoise
    1621.  01:6DF5  7E                  	ld	a,(hl)	; get	the deviation	
    1622.  01:6DF6  23                  	inc	hl
    1623.  01:6DF7  CB 73               	bit	6,e
    1624.  01:6DF9  CA FF 6D            	jp	z,99f
    1625.  01:6DFC  DD 86 FE            	add	(ix+TRACK_Noise)
    1626.  01:6DFF  DD 77 FE            99:	ld	(ix+TRACK_Noise),a
    1627.  01:6E02  32 9F C1            	ld	(AY_regNOISE),a
    1628.  01:6E05                      _noNoise:
    1629.  01:6E05                      	;-------------------------------
    1630.  01:6E05                      	;
    1631.  01:6E05                      	; TONE
    1632.  01:6E05                      	;
    1633.  01:6E05                      	;-------------------------------
    1634.  01:6E05  CB 63               	bit	4,e		; do we have tone?
    1635.  01:6E07  CA 12 6E            	jp	z,_pcAY_noTone
    1636.  01:6E0A                      
    1637.  01:6E0A                      	;-- enable tone output
    1638.  01:6E0A  3A 36 C2            	ld	a,(SCC_regMIXER)
    1639.  01:6E0D  F6 10               	or	16
    1640.  01:6E0F  32 36 C2            	ld	(SCC_regMIXER),a
    1641.  01:6E12                      _pcAY_noTone:
    1642.  01:6E12  DD 46 FB            	ld	b,(ix+TRACK_ToneAdd)	; get	the current	deviation	
    1643.  01:6E15  DD 4E FC            	ld	c,(ix+TRACK_ToneAdd+1)
    1644.  01:6E18                      
    1645.  01:6E18  CB 53               	bit	2,e
    1646.  01:6E1A  CA 2F 6E            	jp	z,_pcAY_noToneAdd
    1647.  01:6E1D  7E                  	ld	a,(hl)
    1648.  01:6E1E  23                  	inc	hl
    1649.  01:6E1F  81                  	add	c
    1650.  01:6E20  4F                  	ld	c,a
    1651.  01:6E21  DD 71 FC            	ld	(ix+TRACK_ToneAdd+1),c
    1652.  01:6E24  D2 28 6E            	jp	nc,99f
    1653.  01:6E27  04                  	inc	b
    1654.  01:6E28  7E                  99:	ld	a,(hl)
    1655.  01:6E29  23                  	inc	hl
    1656.  01:6E2A  80                  	add	b
    1657.  01:6E2B  47                  	ld	b,a
    1658.  01:6E2C  DD 70 FB            	ld	(ix+TRACK_ToneAdd),b
    1659.  01:6E2F                      _pcAY_noToneAdd:	
    1660.  01:6E2F  DD 75 F2            	ld	(ix+TRACK_MacroPointer),l	;--- store pointer for next time
    1661.  01:6E32  DD 74 F3            	ld	(ix+TRACK_MacroPointer+1),h	
    1662.  01:6E35                      
    1663.  01:6E35  08                  	ex	af,af'			;';restore note offset
    1664.  01:6E36  2A 12 C0            	ld	hl,(replay_Tonetable)
    1665.  01:6E39  85                  	add	a,l
    1666.  01:6E3A  6F                  	ld	l,a
    1667.  01:6E3B  D2 3F 6E            	jp	nc,99f
    1668.  01:6E3E  24                  	inc	h
    1669.  01:6E3F                      99:
    1670.  01:6E3F  7E                  	ld	a,(hl)	;--- Store the note tone value in hl
    1671.  01:6E40  23                  	inc	hl
    1672.  01:6E41  66                  	ld	h,(hl)
    1673.  01:6E42  6F                  	ld	l,a
    1674.  01:6E43                      		
    1675.  01:6E43  09                  	add	hl,bc		;--- Store tone deviation		
    1676.  01:6E44                      
    1677.  01:6E44                      	; set	the detune.
    1678.  01:6E44  ED 73 00 C0         	ld	(_SP_Storage),sp
    1679.  01:6E48  DD F9               	ld	sp,ix
    1680.  01:6E4A  C1                  	pop	bc		; cmd detume
    1681.  01:6E4B  09                  	add	hl,bc
    1682.  01:6E4C  C1                  	pop	bc		; cmd toneadd
    1683.  01:6E4D  09                  	add	hl,bc
    1684.  01:6E4E  C1                  	pop	bc		; cmd tone slide add
    1685.  01:6E4F  09                  	add	hl,bc
    1686.  01:6E50  ED 7B 00 C0         	ld	sp,(_SP_Storage)
    1687.  01:6E54                      ;	ld	c,(ix+TRACK_cmd_detune)
    1688.  01:6E54                      ;	ld	b,(ix+TRACK_cmd_detune+1)
    1689.  01:6E54                      ;	add	hl,bc
    1690.  01:6E54                      ;
    1691.  01:6E54                      ;	ld	c,(ix+TRACK_cmd_ToneAdd)
    1692.  01:6E54                      ;	ld	b,(ix+TRACK_cmd_ToneAdd+1)
    1693.  01:6E54                      ;	add	hl,bc
    1694.  01:6E54                      ;	
    1695.  01:6E54                      ;	ld	c,(ix+TRACK_cmd_ToneSlideAdd)
    1696.  01:6E54                      ;	ld	b,(ix+TRACK_cmd_ToneSlideAdd+1)
    1697.  01:6E54                      ;	
    1698.  01:6E54                      ;	add	hl,bc
    1699.  01:6E54                      
    1700.  01:6E54                      	;-------------------------------
    1701.  01:6E54                      	;
    1702.  01:6E54                      	; END of macro?
    1703.  01:6E54                      	;
    1704.  01:6E54                      	;-------------------------------
    1705.  01:6E54  CB 5B               	bit	3,e		
    1706.  01:6E56  C8                  	ret	z
    1707.  01:6E57                      	
    1708.  01:6E57                      	;--- now get new pointer
    1709.  01:6E57  DD 4E F4            	ld	c,(ix+TRACK_MacroStart)
    1710.  01:6E5A  DD 46 F5            	ld	b,(ix+TRACK_MacroStart+1)
    1711.  01:6E5D                      	
    1712.  01:6E5D  DD 7E F6            	ld	a,(ix+TRACK_MacroRestart)	
    1713.  01:6E60  81                  	add	a,c
    1714.  01:6E61  4F                  	ld	c,a
    1715.  01:6E62  D2 66 6E            	jp	nc,99f
    1716.  01:6E65  04                  	inc	b
    1717.  01:6E66                      99:		
    1718.  01:6E66                      	;--- Store the macro start	
    1719.  01:6E66  DD 71 F2            	ld	(ix+TRACK_MacroPointer),c
    1720.  01:6E69  DD 70 F3            	ld	(ix+TRACK_MacroPointer+1),b		
    1721.  01:6E6C                      
    1722.  01:6E6C  C9                  	ret
    1723.  01:6E6D                      	
    1724.  01:6E6D                      _pcAY_noNoteActive:
    1725.  01:6E6D  AF                  	xor	a
    1726.  01:6E6E  32 35 C2            	ld	(SCC_regVOLE),a
    1727.  01:6E71  C9                  	ret	
    1728.  01:6E72                      	
    1729.  01:6E72                      stop_debug:
    1730.  01:6E72  76                  	halt
    1731.  01:6E73  C3 72 6E            	jp	stop_debug	
    1732.  01:6E76                      	
    1733.  01:6E76                      PROCESS_CMDLIST:	
    1734.  01:6E76                      [13]	dw 	stop_debug
    1734.  01:6E76  72 6E 72 6E 72 6E 72 6E 72 6E 72 6E 72 6E 72 6E 
    1734.  01:6E86  72 6E 72 6E 72 6E 72 6E 72 6E 
    1735.  01:6E90                      
    1736.  01:6E90                      _pcAY_cmdlist:
    1737.  01:6E90  F4 6F               	dw	_pcAY_cmdc_wave_duty		;d
    1738.  01:6E92  21 70               	dw	_pcAY_cmdd_wave_cut		;e
    1739.  01:6E94  62 70               	dw	_pcAY_cmde_wave_compr		;f
    1740.  01:6E96  B1 70               	dw	_pcAY_cmd13_short_arp		;10
    1741.  01:6E98  C2 70               	dw	_pcAY_cmd14_fine_up		;11
    1742.  01:6E9A  DC 70               	dw	_pcAY_cmd15_fine_down		;12
    1743.  01:6E9C  03 71               	dw	_pcAY_cmd19_note_delay		;13
    1744.  01:6E9E  F6 70               	dw	_pcAY_cmdXX_note_cut		;14
    1745.  01:6EA0                      	
    1746.  01:6EA0  C6 6E               	dw	_pcAY_cmd0_arpeggio		;15
    1747.  01:6EA2  FD 6E               	dw	_pcAY_cmd1_port_up		;16
    1748.  01:6EA4  11 6F               	dw	_pcAY_cmd2_port_down		;17
    1749.  01:6EA6  25 6F               	dw	_pcAY_cmd3_port_tone		;18
    1750.  01:6EA8  66 6F               	dw	_pcAY_cmd4_vibrato		;19
    1751.  01:6EAA  B0 6F               	dw	_pcAY_cmd5_vibrato_port_tone	;1a
    1752.  01:6EAC  B6 6F               	dw	_pcAY_cmd6_vibrato_vol		;1b
    1753.  01:6EAE  BC 6F               	dw	_pcAY_cmd7_vol_slide		;1c
    1754.  01:6EB0  E9 6F               	dw	_pcAY_cmd8_macro_offset		;1d
    1755.  01:6EB2  00 00               	dw	0	;env shape
    1756.  01:6EB4                      
    1757.  01:6EB4  C6 6E               	dw	_pcAY_cmd0_arpeggio		;1e
    1758.  01:6EB6  FD 6E               	dw	_pcAY_cmd1_port_up		;1f
    1759.  01:6EB8  11 6F               	dw	_pcAY_cmd2_port_down		;20
    1760.  01:6EBA  25 6F               	dw	_pcAY_cmd3_port_tone		;21
    1761.  01:6EBC  66 6F               	dw	_pcAY_cmd4_vibrato
    1762.  01:6EBE  B0 6F               	dw	_pcAY_cmd5_vibrato_port_tone
    1763.  01:6EC0  B6 6F               	dw	_pcAY_cmd6_vibrato_vol
    1764.  01:6EC2  BC 6F               	dw	_pcAY_cmd7_vol_slide
    1765.  01:6EC4  E9 6F               	dw	_pcAY_cmd8_macro_offset
    1766.  01:6EC6                      
    1767.  01:6EC6                      
    1768.  01:6EC6                      			
    1769.  01:6EC6                      _pcAY_cmd0_arpeggio:
    1770.  01:6EC6  DD 7E 0F            	ld	a,(ix+TRACK_Timer)
    1771.  01:6EC9  CB 47               	bit	0,a
    1772.  01:6ECB  CA E2 6E            	jp	z,99f
    1773.  01:6ECE                      
    1774.  01:6ECE                      	;--- set x
    1775.  01:6ECE  DD 36 0F 02         		ld	(ix+TRACK_Timer),2
    1776.  01:6ED2  AF                  		xor	a
    1777.  01:6ED3  DD 7E 05            		ld	a,(ix+TRACK_cmd_0)
    1778.  01:6ED6  E6 F0               		and	0xf0
    1779.  01:6ED8  1F                  		rra
    1780.  01:6ED9  1F                  		rra
    1781.  01:6EDA  1F                  		rra
    1782.  01:6EDB  1F                  		rra
    1783.  01:6EDC  DD 77 0B            		ld	(ix+TRACK_cmd_NoteAdd),a		
    1784.  01:6EDF  C3 39 6D            		jp	_pcAY_commandEND
    1785.  01:6EE2                      
    1786.  01:6EE2                      	
    1787.  01:6EE2                      99:
    1788.  01:6EE2  CB 4F               	bit	1,a
    1789.  01:6EE4  CA F6 6E            	jp	z,99f
    1790.  01:6EE7                      
    1791.  01:6EE7                      	;--- set y
    1792.  01:6EE7  DD 36 0F 00         		ld	(ix+TRACK_Timer),0
    1793.  01:6EEB  DD 7E 05            		ld	a,(ix+TRACK_cmd_0)
    1794.  01:6EEE  E6 0F               		and	0x0f
    1795.  01:6EF0  DD 77 0B            		ld	(ix+TRACK_cmd_NoteAdd),a		
    1796.  01:6EF3  C3 39 6D            		jp	_pcAY_commandEND
    1797.  01:6EF6                      	
    1798.  01:6EF6                      99:
    1799.  01:6EF6                      	;--- set none
    1800.  01:6EF6  DD 36 0F 01         	ld	(ix+TRACK_Timer),1
    1801.  01:6EFA  C3 39 6D            	jp	_pcAY_commandEND
    1802.  01:6EFD                      	
    1803.  01:6EFD                      	
    1804.  01:6EFD                      	
    1805.  01:6EFD                      	
    1806.  01:6EFD                      _pcAY_cmd1_port_up:
    1807.  01:6EFD  DD 7E 06            	ld	a,(ix+TRACK_cmd_1)
    1808.  01:6F00  47                  	ld	b,a
    1809.  01:6F01  DD 7E 00            	ld	a,(ix+TRACK_cmd_ToneSlideAdd)
    1810.  01:6F04  90                  	sub	b
    1811.  01:6F05  DD 77 00            	ld	(ix+TRACK_cmd_ToneSlideAdd),a
    1812.  01:6F08  D2 39 6D            	jp	nc,_pcAY_commandEND
    1813.  01:6F0B  DD 35 01            	dec	(ix+TRACK_cmd_ToneSlideAdd+1)
    1814.  01:6F0E  C3 39 6D            	jp	_pcAY_commandEND
    1815.  01:6F11                      	
    1816.  01:6F11                      _pcAY_cmd2_port_down:
    1817.  01:6F11  DD 7E 07            	ld	a,(ix+TRACK_cmd_2)
    1818.  01:6F14  47                  	ld	b,a
    1819.  01:6F15  DD 7E 00            	ld	a,(ix+TRACK_cmd_ToneSlideAdd)
    1820.  01:6F18  80                  	add	b
    1821.  01:6F19  DD 77 00            	ld	(ix+TRACK_cmd_ToneSlideAdd),a
    1822.  01:6F1C  D2 39 6D            	jp	nc,_pcAY_commandEND
    1823.  01:6F1F  DD 34 01            	inc	(ix+TRACK_cmd_ToneSlideAdd+1)
    1824.  01:6F22  C3 39 6D            	jp	_pcAY_commandEND
    1825.  01:6F25                      
    1826.  01:6F25                      
    1827.  01:6F25                      _pcAY_cmd3_port_tone:
    1828.  01:6F25  DD 7E 08            	ld	a,(ix+TRACK_cmd_3)
    1829.  01:6F28  DD 6E 00            	ld	l,(ix+TRACK_cmd_ToneSlideAdd)
    1830.  01:6F2B  DD 66 01            	ld	h,(ix+TRACK_cmd_ToneSlideAdd+1)
    1831.  01:6F2E  CB 7C               	bit	7,h
    1832.  01:6F30  CA 46 6F            	jp	z,_pcAY_cmd3_sub
    1833.  01:6F33                      _pcAY_cmd3_add:
    1834.  01:6F33                      	;pos slide
    1835.  01:6F33  85                  	add	a,l
    1836.  01:6F34  DD 77 00            	ld	(ix+TRACK_cmd_ToneSlideAdd),a
    1837.  01:6F37  D2 39 6D            	jp	nc,_pcAY_commandEND
    1838.  01:6F3A  24                  	inc	h					
    1839.  01:6F3B  CB 7C               	bit	7,h
    1840.  01:6F3D  CA 59 6F            	jp	z,_pcAY_cmd3_stop			; delta turned pos ?
    1841.  01:6F40  DD 74 01            	ld	(ix+TRACK_cmd_ToneSlideAdd+1),h
    1842.  01:6F43  C3 39 6D            	jp	_pcAY_commandEND
    1843.  01:6F46                      _pcAY_cmd3_sub:
    1844.  01:6F46                      	;negative slide	
    1845.  01:6F46  4F                  	ld	c,a
    1846.  01:6F47  AF                  	xor	a
    1847.  01:6F48  47                  	ld	b,a
    1848.  01:6F49  ED 42               	sbc	hl,bc
    1849.  01:6F4B  CB 7C               	bit	7,h
    1850.  01:6F4D  C2 59 6F            	jp	nz,_pcAY_cmd3_stop			; delta turned neg ?
    1851.  01:6F50  DD 75 00            	ld	(ix+TRACK_cmd_ToneSlideAdd),l
    1852.  01:6F53  DD 74 01            	ld	(ix+TRACK_cmd_ToneSlideAdd+1),h
    1853.  01:6F56  C3 39 6D            	jp	_pcAY_commandEND
    1854.  01:6F59                      _pcAY_cmd3_stop:	
    1855.  01:6F59  CB 9A               	res	B_TRGCMD,d		;(ix+TRACK_Flags)
    1856.  01:6F5B  DD 36 00 00         	ld	(ix+TRACK_cmd_ToneSlideAdd),0
    1857.  01:6F5F  DD 36 01 00         	ld	(ix+TRACK_cmd_ToneSlideAdd+1),0	
    1858.  01:6F63  C3 39 6D            	jp	_pcAY_commandEND
    1859.  01:6F66                      
    1860.  01:6F66                      
    1861.  01:6F66                      	;-- vibrato	
    1862.  01:6F66                      _pcAY_cmd4_vibrato:
    1863.  01:6F66                      
    1864.  01:6F66                      
    1865.  01:6F66  2A 10 C0            	ld	hl,(replay_vib_table)
    1866.  01:6F69                      	;--- Get next step
    1867.  01:6F69  DD 7E 10            	ld	a,(IX+TRACK_Step)
    1868.  01:6F6C  DD 86 0A            	add	(ix+TRACK_cmd_4_step)
    1869.  01:6F6F  E6 3F               	and	$3F			; max	32
    1870.  01:6F71  DD 77 10            	ld	(ix+TRACK_Step),a
    1871.  01:6F74                      	
    1872.  01:6F74  CB 6F               	bit	5,a			; step 32-63 the neg	
    1873.  01:6F76  CA 98 6F            	jp	z,_pcAY_cmd4pos
    1874.  01:6F79                      
    1875.  01:6F79                      ; neg	
    1876.  01:6F79  E6 1F               	and	$1f
    1877.  01:6F7B  85                  	add	l
    1878.  01:6F7C  6F                  	ld	l,a
    1879.  01:6F7D  D2 81 6F            	jp	nc,99f
    1880.  01:6F80  24                  	inc	h
    1881.  01:6F81                      99:
    1882.  01:6F81  7E                  	ld	a,(hl)
    1883.  01:6F82                      	;apply depth
    1884.  01:6F82  DD 46 09            	ld	b,(ix+TRACK_cmd_4_depth)
    1885.  01:6F85  CB 3F               11:	srl	a
    1886.  01:6F87  10 FC               	djnz	11b
    1887.  01:6F89                      ;	and	$0f
    1888.  01:6F89                      
    1889.  01:6F89  ED 44               	neg
    1890.  01:6F8B  CA A6 6F            	jp	z,33f			; $ff00 gives strange result ;)	
    1891.  01:6F8E  DD 77 02            	ld	(ix+TRACK_cmd_ToneAdd),a
    1892.  01:6F91  DD 36 03 FF         	ld	(ix+TRACK_cmd_ToneAdd+1),0xff
    1893.  01:6F95  C3 39 6D            	jp	_pcAY_commandEND
    1894.  01:6F98                      
    1895.  01:6F98                      _pcAY_cmd4pos:	
    1896.  01:6F98                      ;	and	$1f
    1897.  01:6F98  85                  	add	l
    1898.  01:6F99  6F                  	ld	l,a
    1899.  01:6F9A  D2 9E 6F            	jp	nc,99f
    1900.  01:6F9D  24                  	inc	h
    1901.  01:6F9E                      99:
    1902.  01:6F9E  7E                  	ld	a,(hl)
    1903.  01:6F9F                      	;apply depth
    1904.  01:6F9F  DD 46 09            	ld	b,(ix+TRACK_cmd_4_depth)
    1905.  01:6FA2  CB 3F               11:	srl	a
    1906.  01:6FA4  10 FC               	djnz	11b
    1907.  01:6FA6                      ;	and	$0f
    1908.  01:6FA6  DD 77 02            33:	ld	(ix+TRACK_cmd_ToneAdd),a
    1909.  01:6FA9  DD 36 03 00         	ld	(ix+TRACK_cmd_ToneAdd+1),0
    1910.  01:6FAD  C3 39 6D            	jp	_pcAY_commandEND
    1911.  01:6FB0                      		
    1912.  01:6FB0                      	
    1913.  01:6FB0                      
    1914.  01:6FB0                      _pcAY_cmd5_vibrato_port_tone:
    1915.  01:6FB0  CD C2 6F            	call	_pcAY_cmdasub
    1916.  01:6FB3  C3 25 6F            	jp	_pcAY_cmd3_port_tone
    1917.  01:6FB6                      	
    1918.  01:6FB6                      _pcAY_cmd6_vibrato_vol:
    1919.  01:6FB6  CD C2 6F            	call	_pcAY_cmdasub
    1920.  01:6FB9  C3 66 6F            	jp	_pcAY_cmd4_vibrato	
    1921.  01:6FBC                      
    1922.  01:6FBC                      _pcAY_cmd7_vol_slide:
    1923.  01:6FBC                      	;retrig
    1924.  01:6FBC                      ;	dec	(ix+TRACK_Timer)
    1925.  01:6FBC  CD C2 6F            	call	_pcAY_cmdasub
    1926.  01:6FBF  C3 39 6D            	jp	_pcAY_commandEND
    1927.  01:6FC2                      
    1928.  01:6FC2                      _pcAY_cmdasub
    1929.  01:6FC2  DD 35 0F            	dec	(ix+TRACK_Timer)
    1930.  01:6FC5  C0                  	ret	nz
    1931.  01:6FC6                      		
    1932.  01:6FC6                      	; vol	slide
    1933.  01:6FC6  DD 7E 0C            	ld	a,(ix+TRACK_cmd_A)
    1934.  01:6FC9  4F                  	ld	c,a
    1935.  01:6FCA  E6 0F               	and	$0f
    1936.  01:6FCC  DD 77 0F            	ld	(ix+TRACK_Timer),a
    1937.  01:6FCF                      
    1938.  01:6FCF  DD 7E FF            	ld	a,(IX+TRACK_cmd_VolumeAdd)
    1939.  01:6FD2  CB 79               	bit	7,c
    1940.  01:6FD4  CA E0 6F            	jp	z,_pcAY_cmda_inc
    1941.  01:6FD7                      _pcAY_cmda_dec:
    1942.  01:6FD7  FE 88               	cp	0x88
    1943.  01:6FD9  C8                  	ret	z
    1944.  01:6FDA  D6 08               	sub	8
    1945.  01:6FDC  DD 77 FF            	ld	(ix+TRACK_cmd_VolumeAdd),a
    1946.  01:6FDF  C9                  	ret
    1947.  01:6FE0                      _pcAY_cmda_inc:
    1948.  01:6FE0  FE 78               	cp	0x78
    1949.  01:6FE2  C8                  	ret	z
    1950.  01:6FE3  C6 08               	add	8	
    1951.  01:6FE5  DD 77 FF            	ld	(ix+TRACK_cmd_VolumeAdd),a
    1952.  01:6FE8  C9                  	ret
    1953.  01:6FE9                      	
    1954.  01:6FE9                      _pcAY_cmd8_macro_offset:
    1955.  01:6FE9  DD 35 0F            	dec	(ix+TRACK_Timer)
    1956.  01:6FEC  C2 39 6D            	jp	nz,_pcAY_commandEND
    1957.  01:6FEF  CB 9A               	res	B_TRGCMD,d			;(ix+TRACK_Flags)
    1958.  01:6FF1  C3 39 6D            	jp	_pcAY_commandEND
    1959.  01:6FF4                      
    1960.  01:6FF4                      
    1961.  01:6FF4                      _pcAY_cmdc_wave_duty:
    1962.  01:6FF4                      	;=================
    1963.  01:6FF4                      	; Waveform PWM / Duty Cycle
    1964.  01:6FF4                      	;=================
    1965.  01:6FF4  CB 9A               	res	B_TRGCMD,d			;(ix+TRACK_Flags)	; reset command
    1966.  01:6FF6  CB B2               	res	B_TRGWAV,d			;(ix+TRACK_Flags)	; reset normal wave update
    1967.  01:6FF8                      
    1968.  01:6FF8                      	;get the waveform	start	in [DE]
    1969.  01:6FF8  21 A7 C1            	ld	hl,_0x9800
    1970.  01:6FFB  FD 7C               	ld	a,iyh		;ixh contains chan#
    1971.  01:6FFD  0F                  	rrca			; a mac value is 4 so
    1972.  01:6FFE  0F                  	rrca			; 3 times rrca is	X32
    1973.  01:6FFF  0F                  	rrca			; max	result is 128.
    1974.  01:7000  85                  	add	a,l
    1975.  01:7001  6F                  	ld	l,a
    1976.  01:7002  D2 06 70            	jp	nc,99f
    1977.  01:7005  24                  	inc	h
    1978.  01:7006                      99:
    1979.  01:7006  DD 46 0D            	ld	b,(ix+TRACK_cmd_B)
    1980.  01:7009  04                  	inc	b
    1981.  01:700A                      
    1982.  01:700A  0E 60               	ld	c,96	
    1983.  01:700C  3E 20               	ld	a,32
    1984.  01:700E  90                  	sub	b
    1985.  01:700F                      _wspw_loop_h:
    1986.  01:700F  71                  	ld	(hl),c
    1987.  01:7010  23                  	inc	hl
    1988.  01:7011  10 FC               	djnz	_wspw_loop_h
    1989.  01:7013                      	
    1990.  01:7013  A7                  	and	a
    1991.  01:7014  CA 39 6D            	jp	z,_pcAY_commandEND
    1992.  01:7017                      	
    1993.  01:7017  0E A0               	ld	c,-96
    1994.  01:7019  47                  	ld	b,a
    1995.  01:701A                      _wspw_loop_l:
    1996.  01:701A  71                  	ld	(hl),c
    1997.  01:701B  23                  	inc	hl
    1998.  01:701C  10 FC               	djnz	_wspw_loop_l
    1999.  01:701E                      
    2000.  01:701E  C3 39 6D            	jp	_pcAY_commandEND
    2001.  01:7021                      	
    2002.  01:7021                      	
    2003.  01:7021                      	
    2004.  01:7021                      _pcAY_cmdd_wave_cut:
    2005.  01:7021                      	;=================
    2006.  01:7021                      	; Waveform Cut
    2007.  01:7021                      	;=================
    2008.  01:7021                      
    2009.  01:7021  CB 9A               	res	B_TRGCMD,d		;(ix+TRACK_Flags)	; reset command
    2010.  01:7023  CB B2               	res	B_TRGWAV,d		;(ix+TRACK_Flags)	; reset normal wave update
    2011.  01:7025  7A                  	ld	a,d
    2012.  01:7026  08                  	ex	AF,AF;'
    2013.  01:7027                      
    2014.  01:7027                      	;get the waveform	start	in [DE]
    2015.  01:7027  11 A7 C1            	ld	de,_0x9800
    2016.  01:702A  FD 7C               	ld	a,iyh		;ixh contains chan#
    2017.  01:702C  0F                  	rrca			; a mac value is 4 so
    2018.  01:702D  0F                  	rrca			; 3 times rrca is	X32
    2019.  01:702E  0F                  	rrca			; max	result is 128.
    2020.  01:702F  83                  	add	a,e
    2021.  01:7030  5F                  	ld	e,a
    2022.  01:7031  D2 35 70            	jp	nc,99f
    2023.  01:7034  14                  	inc	d
    2024.  01:7035                      99:
    2025.  01:7035  DD 7E F0            	ld	a,(ix+TRACK_Waveform)
    2026.  01:7038  87                  	add	a,a
    2027.  01:7039  87                  	add	a,a
    2028.  01:703A  87                  	add	a,a	
    2029.  01:703B                      
    2030.  01:703B  6F                  	ld	l,a
    2031.  01:703C  26 00               	ld	h,0
    2032.  01:703E  29                  	add	hl,hl
    2033.  01:703F  29                  	add	hl,hl
    2034.  01:7040                      		
    2035.  01:7040  ED 4B 04 C0         	ld	  bc,(replay_wavebase)
    2036.  01:7044  09                  	add	  hl,bc
    2037.  01:7045                      
    2038.  01:7045  DD 7E 0D            	ld	a,(ix+TRACK_cmd_B)
    2039.  01:7048  3C                  	inc	a
    2040.  01:7049  87                  	add	a
    2041.  01:704A  4F                  	ld	c,a
    2042.  01:704B  06 00               	ld	b,0
    2043.  01:704D  ED B0               	ldir
    2044.  01:704F                      	
    2045.  01:704F  EB                  	EX	DE,HL
    2046.  01:7050  08                  	EX	AF,AF'		;'
    2047.  01:7051  57                  	LD	D,A
    2048.  01:7052                      	
    2049.  01:7052  D6 20               	sub	32
    2050.  01:7054  ED 44               	neg	
    2051.  01:7056  CA 39 6D            	jp	z,_pcAY_commandEND	
    2052.  01:7059                      	
    2053.  01:7059  47                  	ld	b,a
    2054.  01:705A  AF                  	xor	a
    2055.  01:705B                      _wsc_l:
    2056.  01:705B  77                  	ld	(HL),a
    2057.  01:705C  23                  	inc	HL
    2058.  01:705D  10 FC               	djnz	_wsc_l
    2059.  01:705F                      	
    2060.  01:705F  C3 39 6D            	jp	_pcAY_commandEND
    2061.  01:7062                      		
    2062.  01:7062                      	
    2063.  01:7062                      	
    2064.  01:7062                      _pcAY_cmde_wave_compr:
    2065.  01:7062                      	;=================
    2066.  01:7062                      	; Waveform Compress
    2067.  01:7062                      	;=================
    2068.  01:7062  CB 9A               	res	B_TRGCMD,d	;(ix+TRACK_Flags)	; reset command
    2069.  01:7064  CB B2               	res	B_TRGWAV,d	;(ix+TRACK_Flags)	; reset normal wave update
    2070.  01:7066  7A                  	ld	a,d
    2071.  01:7067  08                  	ex	AF,AF;'
    2072.  01:7068                      	
    2073.  01:7068                      	;get the waveform	start	in [DE]
    2074.  01:7068  11 A7 C1            	ld	de,_0x9800
    2075.  01:706B  FD 7C               	ld	a,iyh		;ixh contains chan#
    2076.  01:706D  0F                  	rrca			; a mac value is 4 so
    2077.  01:706E  0F                  	rrca			; 3 times rrca is	X32
    2078.  01:706F  0F                  	rrca			; max	result is 128.
    2079.  01:7070  83                  	add	a,e
    2080.  01:7071  5F                  	ld	e,a
    2081.  01:7072  D2 76 70            	jp	nc,99f
    2082.  01:7075  14                  	inc	d
    2083.  01:7076                      99:
    2084.  01:7076  DD 7E F0            	ld	a,(ix+TRACK_Waveform)
    2085.  01:7079  87                  	add	a,a
    2086.  01:707A  87                  	add	a,a
    2087.  01:707B  87                  	add	a,a	
    2088.  01:707C                      
    2089.  01:707C  6F                  	ld	l,a
    2090.  01:707D  26 00               	ld	h,0
    2091.  01:707F  29                  	add	hl,hl
    2092.  01:7080  29                  	add	hl,hl
    2093.  01:7081                      		
    2094.  01:7081  ED 4B 04 C0         	ld	  bc,(replay_wavebase)
    2095.  01:7085  09                  	add	  hl,bc
    2096.  01:7086                      
    2097.  01:7086  DD 7E 0D            	ld	a,(ix+TRACK_cmd_B)
    2098.  01:7089  01 40 00            	ld	bc,0x0040
    2099.  01:708C  0F                  	rrca	; x32
    2100.  01:708D  0F                  	rrca
    2101.  01:708E  0F                  	rrca
    2102.  01:708F  C6 1F               	add	31
    2103.  01:7091  FD 6F               	ld	iyl,a		; fraction
    2104.  01:7093  AF                  	xor	a	
    2105.  01:7094                      _wcomp_loop:
    2106.  01:7094  ED A0               	ldi			
    2107.  01:7096  0D                  	dec	c
    2108.  01:7097  CA A6 70            	jp	z,1f
    2109.  01:709A  FD 85               	add	iyl
    2110.  01:709C  D2 94 70            	jp	nc,_wcomp_loop
    2111.  01:709F  23                  	inc	hl
    2112.  01:70A0  04                  	inc	b
    2113.  01:70A1  0D                  	dec	c
    2114.  01:70A2  0D                  	dec	c
    2115.  01:70A3  C2 94 70            	jp	nz,_wcomp_loop
    2116.  01:70A6                      	
    2117.  01:70A6                      	;--- remaining data
    2118.  01:70A6                      1:
    2119.  01:70A6  2B                  	dec	hl
    2120.  01:70A7  7E                  	ld	a,(hl)
    2121.  01:70A8  12                  2:	ld	(de),a
    2122.  01:70A9  13                  	inc	de
    2123.  01:70AA  10 FC               	djnz	2b
    2124.  01:70AC                      	
    2125.  01:70AC  08                  	EX	AF,AF'		;'
    2126.  01:70AD  57                  	LD	D,A	
    2127.  01:70AE  C3 39 6D            	jp	_pcAY_commandEND		
    2128.  01:70B1                      	
    2129.  01:70B1                      
    2130.  01:70B1                      _pcAY_cmd13_short_arp:
    2131.  01:70B1  DD 35 0F            	dec	(ix+TRACK_Timer)
    2132.  01:70B4  CB 42               	bit	B_TRGNOT,d		;(ix+TRACK_Timer)
    2133.  01:70B6  CA 39 6D            	jp	z,_pcAY_commandEND
    2134.  01:70B9  DD 7E 0E            	ld	a,(ix+TRACK_cmd_E)
    2135.  01:70BC  DD 77 0B            	ld	(ix+TRACK_cmd_NoteAdd),a		
    2136.  01:70BF  C3 39 6D            	jp	_pcAY_commandEND
    2137.  01:70C2                      
    2138.  01:70C2                      _pcAY_cmd14_fine_up:
    2139.  01:70C2  DD 35 0F            	dec	(ix+TRACK_Timer)
    2140.  01:70C5  C2 39 6D            	jp	nz,_pcAY_commandEND
    2141.  01:70C8                      
    2142.  01:70C8  CB 9A               	res	B_TRGCMD,d			;(ix+TRACK_Flags)
    2143.  01:70CA  DD 7E 00            	ld	a,(ix+TRACK_cmd_ToneSlideAdd)
    2144.  01:70CD  DD 86 0E            	add	(ix+TRACK_cmd_E)
    2145.  01:70D0  DD 77 00            	ld	(ix+TRACK_cmd_ToneSlideAdd),a
    2146.  01:70D3  D2 39 6D            	jp	nc,_pcAY_commandEND	
    2147.  01:70D6  DD 34 01            	inc	(ix+TRACK_cmd_ToneSlideAdd+1)
    2148.  01:70D9  C3 39 6D            	jp	_pcAY_commandEND	
    2149.  01:70DC                      
    2150.  01:70DC                      _pcAY_cmd15_fine_down:
    2151.  01:70DC  DD 35 0F            	dec	(ix+TRACK_Timer)
    2152.  01:70DF  C2 39 6D            	jp	nz,_pcAY_commandEND
    2153.  01:70E2                      
    2154.  01:70E2  CB 9A               	res	B_TRGCMD,d		;(ix+TRACK_Flags)
    2155.  01:70E4  DD 7E 00            	ld	a,(ix+TRACK_cmd_ToneSlideAdd)
    2156.  01:70E7  DD 96 0E            	sub	(ix+TRACK_cmd_E)
    2157.  01:70EA  DD 77 00            	ld	(ix+TRACK_cmd_ToneSlideAdd),a
    2158.  01:70ED  D2 39 6D            	jp	nc,_pcAY_commandEND	
    2159.  01:70F0  DD 35 01            	dec	(ix+TRACK_cmd_ToneSlideAdd+1)
    2160.  01:70F3  C3 39 6D            	jp	_pcAY_commandEND	
    2161.  01:70F6                      
    2162.  01:70F6                      
    2163.  01:70F6                      _pcAY_cmdXX_note_cut:
    2164.  01:70F6  DD 35 0F            	dec	(ix+TRACK_Timer)
    2165.  01:70F9  C2 39 6D            	jp	nz,_pcAY_commandEND
    2166.  01:70FC                      	
    2167.  01:70FC                      	; stop note
    2168.  01:70FC  CB 9A               	res	B_TRGCMD,d	; set	note bit to	0
    2169.  01:70FE  CB 82               	res	B_TRGNOT,d
    2170.  01:7100  C3 39 6D            	jp	_pcAY_commandEND		
    2171.  01:7103                      	
    2172.  01:7103                      _pcAY_cmd19_note_delay:
    2173.  01:7103                      	; note delay
    2174.  01:7103  DD 35 0F            	dec	(ix+TRACK_Timer)
    2175.  01:7106  C2 39 6D            	jp	nz,_pcAY_commandEND	; no delay yet
    2176.  01:7109                      
    2177.  01:7109                      	; trigger note
    2178.  01:7109  DD 7E 0E            	ld	a,(ix+TRACK_cmd_E)		
    2179.  01:710C  DD 77 F7            	ld	(ix+TRACK_Note),a		; set	the note val
    2180.  01:710F  CB C2               	set	B_TRGNOT,d	;(ix+TRACK_Flags)		; set	trigger note flag
    2181.  01:7111  CB 9A               	res	B_TRGCMD,d	;(ix+TRACK_Flags)		; reset tiggger cmd flag
    2182.  01:7113                      	
    2183.  01:7113  C3 39 6D            	jp	_pcAY_commandEND	
    2184.  01:7116                      
    2185.  01:7116                      
    2186.  01:7116                      
    2187.  01:7116                      
    2188.  01:7116                      
    2189.  01:7116                      
    2190.  01:7116                      
    2191.  01:7116                      
    2192.  01:7116                      	
    2193.  01:7116                      ;===========================================================
    2194.  01:7116                      ; ---replay_route
    2195.  01:7116                      ; Output the data	to the CHIP	registers
    2196.  01:7116                      ; 
    2197.  01:7116                      ; 
    2198.  01:7116                      ;===========================================================
    2199.  01:7116                      replay_route:
    2200.  01:7116                      ;---------------
    2201.  01:7116                      ; P S	G 
    2202.  01:7116                      ;---------------
    2203.  01:7116                      	;--- Push values to AY HW
    2204.  01:7116  06 00               	ld	b,0
    2205.  01:7118  0E A0               	ld	c,0xa0
    2206.  01:711A  21 99 C1            	ld	hl,AY_registers
    2207.  01:711D                      _comp_loop:	
    2208.  01:711D  ED 41               	out	(c),b
    2209.  01:711F  7E                  	ld	a,(hl)
    2210.  01:7120  C6 01               	add	1
    2211.  01:7122  D3 A1               	out	(0xa1),a
    2212.  01:7124  23                  	inc	hl
    2213.  01:7125  7E                  	ld	a,(hl)
    2214.  01:7126  CE 00               	adc	a,0
    2215.  01:7128  04                  	inc	b
    2216.  01:7129  ED 41               	out	(c),b	
    2217.  01:712B  23                  	inc	hl
    2218.  01:712C  D3 A1               	out	(0xa1),a	
    2219.  01:712E  04                  	inc	b
    2220.  01:712F  3E 06               	ld	a,6
    2221.  01:7131  B8                  	cp	b
    2222.  01:7132  C2 1D 71            	jp	nz,_comp_loop
    2223.  01:7135                      	
    2224.  01:7135  78                  	ld	a,b	
    2225.  01:7136                      	
    2226.  01:7136                      	
    2227.  01:7136                      _ptAY_loop:
    2228.  01:7136  ED 79               	out	(c),a
    2229.  01:7138  0C                  	inc	c
    2230.  01:7139  ED A3               	outi
    2231.  01:713B  0D                  	dec	c
    2232.  01:713C  3C                  	inc	a
    2233.  01:713D  FE 0D               	cp	13
    2234.  01:713F  20 F5               	jr	nz,_ptAY_loop
    2235.  01:7141                      
    2236.  01:7141  47                  	ld	b,a
    2237.  01:7142  7E                  	ld	a,(hl)
    2238.  01:7143  A7                  	and	a
    2239.  01:7144  CA 4E 71            	jp	z,_ptAY_noEnv
    2240.  01:7147  ED 41               	out	(c),b
    2241.  01:7149  0C                  	inc	c
    2242.  01:714A  ED 79               	out 	(c),a
    2243.  01:714C  36 00               	ld	(hl),0	;reset the envwrite
    2244.  01:714E                      	
    2245.  01:714E                      	
    2246.  01:714E                      _ptAY_noEnv:
    2247.  01:714E                      ;--------------
    2248.  01:714E                      ; S C	C 
    2249.  01:714E                      ;--------------
    2250.  01:714E                      
    2251.  01:714E                      ;=======================
    2252.  01:714E                      ; for debugging only.
    2253.  01:714E                      ; display colors for CPU time info
    2254.  01:714E                      ;========================
    2255.  01:714E                      ;	ld	a,10
    2256.  01:714E                      ;	out (0x99),a
    2257.  01:714E                      ;	ld a,7+128
    2258.  01:714E                      ;	out (0x99),a 
    2259.  01:714E                      	
    2260.  01:714E                      	
    2261.  01:714E  3E 3F               	ld  a,03Fh				; enable SCC
    2262.  01:7150  32 00 90            	ld  (0x9000),a
    2263.  01:7153                      
    2264.  01:7153                      	;--- Set the waveforms
    2265.  01:7153  21 D5 C0            	ld	hl,TRACK_Chan4+17+TRACK_Flags
    2266.  01:7156  CB 76               	bit	B_TRGWAV,(hl)
    2267.  01:7158  CA 66 71            	jp	z,0f
    2268.  01:715B                      	;--- set wave form
    2269.  01:715B  CB B6               	res	B_TRGWAV,(hl)
    2270.  01:715D  3A CC C0            	ld	a,(TRACK_Chan4+17+TRACK_Waveform)
    2271.  01:7160  11 00 98            	ld	de,0x9800
    2272.  01:7163  CD BE 71            	call	_write_SCC_wave
    2273.  01:7166                      0:
    2274.  01:7166  21 FB C0            	ld	hl,TRACK_Chan5+17+TRACK_Flags
    2275.  01:7169  CB 76               	bit	B_TRGWAV,(hl)
    2276.  01:716B  CA 79 71            	jp	z,0f
    2277.  01:716E                      	;--- set wave form
    2278.  01:716E  CB B6               	res	B_TRGWAV,(hl)
    2279.  01:7170  3A F2 C0            	ld	a,(TRACK_Chan5+17+TRACK_Waveform)
    2280.  01:7173  11 20 98            	ld	de,0x9820
    2281.  01:7176  CD BE 71            	call	_write_SCC_wave
    2282.  01:7179                      0:
    2283.  01:7179  21 21 C1            	ld	hl,TRACK_Chan6+17+TRACK_Flags
    2284.  01:717C  CB 76               	bit	B_TRGWAV,(hl)
    2285.  01:717E  CA 8C 71            	jp	z,0f
    2286.  01:7181                      	;--- set wave form
    2287.  01:7181  CB B6               	res	B_TRGWAV,(hl)
    2288.  01:7183  3A 18 C1            	ld	a,(TRACK_Chan6+17+TRACK_Waveform)
    2289.  01:7186  11 40 98            	ld	de,0x9840
    2290.  01:7189  CD BE 71            	call	_write_SCC_wave
    2291.  01:718C                      0:
    2292.  01:718C  21 47 C1            	ld	hl,TRACK_Chan7+17+TRACK_Flags
    2293.  01:718F  CB 76               	bit	B_TRGWAV,(hl)
    2294.  01:7191  CA 9F 71            	jp	z,0f
    2295.  01:7194                      	;--- set wave form
    2296.  01:7194  CB B6               	res	B_TRGWAV,(hl)
    2297.  01:7196  3A 3E C1            	ld	a,(TRACK_Chan7+17+TRACK_Waveform)
    2298.  01:7199  11 60 98            	ld	de,0x9860
    2299.  01:719C  CD BE 71            	call	_write_SCC_wave
    2300.  01:719F                      0:
    2301.  01:719F                      
    2302.  01:719F                      ;=======================
    2303.  01:719F                      ; for debugging only.
    2304.  01:719F                      ; display colors for CPU time info
    2305.  01:719F                      ;========================
    2306.  01:719F                      ;	ld	a,6
    2307.  01:719F                      ;	out (0x99),a
    2308.  01:719F                      ;	ld a,7+128
    2309.  01:719F                      ;	out (0x99),a 
    2310.  01:719F                      
    2311.  01:719F                      			
    2312.  01:719F                      scc_reg_update:
    2313.  01:719F                      
    2314.  01:719F  3E 3F               	ld  a,03Fh				; enable SCC
    2315.  01:71A1  32 00 90            	ld  (0x9000),a
    2316.  01:71A4                      
    2317.  01:71A4                      	;--- Update changed SCC registers.
    2318.  01:71A4  21 37 C2            	ld hl,oldregs
    2319.  01:71A7  11 27 C2            	ld de,SCC_registers
    2320.  01:71AA  01 80 98            	ld bc,0x9880
    2321.  01:71AD  3E 10               	ld a,3*5+1
    2322.  01:71AF                      loop:
    2323.  01:71AF  08                  	ex af,af'	;'
    2324.  01:71B0  1A                  	ld a,(de)
    2325.  01:71B1  BE                  	cp (hl)
    2326.  01:71B2  28 02               	jr z,1f
    2327.  01:71B4  77                  	ld (hl),a	     ; update old	registers in ram
    2328.  01:71B5  02                  	ld (bc),a	     ; update scc	registers
    2329.  01:71B6                      1:	    
    2330.  01:71B6  23                  	inc hl
    2331.  01:71B7  13                  	inc de
    2332.  01:71B8  03                  	inc bc
    2333.  01:71B9  08                  	ex af,af'		;'
    2334.  01:71BA  3D                  	dec a
    2335.  01:71BB  20 F2               	jr nz, loop
    2336.  01:71BD  C9                  	ret
    2337.  01:71BE                      
    2338.  01:71BE                      	
    2339.  01:71BE                      	
    2340.  01:71BE                      ;==================
    2341.  01:71BE                      ; _write_SCC_wave
    2342.  01:71BE                      ;
    2343.  01:71BE                      ; Writes waveform	data.	[DE] contains location for data
    2344.  01:71BE                      ; [A]	contains waveform	number + flags for special actions
    2345.  01:71BE                      ; Data is not written to SCC but into RAM	shadow registers.
    2346.  01:71BE                      ;==================
    2347.  01:71BE                      _write_SCC_wave:
    2348.  01:71BE  CB 66               	bit	B_ACTMOR,(hl)
    2349.  01:71C0  C2 D6 71            	jp	nz,_write_SCC_special
    2350.  01:71C3  87                  	add	a,a
    2351.  01:71C4  87                  	add	a,a
    2352.  01:71C5  87                  	add	a,a	
    2353.  01:71C6                      
    2354.  01:71C6  6F                  	ld	l,a
    2355.  01:71C7  26 00               	ld	h,0
    2356.  01:71C9  29                  	add	hl,hl
    2357.  01:71CA  29                  	add	hl,hl
    2358.  01:71CB                      		
    2359.  01:71CB  ED 4B 04 C0         	ld	  bc,(replay_wavebase)
    2360.  01:71CF  09                  	add	  hl,bc
    2361.  01:71D0  01 20 00            	ld	  bc,32
    2362.  01:71D3  ED B0               	ldir
    2363.  01:71D5                      
    2364.  01:71D5  C9                  	ret
    2365.  01:71D6                      
    2366.  01:71D6                      
    2367.  01:71D6                      _write_SCC_special:
    2368.  01:71D6  21 19 C0            	ld	hl,replay_morph_buffer+1
    2369.  01:71D9  06 20               	ld	b,32
    2370.  01:71DB                      _wss_l:
    2371.  01:71DB  7E                  	ld	a,(hl)
    2372.  01:71DC  12                  	ld	(de),a
    2373.  01:71DD  23                  	inc	hl
    2374.  01:71DE  23                  	inc	hl
    2375.  01:71DF  13                  	inc	de
    2376.  01:71E0  10 F9               	djnz	_wss_l
    2377.  01:71E2                      	 
    2378.  01:71E2                      	
    2379.  01:71E2  C9                  	ret
    2380.  01:71E3                      
    2381.  01:71E3                      	
    2382.  01:71E3                      ;=============
    2383.  01:71E3                      ; in [A] the morph active status	
    2384.  01:71E3                      replay_process_morph:
    2385.  01:71E3  21 15 C0            	ld	hl,replay_morph_timer
    2386.  01:71E6  35                  	dec	(hl)
    2387.  01:71E7  C0                  	ret	nz
    2388.  01:71E8                      	
    2389.  01:71E8                      	;---- not sure what to do with this.
    2390.  01:71E8                      	; trigger any waveform updates
    2391.  01:71E8  06 04               	ld	b,4
    2392.  01:71EA  11 26 00            	ld	de,TRACK_REC_SIZE
    2393.  01:71ED  21 D5 C0            	ld	hl,TRACK_Chan4+17+TRACK_Flags
    2394.  01:71F0                      10:	
    2395.  01:71F0  CB 66               	bit 	B_ACTMOR,(hl)
    2396.  01:71F2  CA F7 71            	jp	z,99f
    2397.  01:71F5  CB F6               	set	B_TRGWAV,(hl)
    2398.  01:71F7                      99:
    2399.  01:71F7  19                  	add	hl,de
    2400.  01:71F8  10 F6               	djnz	10b	
    2401.  01:71FA                      	
    2402.  01:71FA                      	
    2403.  01:71FA                      	;---- timer ended.
    2404.  01:71FA  3C                  	inc	a
    2405.  01:71FB  C2 49 72            	jp	nz,_rpm_next_step		; if status was !=255 then skip init
    2406.  01:71FE                      
    2407.  01:71FE                      	;---- calculate offset
    2408.  01:71FE  3C                  	inc	a		
    2409.  01:71FF  32 14 C0            	ld	(replay_morph_active),a		; set status to 1
    2410.  01:7202                      ;	ld	(replay_morph_update),a		; after this update the waveforms of the SCC
    2411.  01:7202                      
    2412.  01:7202  3A 16 C0            	ld	a,(replay_morph_speed)
    2413.  01:7205  32 15 C0            	ld	(replay_morph_timer),a
    2414.  01:7208                      	
    2415.  01:7208                      
    2416.  01:7208                      	;--- calculate the delta's
    2417.  01:7208  11 18 C0            	ld	de,replay_morph_buffer
    2418.  01:720B  2A 04 C0            	ld	hl,(replay_wavebase)
    2419.  01:720E  3A 58 C0            	ld	a,(replay_morph_waveform)
    2420.  01:7211  87                  	add	a
    2421.  01:7212  D2 16 72            	jp	nc,99f
    2422.  01:7215  24                  	inc	h
    2423.  01:7216  85                  99:	add	a,l
    2424.  01:7217  6F                  	ld	l,a
    2425.  01:7218  D2 1C 72            	jp	nc,99f
    2426.  01:721B  24                  	inc	h
    2427.  01:721C                      99:	
    2428.  01:721C                      	;---- start calculating
    2429.  01:721C  06 20               	ld	b,32		; 32 values
    2430.  01:721E                      _rpm_loop:	
    2431.  01:721E  13                  	inc	de
    2432.  01:721F  1A                  	ld	a,(de)
    2433.  01:7220  1B                  	dec	de
    2434.  01:7221  C6 80               	add	a,128
    2435.  01:7223  4F                  	ld	c,a
    2436.  01:7224  7E                  	ld	a,(hl)
    2437.  01:7225  C6 80               	add	a,128
    2438.  01:7227  B9                  	cp	c
    2439.  01:7228  DA 39 72            	jp	c,_rpm_smaller		; dest is smaller
    2440.  01:722B                      
    2441.  01:722B                      	
    2442.  01:722B                      _rpm_larger:
    2443.  01:722B  91                  	sub	c
    2444.  01:722C  0F                  	rrca
    2445.  01:722D  0F                  	rrca
    2446.  01:722E  0F                  	rrca
    2447.  01:722F  0F                  	rrca
    2448.  01:7230  E6 EF               	and	$ef		; reset bit 5
    2449.  01:7232  12                  	ld	(de),a
    2450.  01:7233                      	
    2451.  01:7233  13                  	inc	de
    2452.  01:7234  13                  	inc	de
    2453.  01:7235  23                  	inc	hl
    2454.  01:7236  10 E6               	djnz	_rpm_loop
    2455.  01:7238  C9                  	ret	
    2456.  01:7239                      	
    2457.  01:7239                      _rpm_smaller:
    2458.  01:7239  91                  	sub	c
    2459.  01:723A  ED 44               	neg	
    2460.  01:723C  0F                  	rrca
    2461.  01:723D  0F                  	rrca
    2462.  01:723E  0F                  	rrca
    2463.  01:723F  0F                  	rrca
    2464.  01:7240  F6 10               	or	$10		; set bit 5
    2465.  01:7242  12                  	ld	(de),a
    2466.  01:7243                      	
    2467.  01:7243  13                  	inc	de
    2468.  01:7244  13                  	inc	de
    2469.  01:7245  23                  	inc	hl
    2470.  01:7246  10 D6               	djnz	_rpm_loop
    2471.  01:7248  C9                  	ret		
    2472.  01:7249                      	
    2473.  01:7249                      ;============================
    2474.  01:7249                      _rpm_next_step:
    2475.  01:7249  3A 16 C0            	ld	a,(replay_morph_speed)
    2476.  01:724C  32 15 C0            	ld	(replay_morph_timer),a
    2477.  01:724F                      
    2478.  01:724F                      	;-- apply the delta's
    2479.  01:724F  3A 17 C0            	ld	a,(replay_morph_counter)
    2480.  01:7252  4F                  	ld	c,a
    2481.  01:7253  C6 10               	add	16
    2482.  01:7255  32 17 C0            	ld	(replay_morph_counter),a
    2483.  01:7258  C2 5E 72            	jp	nz,99f
    2484.  01:725B                      	;--- end morph
    2485.  01:725B  32 14 C0            	ld	(replay_morph_active),a
    2486.  01:725E                      
    2487.  01:725E                      99:
    2488.  01:725E  0D                  	dec c
    2489.  01:725F  21 18 C0            	ld	hl,replay_morph_buffer
    2490.  01:7262  06 20               	ld	b,32
    2491.  01:7264                      _rpm_ns_loop:	
    2492.  01:7264  7E                  	ld	a,(hl)
    2493.  01:7265  CB 67               	bit 	4,a
    2494.  01:7267  CA 7C 72            	jp	z,_rmp_ns_add
    2495.  01:726A                      _rmp_ns_sub:
    2496.  01:726A                      	;--- handle corection
    2497.  01:726A  E6 EF               	and	$ef
    2498.  01:726C  B9                  	cp	c		; correction < counteR?
    2499.  01:726D  DA 71 72            	jp	c,99f
    2500.  01:7270  3C                  	inc	a		; if smaller C was set
    2501.  01:7271                      99:
    2502.  01:7271                      ;	xor	00010000b	; inverse add/sub bit when >15
    2503.  01:7271  E6 1F               	and	00011111b	; keep lower 5 bits
    2504.  01:7273                      ;	neg	
    2505.  01:7273  23                  	inc	hl
    2506.  01:7274  57                  	ld	d,a
    2507.  01:7275  7E                  	ld	a,(hl)
    2508.  01:7276  92                  	sub	d
    2509.  01:7277                      ;	add	(hl)		; subtract waveform value
    2510.  01:7277  77                  	ld	(hl),a	; load new value
    2511.  01:7278  23                  	inc	hl
    2512.  01:7279  10 E9               	djnz	_rpm_ns_loop
    2513.  01:727B  C9                  	ret	
    2514.  01:727C                      _rmp_ns_add:
    2515.  01:727C                      	;--- handle corection
    2516.  01:727C  B9                  	cp	c		; correction < counteR?
    2517.  01:727D  DA 81 72            	jp	c,99f
    2518.  01:7280  3C                  	inc	a		; if smaller C was set
    2519.  01:7281                      99:
    2520.  01:7281  E6 1F               	and	00011111b	; keep lower 5 bits
    2521.  01:7283  23                  	inc	hl
    2522.  01:7284  86                  	add	(hl)		; subtract waveform value
    2523.  01:7285  77                  	ld	(hl),a	; load new value
    2524.  01:7286  23                  	inc	hl
    2525.  01:7287  10 DB               	djnz	_rpm_ns_loop
    2526.  01:7289  C9                  	ret		
    2527.  01:728A                      	
    2528.  01:728A                      
    2529.  01:728A                      
     720   01:728A                      	
     721   01:728A                      FINISH:
     722   01:728A                      
     723   01:728A                      
     724   01:728A                      ;---------------------------------------------------------
     725   01:728A                      ; Variables
     726   01:728A                      ;---------------------------------------------------------
     727   01:728A                      
     728   01:728A                      
     729   01:728A                      	
     730   01:728A  (C000)              	MAP 0xC000
     731   01:728A                      	include	"..\code\ttreplayRAM.asm"
       1.  01:728A                      ;================================
       2.  01:728A                      ; The new replayer.
       3.  01:728A                      ;
       4.  01:728A                      ; Persistent RAM unswappable
       5.  01:728A                      ;
       6.  01:728A                      ;================================
       7.  01:728A                      
       8.  01:728A  (01:FFFFFFEF)       TRACK_Instrument		equ 0-17
       9.  01:728A  (01:FFFFFFF0)       TRACK_Waveform		equ 1-17
      10.  01:728A  (01:FFFFFFF1)       TRACK_Command		equ 2-17
      11.  01:728A  (01:FFFFFFF2)       TRACK_MacroPointer	equ 3-17
      12.  01:728A  (01:FFFFFFF4)       TRACK_MacroStart		equ 5-17
      13.  01:728A  (01:FFFFFFF6)       TRACK_MacroRestart 	equ 7-17
      14.  01:728A  (01:FFFFFFF7)       TRACK_Note			equ 8-17
      15.  01:728A  (01:FFFFFFF8)       TRACK_Volume		equ 9-17
      16.  01:728A  (01:FFFFFFF9)       TRACK_Flags			equ 10-17
      17.  01:728A                      	; 0 = note trigger
      18.  01:728A                      	; 1 = note active
      19.  01:728A                      	; 4 = morph active		;-< for SCC when 1 then waveform is following morph buffer
      20.  01:728A                      	; 3 = command trigger
      21.  01:728A                      	; 2 = envelope trigger
      22.  01:728A                      	; 5 = instrument trigger
      23.  01:728A                      	; 6 = waveform trigger
      24.  01:728A                      	; 7 = PSG/SCC
      25.  01:728A  (01:FFFFFFFA)       TRACK_empty			equ 11-17		; needed for pushing 0 at note start
      26.  01:728A  (01:FFFFFFFB)       TRACK_ToneAdd		equ 12-17		; reset after note set
      27.  01:728A  (01:FFFFFFFD)       TRACK_VolumeAdd		equ 14-17		; reset after note set
      28.  01:728A  (01:FFFFFFFE)       TRACK_Noise			equ 15-17		; reset after note set
      29.  01:728A  (01:FFFFFFFF)       TRACK_cmd_VolumeAdd	equ 16-17		; reset after note set
      30.  01:728A  (01:0000)           TRACK_cmd_ToneSlideAdd	equ 17-17		; reset after note set
      31.  01:728A  (01:0002)           TRACK_cmd_ToneAdd		equ 19-17		; reset after note set
      32.  01:728A                      
      33.  01:728A  (01:0004)           TRACK_cmd_detune		equ 21-17
      34.  01:728A  (01:0005)           TRACK_cmd_0			equ 22-17
      35.  01:728A  (01:0006)           TRACK_cmd_1			equ 23-17
      36.  01:728A  (01:0007)           TRACK_cmd_2			equ 24-17
      37.  01:728A  (01:0008)           TRACK_cmd_3			equ 25-17
      38.  01:728A  (01:0009)           TRACK_cmd_4_depth		equ 26-17
      39.  01:728A  (01:000A)           TRACK_cmd_4_step		equ 27-17
      40.  01:728A  (01:000B)           TRACK_cmd_NoteAdd		equ 28-17		;x reset after note set
      41.  01:728A  (01:000C)           TRACK_cmd_A			equ 29-17		
      42.  01:728A  (01:000D)           TRACK_cmd_B			equ 30-17		
      43.  01:728A  (01:000E)           TRACK_cmd_E			equ 31-17
      44.  01:728A  (01:000F)           TRACK_Timer			equ 32-17		; used for timing by all cmd's
      45.  01:728A  (01:0010)           TRACK_Step			equ 33-17		; only for VIBRATO???
      46.  01:728A  (01:0011)           TRACK_Delay			equ 34-17		; rows to wait till next data
      47.  01:728A  (01:0012)           TRACK_prevDelay		equ 35-17
      48.  01:728A  (01:0013)           TRACK_Retrig		equ 36-17		; rows to retrigger command
      49.  01:728A  (01:0014)           TRACK_cmd_A_add		equ 37-17	;<< Still in use???
      50.  01:728A                      
      51.  01:728A  (01:0026)           TRACK_REC_SIZE		equ 38
      52.  01:728A                      
      53.  01:728A                      
      54.  01:728A  (01:0000)           B_TRGNOT			equ 0			; note trigger
      55.  01:728A  (01:0001)           B_ACTNOT			equ 1			; note active
      56.  01:728A  (01:0002)           B_TRGENV			equ 2			; envelope trigger
      57.  01:728A  (01:0003)           B_TRGCMD			equ 3			; command active
      58.  01:728A  (01:0004)           B_ACTMOR			equ 4			; morph active
      59.  01:728A  (01:0005)           B_TRGINS			equ 5			; instrument trigger
      60.  01:728A  (01:0006)           B_TRGWAV			equ 6			; waveform trigger
      61.  01:728A  (01:0007)           B_PSGSCC			equ 7			; chip type (PSG or SCC)
      62.  01:728A                      
      63.  01:728A                      
      64.  01:728A  (01:C000)           _SP_Storage			#1			; to store the SP
      65.  01:728A                      
      66.  01:728A  (01:C001)           replay_trigger		#1			; trigger byte.
      67.  01:728A  (01:C002)           replay_mainPSGvol		#1			; volume mixer for PSG SCC balance
      68.  01:728A  (01:C003)           replay_mainSCCvol		#1			; volume mixer for PSG SCC balance
      69.  01:728A                      ;replay_songbase:		#2			; pointer to song data
      70.  01:728A  (01:C004)           replay_wavebase:		#2			; pointer to waveform data
      71.  01:728A  (01:C006)           replay_insbase:		#2			; pointer to instrument data
      72.  01:728A  (01:C008)           replay_orderpointer:	#2			; pointer to the order track list pointers
      73.  01:728A                      
      74.  01:728A  (01:C00A)           replay_speed 		#1			; speed to replay (get from song)
      75.  01:728A  (01:C00B)           replay_speed_subtimer 	#1			; counter for finer speed
      76.  01:728A  (01:C00C)           replay_speed_timer 	#1 			; counter for speed
      77.  01:728A  (01:C00D)           replay_mode 		#1			; Replayer status
      78.  01:728A                      ; mode 0  = no sound output
      79.  01:728A                      ; mode 1  = replay song 
      80.  01:728A                      
      81.  01:728A  (01:C00E)           replay_previous_note	#1			; previous note played
      82.  01:728A  (01:C00F)           replay_mainvol		#1			; the volume correction.
      83.  01:728A                      
      84.  01:728A  (01:C010)           replay_vib_table		#2			; pointer to the vibrato table
      85.  01:728A  (01:C012)           replay_Tonetable		#2			; ToneTable (affected by transpose);
      86.  01:728A                      
      87.  01:728A  (01:C014)           replay_morph_active	#1			; flag to indicate morphing is active
      88.  01:728A                      ;replay_morph_update	#1			; flag to indicate a new waveform is ready
      89.  01:728A  (01:C015)           replay_morph_timer	#1			; step timer between morphs
      90.  01:728A  (01:C016)           replay_morph_speed	#1 
      91.  01:728A  (01:C017)           replay_morph_counter	#1			; counter till end morph
      92.  01:728A  (01:C018)           replay_morph_buffer	#64			; interleaved buffer with morphed waveform and morph delta values
      93.  01:728A  (01:C058)           replay_morph_waveform	#1 			; waveform we are morphing to.
      94.  01:728A                      
      95.  01:728A                      
      96.  01:728A  (01:C059)           TRACK_Chan1			#TRACK_REC_SIZE
      97.  01:728A  (01:C07F)           TRACK_Chan2			#TRACK_REC_SIZE
      98.  01:728A  (01:C0A5)           TRACK_Chan3			#TRACK_REC_SIZE
      99.  01:728A  (01:C0CB)           TRACK_Chan4			#TRACK_REC_SIZE
     100.  01:728A  (01:C0F1)           TRACK_Chan5			#TRACK_REC_SIZE
     101.  01:728A  (01:C117)           TRACK_Chan6			#TRACK_REC_SIZE
     102.  01:728A  (01:C13D)           TRACK_Chan7			#TRACK_REC_SIZE
     103.  01:728A  (01:C163)           TRACK_Chan8			#TRACK_REC_SIZE
     104.  01:728A                      
     105.  01:728A  (01:C189)           TRACK_pointer1		#2
     106.  01:728A  (01:C18B)           TRACK_pointer2		#2
     107.  01:728A  (01:C18D)           TRACK_pointer3		#2
     108.  01:728A  (01:C18F)           TRACK_pointer4		#2
     109.  01:728A  (01:C191)           TRACK_pointer5		#2
     110.  01:728A  (01:C193)           TRACK_pointer6		#2
     111.  01:728A  (01:C195)           TRACK_pointer7		#2
     112.  01:728A  (01:C197)           TRACK_pointer8		#2
     113.  01:728A                      
     114.  01:728A                      
     115.  01:728A                      ;--- AY SPECIFIC
     116.  01:728A  (01:C199)           AY_registers		#0 
     117.  01:728A  (01:C199)           AY_regToneA 		#2	; Tone A freq low (8bit)
     118.  01:728A                      					; Tone A freq high (4bit)
     119.  01:728A  (01:C19B)           AY_regToneB 		#2	; Tone B freq low
     120.  01:728A                      					; Tone B freq high
     121.  01:728A  (01:C19D)           AY_regToneC 		#2	; Tone C freq low
     122.  01:728A                      					; Tone C freq high
     123.  01:728A  (01:C19F)           AY_regNOISE 		#1	; Noise freq (5bit)
     124.  01:728A  (01:C1A0)           AY_regMIXER 		#1	;0x38	;x3f	; Mixer control (1 = off, 0 = on)
     125.  01:728A  (01:C1A1)           AY_regVOLA 			#1	; Chan A volume
     126.  01:728A  (01:C1A2)           AY_regVOLB 			#1	; Chan B volume
     127.  01:728A  (01:C1A3)           AY_regVOLC  		#1	; Chan C volume
     128.  01:728A  (01:C1A4)           AY_regEnvL 			#1	; Volume Env Freq low (8bit)	
     129.  01:728A  (01:C1A5)           AY_regEnvH 			#1	; Volume Env Freq high (4bit)
     130.  01:728A  (01:C1A6)           AY_regEnvShape 		#1	; Volume Env Shape (4bit)
     131.  01:728A                      
     132.  01:728A                      ;--- SCC SPECIFIC
     133.  01:728A                      
     134.  01:728A  (01:C1A7)           _0x9800:	#32			; Waveform data
     135.  01:728A  (01:C1C7)           _0x9820:	#32
     136.  01:728A  (01:C1E7)           _0x9840:	#32
     137.  01:728A  (01:C207)           _0x9860:	#32
     138.  01:728A  (01:C227)           SCC_registers 		#0
     139.  01:728A  (01:C227)           SCC_regToneA 		#2	; Tone A freq low (8bit)
     140.  01:728A                      					; Tone A freq high (4bit)
     141.  01:728A  (01:C229)           SCC_regToneB 		#2	; Tone B freq low
     142.  01:728A                      					; Tone B freq high
     143.  01:728A  (01:C22B)           SCC_regToneC 		#2	; Tone C freq low
     144.  01:728A                      					; Tone C freq high
     145.  01:728A  (01:C22D)           SCC_regToneD 		#2	; Tone D freq low
     146.  01:728A                      					; Tone D freq high
     147.  01:728A  (01:C22F)           SCC_regToneE 		#2	; Tone E freq low
     148.  01:728A                      					; Tone E freq high
     149.  01:728A  (01:C231)           SCC_regVOLA 		#1	; Chan A volume
     150.  01:728A  (01:C232)           SCC_regVOLB 		#1	; Chan B volume
     151.  01:728A  (01:C233)           SCC_regVOLC  		#1	; Chan C volume
     152.  01:728A  (01:C234)           SCC_regVOLD 		#1	; Chan D volume
     153.  01:728A  (01:C235)           SCC_regVOLE  		#1	; Chan E volume
     154.  01:728A  (01:C236)           SCC_regMIXER 		#1	; x3f	; Mixer control (1 = off, 0 = on)
     155.  01:728A                      
     156.  01:728A                      
     157.  01:728A                      ;/// see to remove this.
     158.  01:728A                      ;-- SCC registers
     159.  01:728A  (01:C237)           oldregs:	#(32*4)+(3*5)+1		; a way to int the SCC
     160.  01:728A                      
     161.  01:728A                      
     732   01:728A                      
     733   01:728A  (01:C2C7)           _cur_level_bf:		#mapWidth*mapHeight/2
     734   01:728A  (01:D2C7)           enemylist:			#enemy*nenemies
     735   01:728A                      
     736   01:728A  (01:D474)           slotvar				#1
     737   01:728A  (01:D475)           slotram				#1
     738   01:728A  (01:D476)           SEL_NTSC			#1
     739   01:728A                      
     740   01:728A  (01:D477)           joystick			#1
     741   01:728A                      
     742   01:728A  (01:D478)           _mcx				#2	; relative with in the frame on the screen
     743   01:728A  (01:D47A)           _mcy				#2
     744   01:728A                      
     745   01:728A  (01:D47C)           _mclx				#2	; absolute with the level in ram
     746   01:728A  (01:D47E)           _mcly				#2
     747   01:728A                      
     748   01:728A  (01:D480)           _mcframe			#1
     749   01:728A  (01:D481)           _mcstate			#1
     750   01:728A                      
     751   01:728A  (01:D482)           _mcdx				#2
     752   01:728A  (01:D484)           _mcdy				#2
     753   01:728A                      
     754   01:728A  (01:D486)           _mcprobe:			#1
     755   01:728A  (01:D487)           _mcprobeb:			#1
     756   01:728A                      
     757   01:728A  (01:D488)           _ticxframe			#1
     758   01:728A                      
     759   01:728A  (01:D489)           _buffer:			#16
     760   01:728A  (01:D499)           _fps:				#2
     761   01:728A  (01:D49B)           _nframes:			#2
     762   01:728A  (01:D49D)           _vbit16:			#2
     763   01:728A                      
     764   01:728A  (01:D49F)           _ymappos:			#1
     765   01:728A  (01:D4A0)           _xmappos:			#2
     766   01:728A                      
     767   01:728A  (01:D4A2)           _shadowbuff:		#2
     768   01:728A  (01:D4A4)           _currentpage:		#1
     769   01:728A                      
     770   01:728A  (01:D4A5)           _shadow0:			#32*24*2
     771   01:728A  (01:DAA5)           _shadow1:			#32*24*2
     772   01:728A                      
     773   01:728A                      
     774   01:728A  (0000)              	ENDMAP

    LABELS
-------------------------------------------------
00:00005000   _kBank1
00:00007000   _kBank2
00:00009000   _kBank3
00:0000B000   _kBank4
00:000006EF X n_tiles
00:00000100   mapWidth
00:00000020   mapHeight
00:0000001C   WinWidth
00:00000010   WinHeight
00:000001E1 X Transp
00:00000000   SolidTile0
00:0000002B   SolidTile1
00:00000515   SolidTile2
00:00000625 X SolidTile3
00:00000000   SolidColor0
00:00000001   SolidColor1
00:00000007   SolidColor2
00:00000008 X SolidColor3
00:00000004 X NSolidColors
00:00000024 X ENASLT
00:00000138   RSLREG
00:0000FCC1   EXPTBL
00:00004010   search_slot
00:0000402F   search_slotram
00:00004050   search_slotram0
00:00004055 X setrompage0
00:0000405B   setrompage2
00:00004061   setrampage2
00:00004067 X setrompage3
00:0000406D X setrampage3
00:00004073 X recbios
00:00004076   setslotpage0
00:000040AD X setslotpage1
00:000040EC   setslotpage2
00:00004133   setslotpage3
00:0000000C X rdslt
00:0000001C X CALSLT
00:00000180   chgcpu
00:0000FCC1 X exttbl
00:00008000   _levelmap
00:00004172   _set_r800
00:00004193   set_turbo_tr
00:0000419B   checkkbd
00:000041A6   plot_frame
00:00004223   START
00:00004243   _ntsc
00:000043AD   main_loop
00:0000FC9E   JIFFY
00:0000440E   _isr
00:00004459   powerup
00:00000099   vdpport1
00:0000009A   vdpport2
00:00004462   levelcolors
00:00004482   _SetPalet
00:00004494   _vuitpakker
00:000044CC   _literal
00:000044D1   __loop
00:000044DA X _getlen
00:000044E0   lus
00:000044FD   lenok
00:0000450A   _mode7
00:00004510   _mode6
00:00004516   _mode5
00:0000451C   _mode4
00:00004522   _mode3
00:00004528   _mode2
00:00004538   offsok
00:00004543   _loop
00:00004559   _getbit
00:0000455D   _getbitexx
00:00004563   Depack_out
00:00004565   setVwrite
00:00004571   setVread
00:0000457F   __modes
00:0000458D   plot_tile
00:000045A0   plot_foreground
00:00000004 S counter
00:000045CF   plot_trasp_tile
00:000045E7   vdp_conf
00:00004634   plot_solid_box
00:0000466E   _clean_buffs
00:0000467C   _vdpsetvramwr
00:00004696   _vdpsetvramrd
00:000046B0   _setpage
00:0000005F   chgmod
00:0000000C X RDSLT
00:00000156 X KILBUF
00:000046C1   _scr
00:000046C6   _waitvdp
00:000046DE   _print_probe
00:0000472E   _print_fps
00:00004750   _compute_fps
00:00004757   int2ascii
00:0000475A X Num2asc
00:00004773   Num1
00:00004775   Num2
00:00000003   nenemies
00:00000003   _nenemies
00:00000080 X sprite_size
00:00000000   enemy.type
00:00000001   enemy.state
00:00000002   enemy.frame
00:00000003 X enemy.x
00:00000005 X enemy.y
00:00000007   enemy.mappos
00:00000009   enemy.dx
00:0000000B   enemy.dy
00:0000000D   enemy.nx
00:0000000E   enemy.ny
00:0000000F   enemy.buf
00:0000008F   enemy
0D:00006000   frames
0D:00007400   int_sprites
0D:00007472   move_sprites
0D:0000748E   move_sprites.nextsp
0D:00007497   sp_type_1
0D:000074A7   sp_type_0
0D:000074AD X move_sprite_left
0D:000074D9   animate1
0D:000074E9   move_sprite_right
0D:00007515   animate0
0D:00007524   save_background
0D:00007537   save_background_1f
0D:0000755A   plot_sprite
0D:0000756D   plot_sprite_1f
0D:00007580   restore_background
0D:00007593   restore_background_1f
0D:0000759A   plot_sprtite_frame
00:0000477E   _metatable
01:00006000   _backmap
01:00006400   _hw_sprite_init
01:00006463   hwsprt_test
01:0000647D   up
01:00006489   sup
01:00006497   dwn
01:000064A3   sdwn
01:000064AF   right
01:000064BB   sright
01:000064C9   left
01:000064D4   sleft
01:000064E4   manage_hero
01:0000659E   init_hero
01:000065BA   plot_hero
01:0000665D   state0
01:00006661 X state1
01:00006665 X state2
01:00006669 X state3
01:000000D5 X GTSTCK
01:000000D8 X GTTRIG
01:0000666D   _cursors
01:0000666D X _cursors.rd_joy
01:0000667B X _cursors.rd_key
01:000066C5   probe_level
02:00008000   _frame
02:00008951   _mc_sprites
04:00008000   _tiles0
06:00008000   _tiles1
08:00008000   _level
08:00008452   _level_bf
0A:00008000 X sprtdata
0A:00008000   sprtdata.SPRITES
0A:00008240   sprtdata.ATRIBUTOS
0E:00008000   demo_song
0E:00008005   demo_song.restart
0E:00008079   demo_song.waveform_start
0E:00008299   demo_song.instrument_start
0E:000082D7   demo_song.ins_1
0E:000082DB   demo_song.rst_i1
0E:000082DD   demo_song.ins_2
0E:0000830B   demo_song.rst_i2
0E:0000830D   demo_song.ins_3
0E:00008313   demo_song.rst_i3
0E:00008315   demo_song.ins_4
0E:0000831D   demo_song.rst_i4
0E:0000831E   demo_song.ins_5
0E:0000831E   demo_song.ins_6
0E:00008328   demo_song.rst_i6
0E:0000832E   demo_song.ins_7
0E:00008340   demo_song.rst_i7
0E:0000834A   demo_song.ins_8
0E:0000835C   demo_song.rst_i8
0E:0000835E   demo_song.ins_9
0E:00008388   demo_song.rst_i9
0E:000083AC   demo_song.ins_10
0E:000083D4   demo_song.rst_i10
0E:000083D6   demo_song.ins_11
0E:000083FE   demo_song.rst_i11
0E:00008400   demo_song.ins_12
0E:00008412   demo_song.rst_i12
0E:00008414   demo_song.ins_13
0E:0000842E   demo_song.rst_i13
0E:00008430   demo_song.ins_14
0E:00008442   demo_song.rst_i14
0E:00008444   demo_song.ins_15
0E:0000846C   demo_song.rst_i15
0E:0000846E   demo_song.ins_16
0E:00008480   demo_song.rst_i16
0E:00008482   demo_song.ins_17
0E:00008482   demo_song.ins_18
0E:00008496   demo_song.rst_i18
0E:00008498   demo_song.ins_19
0E:00008498   demo_song.ins_20
0E:000084AA   demo_song.rst_i20
0E:000084AC   demo_song.ins_21
0E:000084B6   demo_song.rst_i21
0E:000084BC   demo_song.ins_22
0E:000084BC   demo_song.ins_23
0E:000084BC   demo_song.ins_24
0E:000084EA   demo_song.rst_i24
0E:00008512   demo_song.ins_25
0E:00008512   demo_song.ins_26
0E:0000853A   demo_song.rst_i26
0E:0000853C   demo_song.ins_27
0E:0000854E   demo_song.rst_i27
0E:00008551   demo_song.ins_28
0E:00008551   demo_song.ins_29
0E:00008551   demo_song.ins_30
0E:00008551   demo_song.ins_31
0E:0000855F   demo_song.rst_i31
0E:00008561   demo_song.track_0
0E:000085C1   demo_song.track_1
0E:000085FA   demo_song.track_2
0E:00008628   demo_song.track_3
0E:0000865A   demo_song.track_4
0E:00008696   demo_song.track_5
0E:000086D8   demo_song.track_6
0E:00008732   demo_song.track_7
0E:00008763   demo_song.track_8
0E:000087C4   demo_song.track_9
0E:000087F8   demo_song.track_10
0E:00008821   demo_song.track_11
0E:0000884D   demo_song.track_12
0E:00008884   demo_song.track_13
0E:000088B7   demo_song.track_14
0E:00008919   demo_song.track_15
0E:00008951   demo_song.track_16
0E:000089BD   demo_song.track_17
0E:000089F9   demo_song.track_18
0E:00008A3B   demo_song.track_19
0E:00008A77   demo_song.track_20
0E:00008ABD   demo_song.track_21
0E:00008AF7   demo_song.track_22
0E:00008B52   demo_song.track_23
0E:00008B97   demo_song.track_24
0E:00008BCC   demo_song.track_25
0E:00008C07   demo_song.track_26
0E:00008C3C   demo_song.track_27
0E:00008C7D   demo_song.track_28
0E:00008CBC   demo_song.track_29
0E:00008D23   demo_song.track_30
0E:00008D5B   demo_song.track_31
0E:00008D8A   demo_song.track_32
0E:00008DBB   demo_song.track_33
0E:00008DEA   demo_song.track_34
0E:00008E26   demo_song.track_35
0E:00008E65   demo_song.track_36
0E:00008EB7   demo_song.track_37
0E:00008EEB   demo_song.track_38
0E:00008F47   demo_song.track_39
0E:00008F7E   demo_song.track_40
0E:00008FA5   demo_song.track_41
0E:00008FD9   demo_song.track_42
0E:0000900D   demo_song.track_43
0E:00009051   demo_song.track_44
0E:0000909F   demo_song.track_45
0E:000090DD X demo_song.track_46
0F:0000A000   _VOLUME_TABLE
0F:00000D40   C_PER
0F:00000C80   C1_PER
0F:00000BC0   D_PER
0F:00000B20   D1_PER
0F:00000A80   E_PER
0F:000009E0   F_PER
0F:00000940   F1_PER
0F:000008C0   G_PER
0F:00000840   G1_PER
0F:000007E0   A_PER
0F:00000760   A1_PER
0F:00000700   B_PER
0F:0000A100   TRACK_ToneTable
0F:0000A1C0   TRACK_Vibrato_sine
0F:0000A1E0   TRACK_Vibrato_triangle
0F:0000A200   TRACK_Vibrato_pulse
01:000066F6   replay_init
01:00006797   _replay_check_patternend
01:000067C9   replay_play
01:000067E5 X replay_decodedata
01:000068FD   replay_decodedata_NO
01:000069E4   replay_decode_chan
01:000069FA   _rdn2
01:000069FF   _rdv2
01:00006A04   _rdi2
01:00006A0C   _rdn
01:00006A14   _rdi
01:00006A1C   _rdv
01:00006A24   _rdc
01:00006A2E   _rd_delay
01:00006A35   _replay_decode_note
01:00006A41   _replay_decode_rest
01:00006A4A   _replay_decode_ins
01:00006A88   _replay_decode_vol
01:00006A9D   _replay_decode_delay
01:00006AAA   _replay_decode_cmd
01:00006AC0   DECODE_CMDLIST
01:00006B12   _CHIPcmd0_arpeggio
01:00006B1E   _CHIPcmd1_port_up
01:00006B26   _CHIPcmd2_port_down
01:00006B2E   _CHIPcmd3_RE_port_tone
01:00006B34   _CHIPcmd3_port_tone
01:00006B7E   _CHIPcmd4_vibrato
01:00006B98   _CHIPcmd5_vibrato_port_tone
01:00006B98   _CHIPcmd6_vibrato_vol
01:00006B98   _CHIPcmd7_vol_slide
01:00006BA4   _CHIPcmd8_macro_offset
01:00006BA7   _CHIPcmd9_env_shape
01:00006BAF   _CHIPcmdA_env_mul
01:00006BC4   _CHIPcmdB_wave_res
01:00006BCC   _CHIPcmdC_wave_duty
01:00006BCC   _CHIPcmdD_wave_cut
01:00006BCC   _CHIPcmdE_wave_compr
01:00006BD6   _CHIPcmdF_wave_set
01:00006BE0   _CHIPcmd10_morph_slave
01:00006BE6   _CHIPcmd11_morph_start
01:00006C0F   _CHIPcmd12_morph_cont
01:00006C26   _CHIPcmd13_short_arp
01:00006C32   _CHIPcmd14_fine_up
01:00006C32   _CHIPcmd15_fine_down
01:00006C3E   _CHIPcmd16_vib_ctrl
01:00006C49 X _cmd16_pulse
01:00006C52   _cmd16_tri
01:00006C5B   _cmd16_sine
01:00006C64   _CHIPcmd17_track_detune
01:00006C87   _CHIPcmd18_transpose
01:00006CAD   _CHIPcmdXX_note_cut
01:00006CB6   _CHIPcmd19_note_delay
01:00006CD4   _CHIPcmd1A_trigger
01:00006CDA   _CHIPcmd1B_speed
01:00006CED   _CHIPcmd1C_call
01:00006CED   _CHIPcmd1D_ret
01:00006CF1   _CHIPcmd0_RE_arpeggio
01:00006CF5   _CHIPcmd1_RE_port_up
01:00006CF5   _CHIPcmd2_RE_port_down
01:00006CF5   _CHIPcmd4_RE_vibrato
01:00006CFD   _CHIPcmd5_RE_vibrato_port_tone
01:00006CFD   _CHIPcmd6_RE_vibrato_vol
01:00006CFD   _CHIPcmd7_RE_vol_slide
01:00006D09   _CHIPcmd8_RE_macro_offset
01:00006D15   _CHIPcmd9_RE_env_shape
01:00006D1D   replay_process_chan_AY
01:00006D39   _pcAY_noCommand
01:00006D39   _pcAY_commandEND
01:00006D3E X _pcAY_triggerNote
01:00006D62   _pcAY_noNoteTrigger
01:00006D86   _vol_change
01:00006D8D X _vol_rel
01:00006DA0   _vol_base
01:00006DB0   _noEnv
01:00006DC6 X _Vadd
01:00006DDE   _noVolume
01:00006E05   _noNoise
01:00006E12   _pcAY_noTone
01:00006E2F   _pcAY_noToneAdd
01:00006E6D   _pcAY_noNoteActive
01:00006E72   stop_debug
01:00006E76 X PROCESS_CMDLIST
01:00006E90   _pcAY_cmdlist
01:00006EC6   _pcAY_cmd0_arpeggio
01:00006EFD   _pcAY_cmd1_port_up
01:00006F11   _pcAY_cmd2_port_down
01:00006F25   _pcAY_cmd3_port_tone
01:00006F33 X _pcAY_cmd3_add
01:00006F46   _pcAY_cmd3_sub
01:00006F59   _pcAY_cmd3_stop
01:00006F66   _pcAY_cmd4_vibrato
01:00006F98   _pcAY_cmd4pos
01:00006FB0   _pcAY_cmd5_vibrato_port_tone
01:00006FB6   _pcAY_cmd6_vibrato_vol
01:00006FBC   _pcAY_cmd7_vol_slide
01:00006FC2   _pcAY_cmdasub
01:00006FD7 X _pcAY_cmda_dec
01:00006FE0   _pcAY_cmda_inc
01:00006FE9   _pcAY_cmd8_macro_offset
01:00006FF4   _pcAY_cmdc_wave_duty
01:0000700F   _wspw_loop_h
01:0000701A   _wspw_loop_l
01:00007021   _pcAY_cmdd_wave_cut
01:0000705B   _wsc_l
01:00007062   _pcAY_cmde_wave_compr
01:00007094   _wcomp_loop
01:000070B1   _pcAY_cmd13_short_arp
01:000070C2   _pcAY_cmd14_fine_up
01:000070DC   _pcAY_cmd15_fine_down
01:000070F6   _pcAY_cmdXX_note_cut
01:00007103   _pcAY_cmd19_note_delay
01:00007116   replay_route
01:0000711D   _comp_loop
01:00007136   _ptAY_loop
01:0000714E   _ptAY_noEnv
01:0000719F   scc_reg_update
01:000071AF   loop
01:000071BE   _write_SCC_wave
01:000071D6   _write_SCC_special
01:000071DB   _wss_l
01:000071E3   replay_process_morph
01:0000721E   _rpm_loop
01:0000722B X _rpm_larger
01:00007239   _rpm_smaller
01:00007249   _rpm_next_step
01:00007264   _rpm_ns_loop
01:0000726A X _rmp_ns_sub
01:0000727C   _rmp_ns_add
01:0000728A X FINISH
01:FFFFFFEF   TRACK_Instrument
01:FFFFFFF0   TRACK_Waveform
01:FFFFFFF1   TRACK_Command
01:FFFFFFF2   TRACK_MacroPointer
01:FFFFFFF4   TRACK_MacroStart
01:FFFFFFF6   TRACK_MacroRestart
01:FFFFFFF7   TRACK_Note
01:FFFFFFF8   TRACK_Volume
01:FFFFFFF9   TRACK_Flags
01:FFFFFFFA X TRACK_empty
01:FFFFFFFB   TRACK_ToneAdd
01:FFFFFFFD   TRACK_VolumeAdd
01:FFFFFFFE   TRACK_Noise
01:FFFFFFFF   TRACK_cmd_VolumeAdd
01:00000000   TRACK_cmd_ToneSlideAdd
01:00000002   TRACK_cmd_ToneAdd
01:00000004   TRACK_cmd_detune
01:00000005   TRACK_cmd_0
01:00000006   TRACK_cmd_1
01:00000007   TRACK_cmd_2
01:00000008   TRACK_cmd_3
01:00000009   TRACK_cmd_4_depth
01:0000000A   TRACK_cmd_4_step
01:0000000B   TRACK_cmd_NoteAdd
01:0000000C   TRACK_cmd_A
01:0000000D   TRACK_cmd_B
01:0000000E   TRACK_cmd_E
01:0000000F   TRACK_Timer
01:00000010   TRACK_Step
01:00000011   TRACK_Delay
01:00000012   TRACK_prevDelay
01:00000013   TRACK_Retrig
01:00000014 X TRACK_cmd_A_add
01:00000026   TRACK_REC_SIZE
01:00000000   B_TRGNOT
01:00000001   B_ACTNOT
01:00000002   B_TRGENV
01:00000003   B_TRGCMD
01:00000004   B_ACTMOR
01:00000005 X B_TRGINS
01:00000006   B_TRGWAV
01:00000007   B_PSGSCC
01:0000C000   _SP_Storage
01:0000C001   replay_trigger
01:0000C002   replay_mainPSGvol
01:0000C003   replay_mainSCCvol
01:0000C004   replay_wavebase
01:0000C006   replay_insbase
01:0000C008   replay_orderpointer
01:0000C00A   replay_speed
01:0000C00B   replay_speed_subtimer
01:0000C00C   replay_speed_timer
01:0000C00D   replay_mode
01:0000C00E   replay_previous_note
01:0000C00F   replay_mainvol
01:0000C010   replay_vib_table
01:0000C012   replay_Tonetable
01:0000C014   replay_morph_active
01:0000C015   replay_morph_timer
01:0000C016   replay_morph_speed
01:0000C017   replay_morph_counter
01:0000C018   replay_morph_buffer
01:0000C058   replay_morph_waveform
01:0000C059   TRACK_Chan1
01:0000C07F   TRACK_Chan2
01:0000C0A5   TRACK_Chan3
01:0000C0CB   TRACK_Chan4
01:0000C0F1   TRACK_Chan5
01:0000C117   TRACK_Chan6
01:0000C13D   TRACK_Chan7
01:0000C163   TRACK_Chan8
01:0000C189   TRACK_pointer1
01:0000C18B   TRACK_pointer2
01:0000C18D   TRACK_pointer3
01:0000C18F   TRACK_pointer4
01:0000C191   TRACK_pointer5
01:0000C193   TRACK_pointer6
01:0000C195   TRACK_pointer7
01:0000C197   TRACK_pointer8
01:0000C199   AY_registers
01:0000C199   AY_regToneA
01:0000C19B   AY_regToneB
01:0000C19D   AY_regToneC
01:0000C19F   AY_regNOISE
01:0000C1A0   AY_regMIXER
01:0000C1A1   AY_regVOLA
01:0000C1A2   AY_regVOLB
01:0000C1A3   AY_regVOLC
01:0000C1A4   AY_regEnvL
01:0000C1A5   AY_regEnvH
01:0000C1A6   AY_regEnvShape
01:0000C1A7   _0x9800
01:0000C1C7 X _0x9820
01:0000C1E7 X _0x9840
01:0000C207 X _0x9860
01:0000C227   SCC_registers
01:0000C227   SCC_regToneA
01:0000C229   SCC_regToneB
01:0000C22B   SCC_regToneC
01:0000C22D   SCC_regToneD
01:0000C22F   SCC_regToneE
01:0000C231   SCC_regVOLA
01:0000C232   SCC_regVOLB
01:0000C233   SCC_regVOLC
01:0000C234   SCC_regVOLD
01:0000C235   SCC_regVOLE
01:0000C236   SCC_regMIXER
01:0000C237   oldregs
01:0000C2C7   _cur_level_bf
01:0000D2C7   enemylist
01:0000D474   slotvar
01:0000D475   slotram
01:0000D476   SEL_NTSC
01:0000D477   joystick
01:0000D478   _mcx
01:0000D47A   _mcy
01:0000D47C   _mclx
01:0000D47E   _mcly
01:0000D480   _mcframe
01:0000D481   _mcstate
01:0000D482   _mcdx
01:0000D484   _mcdy
01:0000D486   _mcprobe
01:0000D487   _mcprobeb
01:0000D488   _ticxframe
01:0000D489   _buffer
01:0000D499   _fps
01:0000D49B   _nframes
01:0000D49D   _vbit16
01:0000D49F   _ymappos
01:0000D4A0   _xmappos
01:0000D4A2   _shadowbuff
01:0000D4A4   _currentpage
01:0000D4A5   _shadow0
01:0000DAA5   _shadow1


 Output: main.out
-------------------------------------------------

 Page: 00
  Org: 00004000  Size: *  Used: 00000000

    No output

 Output: maneldem.rom
-------------------------------------------------

 Page: 00
  Org: 00004000  Size: 00002000  Used: 000018FE

   Address   Length Align   Label
   00004000    1918         search_slot
   0000477E    4480         _metatable
   000058FE    1794       <empty>

 Page: 01
  Org: 00006000  Size: 00002000  Used: 0000128A

   Address   Length Align   Label
   00006000    1782         _backmap
   000066F6    2964         replay_init
   0000728A    3446       <empty>

 Page: 02
  Org: 00008000  Size: 00002000  Used: 00001338

   Address   Length Align   Label
   00008000    4920         _frame
   00009338    3272       <empty>

 Page: 03
  Org: 0000A000  Size: 00002000  Used: 00000000

   0000A000    8192       <empty>

 Page: 04
  Org: 00008000  Size: 00002000  Used: 00002000

   Address   Length Align   Label
   00008000    8192         _tiles0

 Page: 05
  Org: 0000A000  Size: 00002000  Used: 00000F62

   Address   Length Align   Label
   0000A000    3938         
   0000AF62    4254       <empty>

 Page: 06
  Org: 00008000  Size: 00002000  Used: 00002000

   Address   Length Align   Label
   00008000    8192         _tiles1

 Page: 07
  Org: 0000A000  Size: 00002000  Used: 00001A1B

   Address   Length Align   Label
   0000A000    6683         
   0000BA1B    1509       <empty>

 Page: 08
  Org: 00008000  Size: 00002000  Used: 00001452

   Address   Length Align   Label
   00008000    5202         _level
   00009452    2990       <empty>

 Page: 09
  Org: 0000A000  Size: 00002000  Used: 00000000

   0000A000    8192       <empty>

 Page: 0A
  Org: 00008000  Size: 00002000  Used: 00000360

   Address   Length Align   Label
   00008000     864         sprtdata
   00008360    7328       <empty>

 Page: 0B
  Org: 0000A000  Size: 00002000  Used: 00000000

   0000A000    8192       <empty>

 Page: 0C
  Org: 00004000  Size: 00002000  Used: 00000000

   00004000    8192       <empty>

 Page: 0D
  Org: 00006000  Size: 00002000  Used: 000015B5

   Address   Length Align   Label
   00006000    5557         frames
   000075B5    2635       <empty>

 Page: 0E
  Org: 00008000  Size: 00002000  Used: 000010DF

   Address   Length Align   Label
   00008000    4319         demo_song
   000090DF    3873       <empty>

 Page: 0F
  Org: 0000A000  Size: 00002000  Used: 00000220

   Address   Length Align   Label
   0000A000     544         _VOLUME_TABLE
   0000A220    7648       <empty>
